(dp0
I0
(lp1
V2017-04-06 | RT @philstockworld: Free Money Thursday - Draghi Says No to Tapering $QQQ $SPX $DIA $SPY $AAPL $AMZN $TSLA $GOOGL https://t.co/DqmpQKMeF8
p2
aV2017-04-06 | RT @philstockworld: Free Money Thursday - Draghi Says No to Tapering $QQQ $SPX $DIA $SPY $AAPL $AMZN $TSLA $GOOGL https://t.co/DqmpQKMeF8
p3
aV2017-04-06 | RT @philstockworld: Free Money Thursday - Draghi Says No to Tapering $QQQ $SPX $DIA $SPY $AAPL $AMZN $TSLA $GOOGL https://t.co/DqmpQKMeF8
p4
aV2017-04-06 | Imagine reading up on $Oil $AAPL $EURUSD concurrently on the same platform! https://t.co/hpDn2yz05K https://t.co/wfPFJdTAmY
p5
aV2017-04-06 | RT @philstockworld: Free Money Thursday - Draghi Says No to Tapering $QQQ $SPX $DIA $SPY $AAPL $AMZN $TSLA $GOOGL https://t.co/DqmpQKMeF8
p6
aV2017-04-06 | RT @philstockworld: Free Money Thursday - Draghi Says No to Tapering $QQQ $SPX $DIA $SPY $AAPL $AMZN $TSLA $GOOGL https://t.co/DqmpQKMeF8
p7
aV2017-04-06 | RT @philstockworld: Free Money Thursday - Draghi Says No to Tapering $QQQ $SPX $DIA $SPY $AAPL $AMZN $TSLA $GOOGL https://t.co/DqmpQKMeF8
p8
aV2017-04-06 | RT @philstockworld: Free Money Thursday - Draghi Says No to Tapering $QQQ $SPX $DIA $SPY $AAPL $AMZN $TSLA $GOOGL https://t.co/DqmpQKMeF8
p9
aV2017-04-06 | RT @philstockworld: Free Money Thursday - Draghi Says No to Tapering $QQQ $SPX $DIA $SPY $AAPL $AMZN $TSLA $GOOGL https://t.co/DqmpQKMeF8
p10
aV2017-04-06 | RT @philstockworld: Free Money Thursday - Draghi Says No to Tapering $QQQ $SPX $DIA $SPY $AAPL $AMZN $TSLA $GOOGL https://t.co/DqmpQKMeF8
p11
aV2017-04-06 | RT @philstockworld: Free Money Thursday - Draghi Says No to Tapering $QQQ $SPX $DIA $SPY $AAPL $AMZN $TSLA $GOOGL https://t.co/DqmpQKMeF8
p12
aV2017-04-06 | @Vuzix I think $aapl @Apple recognizes the long term #AR threat of $vuzi #m3000 &amp; #blade3000. They know good inputs. https://t.co/78zptjCnkK
p13
aV2017-04-06 | RT @philstockworld: Free Money Thursday - Draghi Says No to Tapering $QQQ $SPX $DIA $SPY $AAPL $AMZN $TSLA $GOOGL https://t.co/DqmpQKMeF8
p14
aV2017-04-06 | Monitor your watchlist of assets for tweets - US Tech Giants https://t.co/J74uV6qAnD $AAPL $GOOG $MSFT $FB
p15
aV2017-04-06 | RT @philstockworld: Free Money Thursday - Draghi Says No to Tapering $QQQ $SPX $DIA $SPY $AAPL $AMZN $TSLA $GOOGL https://t.co/DqmpQKMeF8
p16
aV2017-04-06 | RT @anauburntiger: #WarEagle ! @tim_cook leading $AAPL  #Auburn #auburnfamily #auburnfootball @petenajarian https://t.co/5oPJs0jQOL
p17
aV2017-04-06 | RT @philstockworld: Free Money Thursday - Draghi Says No to Tapering $QQQ $SPX $DIA $SPY $AAPL $AMZN $TSLA $GOOGL https://t.co/DqmpQKMeF8
p18
aV2017-04-06 | #WarEagle ! @tim_cook leading $AAPL  #Auburn #auburnfamily #auburnfootball @petenajarian https://t.co/5oPJs0jQOL
p19
aV2017-04-06 | RT @philstockworld: Free Money Thursday - Draghi Says No to Tapering $QQQ $SPX $DIA $SPY $AAPL $AMZN $TSLA $GOOGL https://t.co/DqmpQKMeF8
p20
aV2017-04-06 | RT @philstockworld: Free Money Thursday - Draghi Says No to Tapering $QQQ $SPX $DIA $SPY $AAPL $AMZN $TSLA $GOOGL https://t.co/DqmpQKMeF8
p21
aV2017-04-06 | RT @philstockworld: Free Money Thursday - Draghi Says No to Tapering $QQQ $SPX $DIA $SPY $AAPL $AMZN $TSLA $GOOGL https://t.co/DqmpQKMeF8
p22
aV2017-04-06 | RT @philstockworld: Free Money Thursday - Draghi Says No to Tapering $QQQ $SPX $DIA $SPY $AAPL $AMZN $TSLA $GOOGL https://t.co/DqmpQKMeF8
p23
aV2017-04-06 | RT @philstockworld: Free Money Thursday - Draghi Says No to Tapering $QQQ $SPX $DIA $SPY $AAPL $AMZN $TSLA $GOOGL https://t.co/DqmpQKMeF8
p24
aV2017-04-06 | RT @philstockworld: Free Money Thursday - Draghi Says No to Tapering $QQQ $SPX $DIA $SPY $AAPL $AMZN $TSLA $GOOGL https://t.co/DqmpQKMeF8
p25
aV2017-04-06 | RT @philstockworld: Free Money Thursday - Draghi Says No to Tapering $QQQ $SPX $DIA $SPY $AAPL $AMZN $TSLA $GOOGL https://t.co/DqmpQKMeF8
p26
aV2017-04-06 | RT @philstockworld: Free Money Thursday - Draghi Says No to Tapering $QQQ $SPX $DIA $SPY $AAPL $AMZN $TSLA $GOOGL https://t.co/DqmpQKMeF8
p27
aV2017-04-06 | RT @philstockworld: Free Money Thursday - Draghi Says No to Tapering $QQQ $SPX $DIA $SPY $AAPL $AMZN $TSLA $GOOGL https://t.co/DqmpQKMeF8
p28
aV2017-04-06 | RT @philstockworld: Free Money Thursday - Draghi Says No to Tapering $QQQ $SPX $DIA $SPY $AAPL $AMZN $TSLA $GOOGL https://t.co/DqmpQKMeF8
p29
aV2017-04-06 | RT @WallStJesus: \U0001f525 TODAY'S ACTIVE FLOW &gt;&gt; $AMD $AAPL $AMZN $TSLA $FB $NVDA $JPM $CMCSA $TWTR $KMX $CHK $MU $CHK $MSFT $MBI $RAD $X $C $BABA\u2026
p30
aV2017-04-06 | RT @philstockworld: Free Money Thursday - Draghi Says No to Tapering $QQQ $SPX $DIA $SPY $AAPL $AMZN $TSLA $GOOGL https://t.co/DqmpQKMeF8
p31
aV2017-04-06 | RT @philstockworld: Free Money Thursday - Draghi Says No to Tapering $QQQ $SPX $DIA $SPY $AAPL $AMZN $TSLA $GOOGL https://t.co/DqmpQKMeF8
p32
aV2017-04-06 | RT @philstockworld: Free Money Thursday - Draghi Says No to Tapering $QQQ $SPX $DIA $SPY $AAPL $AMZN $TSLA $GOOGL https://t.co/DqmpQKMeF8
p33
aV2017-04-06 | RT @philstockworld: Free Money Thursday - Draghi Says No to Tapering $QQQ $SPX $DIA $SPY $AAPL $AMZN $TSLA $GOOGL https://t.co/DqmpQKMeF8
p34
aV2017-04-06 | RT @philstockworld: Free Money Thursday - Draghi Says No to Tapering $QQQ $SPX $DIA $SPY $AAPL $AMZN $TSLA $GOOGL https://t.co/DqmpQKMeF8
p35
aV2017-04-06 | Why access a ticker when you can access a group of tickers - US Tech Giants https://t.co/J74uV6qAnD $AAPL $GOOGL $MSFT $FB
p36
aV2017-04-06 | RT @philstockworld: Free Money Thursday - Draghi Says No to Tapering $QQQ $SPX $DIA $SPY $AAPL $AMZN $TSLA $GOOGL https://t.co/DqmpQKMeF8
p37
aV2017-04-06 | RT @philstockworld: Free Money Thursday - Draghi Says No to Tapering $QQQ $SPX $DIA $SPY $AAPL $AMZN $TSLA $GOOGL https://t.co/DqmpQKMeF8
p38
aV2017-04-06 | Trading Tip of the Week 4/5/17 https://t.co/UOzw4HvsyP #Trading #Stocks #Options #Success $AAPL $FB $AMZN $TWTR $BIDU $GM $GS $DUST $GUSH
p39
aV2017-04-06 | RT @philstockworld: Free Money Thursday - Draghi Says No to Tapering $QQQ $SPX $DIA $SPY $AAPL $AMZN $TSLA $GOOGL https://t.co/DqmpQKMeF8
p40
aV2017-04-06 | RT @philstockworld: Free Money Thursday - Draghi Says No to Tapering $QQQ $SPX $DIA $SPY $AAPL $AMZN $TSLA $GOOGL https://t.co/DqmpQKMeF8
p41
aV2017-04-06 | RT @philstockworld: Free Money Thursday - Draghi Says No to Tapering $QQQ $SPX $DIA $SPY $AAPL $AMZN $TSLA $GOOGL https://t.co/DqmpQKMeF8
p42
aV2017-04-06 | RT @MacHashNews: Malwarebytes: New iOS \u2018malvertising' pushes \u2018free' VPN app https://t.co/yMXrLQiA6I #AppleWorldToday $AAPL https://t.co/AQR\u2026
p43
aV2017-04-06 | RT @philstockworld: Free Money Thursday - Draghi Says No to Tapering $QQQ $SPX $DIA $SPY $AAPL $AMZN $TSLA $GOOGL https://t.co/DqmpQKMeF8
p44
aV2017-04-06 | RT @philstockworld: Free Money Thursday - Draghi Says No to Tapering $QQQ $SPX $DIA $SPY $AAPL $AMZN $TSLA $GOOGL https://t.co/DqmpQKMeF8
p45
aV2017-04-06 | Malwarebytes: New iOS \u2018malvertising' pushes \u2018free' VPN app https://t.co/yMXrLQiA6I #AppleWorldToday $AAPL https://t.co/AQRpOsXI3N
p46
aV2017-04-06 | RT @philstockworld: Free Money Thursday - Draghi Says No to Tapering $QQQ $SPX $DIA $SPY $AAPL $AMZN $TSLA $GOOGL https://t.co/DqmpQKMeF8
p47
aV2017-04-06 | RT @Ascend_Trading: #PreMarket Live is on!  https://t.co/XPOUXYUC5I $FB $TWTR $AAPL $AMZN $SPY $SCON  $TENX $NVFY streaming with Restream.io
p48
aV2017-04-06 | RT @philstockworld: Free Money Thursday - Draghi Says No to Tapering $QQQ $SPX $DIA $SPY $AAPL $AMZN $TSLA $GOOGL https://t.co/DqmpQKMeF8
p49
aV2017-04-06 | RT @philstockworld: Free Money Thursday - Draghi Says No to Tapering $QQQ $SPX $DIA $SPY $AAPL $AMZN $TSLA $GOOGL https://t.co/DqmpQKMeF8
p50
aV2017-04-06 | RT @BarrySchwartzBW: Apple has reduced its share count by 20% in just four years. So far all those buybacks have created value. $AAPL
p51
aV2017-04-06 | RT @philstockworld: Free Money Thursday - Draghi Says No to Tapering $QQQ $SPX $DIA $SPY $AAPL $AMZN $TSLA $GOOGL https://t.co/DqmpQKMeF8
p52
aV2017-04-06 | RT @philstockworld: Free Money Thursday - Draghi Says No to Tapering $QQQ $SPX $DIA $SPY $AAPL $AMZN $TSLA $GOOGL https://t.co/DqmpQKMeF8
p53
aV2017-04-06 | RT @philstockworld: Free Money Thursday - Draghi Says No to Tapering $QQQ $SPX $DIA $SPY $AAPL $AMZN $TSLA $GOOGL https://t.co/DqmpQKMeF8
p54
aV2017-04-06 | RT @philstockworld: Free Money Thursday - Draghi Says No to Tapering $QQQ $SPX $DIA $SPY $AAPL $AMZN $TSLA $GOOGL https://t.co/DqmpQKMeF8
p55
aV2017-04-06 | RT @philstockworld: Free Money Thursday - Draghi Says No to Tapering $QQQ $SPX $DIA $SPY $AAPL $AMZN $TSLA $GOOGL https://t.co/DqmpQKMeF8
p56
aV2017-04-06 | RT @philstockworld: Free Money Thursday - Draghi Says No to Tapering $QQQ $SPX $DIA $SPY $AAPL $AMZN $TSLA $GOOGL https://t.co/DqmpQKMeF8
p57
aV2017-04-06 | @jimcramer Sounds like you are comparing these two to $AAPL #owndonttrade
p58
aV2017-04-06 | RT @MacHashNews: Is this the graphics card for the future Mac Pro? https://t.co/PurpogyUuc #Macworld $AAPL https://t.co/kvoiP1kARA
p59
aV2017-04-06 | RT @philstockworld: Free Money Thursday - Draghi Says No to Tapering $QQQ $SPX $DIA $SPY $AAPL $AMZN $TSLA $GOOGL https://t.co/DqmpQKMeF8
p60
aV2017-04-06 | RT @philstockworld: Free Money Thursday - Draghi Says No to Tapering $QQQ $SPX $DIA $SPY $AAPL $AMZN $TSLA $GOOGL https://t.co/DqmpQKMeF8
p61
aV2017-04-06 | RT @philstockworld: Free Money Thursday - Draghi Says No to Tapering $QQQ $SPX $DIA $SPY $AAPL $AMZN $TSLA $GOOGL https://t.co/DqmpQKMeF8
p62
aV2017-04-06 | RT @philstockworld: Free Money Thursday - Draghi Says No to Tapering $QQQ $SPX $DIA $SPY $AAPL $AMZN $TSLA $GOOGL https://t.co/DqmpQKMeF8
p63
aV2017-04-06 | RT @philstockworld: Free Money Thursday - Draghi Says No to Tapering $QQQ $SPX $DIA $SPY $AAPL $AMZN $TSLA $GOOGL https://t.co/DqmpQKMeF8
p64
aV2017-04-06 | RT @philstockworld: Free Money Thursday - Draghi Says No to Tapering $QQQ $SPX $DIA $SPY $AAPL $AMZN $TSLA $GOOGL https://t.co/DqmpQKMeF8
p65
aV2017-04-06 | RT @philstockworld: Free Money Thursday - Draghi Says No to Tapering $QQQ $SPX $DIA $SPY $AAPL $AMZN $TSLA $GOOGL https://t.co/DqmpQKMeF8
p66
aV2017-04-06 | RT @theflynews: REPORT: Apple develops video app in response to social media competitors: https://t.co/ykwcXWtbd9 $AAPL $FB $SNAP
p67
aV2017-04-06 | RT @racernic: Update on this wk's 8Iron condors: 7.5/8wins 4mmbrs (1ccs -.08/-.1 but noted to close flat yest $SPX $RUT $SPY $QQQ $IWM $AAP\u2026
p68
aV2017-04-06 | https://t.co/B24oQV42ds 4 FREE #txt &amp; email #stock alerts! $TWTR $SPY $AMZN $ICNB $PLUG $BTC $TSLA $AAPL $QQQ $MMEX\u2026 https://t.co/cFO0gWSvAg
p69
aV2017-04-06 | RT @Investing_Books: Options Trading For Beginners: How To Get Rich With Stock Options Trading: https://t.co/YvhmFGWIBg #trading #options $\u2026
p70
aV2017-04-06 | RT @TheStreet: The release would be the tech titan's Apple Watch Series 3 https://t.co/ePfwNOafWV $AAPL
p71
aV2017-04-06 | RT @philstockworld: Free Money Thursday - Draghi Says No to Tapering $QQQ $SPX $DIA $SPY $AAPL $AMZN $TSLA $GOOGL https://t.co/DqmpQKMeF8
p72
aV2017-04-06 | RT @philstockworld: Free Money Thursday - Draghi Says No to Tapering $QQQ $SPX $DIA $SPY $AAPL $AMZN $TSLA $GOOGL https://t.co/DqmpQKMeF8
p73
aV2017-04-06 | RT @philstockworld: Free Money Thursday - Draghi Says No to Tapering $QQQ $SPX $DIA $SPY $AAPL $AMZN $TSLA $GOOGL https://t.co/DqmpQKMeF8
p74
aV2017-04-06 | RT @barronsonline: Tech Today: Debating Nvidia, #iPhone Delays? Arista's Good News https://t.co/qY9JKVMpMk $NVDA $NOK $AMD $AAPL $ANET $CSC\u2026
p75
aV2017-04-06 | RT @philstockworld: Free Money Thursday - Draghi Says No to Tapering $QQQ $SPX $DIA $SPY $AAPL $AMZN $TSLA $GOOGL https://t.co/DqmpQKMeF8
p76
aV2017-04-06 | RT @philstockworld: Free Money Thursday - Draghi Says No to Tapering $QQQ $SPX $DIA $SPY $AAPL $AMZN $TSLA $GOOGL https://t.co/DqmpQKMeF8
p77
aV2017-04-06 | iPhone user base expected to be over 1.1B this year. That's double what it was in 2014. $AAPL
p78
aV2017-04-06 | RT @philstockworld: Free Money Thursday - Draghi Says No to Tapering $QQQ $SPX $DIA $SPY $AAPL $AMZN $TSLA $GOOGL https://t.co/DqmpQKMeF8
p79
aV2017-04-06 | RT @philstockworld: Free Money Thursday - Draghi Says No to Tapering $QQQ $SPX $DIA $SPY $AAPL $AMZN $TSLA $GOOGL https://t.co/DqmpQKMeF8
p80
aV2017-04-06 | RT @philstockworld: Free Money Thursday - Draghi Says No to Tapering $QQQ $SPX $DIA $SPY $AAPL $AMZN $TSLA $GOOGL https://t.co/DqmpQKMeF8
p81
aV2017-04-06 | RT @philstockworld: Free Money Thursday - Draghi Says No to Tapering $QQQ $SPX $DIA $SPY $AAPL $AMZN $TSLA $GOOGL https://t.co/DqmpQKMeF8
p82
aV2017-04-06 | RT @philstockworld: Free Money Thursday - Draghi Says No to Tapering $QQQ $SPX $DIA $SPY $AAPL $AMZN $TSLA $GOOGL https://t.co/DqmpQKMeF8
p83
aV2017-04-06 | Options Trading For Beginners: How To Get Rich With Stock Options Trading: https://t.co/YvhmFGWIBg #trading #options $SPY $VIX $SPX $AAPL
p84
aV2017-04-06 | RT @philstockworld: Free Money Thursday - Draghi Says No to Tapering $QQQ $SPX $DIA $SPY $AAPL $AMZN $TSLA $GOOGL https://t.co/DqmpQKMeF8
p85
aV2017-04-06 | Stocks UP, Gold &amp; Bonds DOWN! https://t.co/JtVBGn0N1C #stocks #business #investing #finance #stockmarket #wallstreet #nyse $qqq #cnbc $aapl
p86
aV2017-04-06 | RT @philstockworld: Free Money Thursday - Draghi Says No to Tapering $QQQ $SPX $DIA $SPY $AAPL $AMZN $TSLA $GOOGL https://t.co/DqmpQKMeF8
p87
aV2017-04-06 | RT @philstockworld: Free Money Thursday - Draghi Says No to Tapering $QQQ $SPX $DIA $SPY $AAPL $AMZN $TSLA $GOOGL https://t.co/DqmpQKMeF8
p88
aV2017-04-06 | Is this the graphics card for the future Mac Pro? https://t.co/PurpogyUuc #Macworld $AAPL https://t.co/kvoiP1kARA
p89
aV2017-04-06 | RT @philstockworld: Free Money Thursday - Draghi Says No to Tapering $QQQ $SPX $DIA $SPY $AAPL $AMZN $TSLA $GOOGL https://t.co/DqmpQKMeF8
p90
aV2017-04-06 | RT @philstockworld: Free Money Thursday - Draghi Says No to Tapering $QQQ $SPX $DIA $SPY $AAPL $AMZN $TSLA $GOOGL https://t.co/DqmpQKMeF8
p91
aV2017-04-06 | RT @scalpthatstock: T3 Live Daily Recap - Markets Steady Despite Trump-Xi Summit Worries  https://t.co/ijY4easxoZ  $SPY $IWM $AMZN $AAPL $F\u2026
p92
aV2017-04-06 | RT @philstockworld: Free Money Thursday - Draghi Says No to Tapering $QQQ $SPX $DIA $SPY $AAPL $AMZN $TSLA $GOOGL https://t.co/DqmpQKMeF8
p93
aV2017-04-06 | RT @philstockworld: Free Money Thursday - Draghi Says No to Tapering $QQQ $SPX $DIA $SPY $AAPL $AMZN $TSLA $GOOGL https://t.co/DqmpQKMeF8
p94
aV2017-04-06 | Does Evan Duffield own too much $dash https://t.co/0Q3420Ah6D? Do these people argue this point about @finkd and $FB? Jobs and $AAPL? #dash
p95
aV2017-04-06 | Apple has reduced its share count by 20% in just four years. So far all those buybacks have created value. $AAPL
p96
aV2017-04-06 | RT @philstockworld: Free Money Thursday - Draghi Says No to Tapering $QQQ $SPX $DIA $SPY $AAPL $AMZN $TSLA $GOOGL https://t.co/DqmpQKMeF8
p97
aV2017-04-06 | RT @philstockworld: Free Money Thursday - Draghi Says No to Tapering $QQQ $SPX $DIA $SPY $AAPL $AMZN $TSLA $GOOGL https://t.co/DqmpQKMeF8
p98
aV2017-04-06 | RT @philstockworld: Free Money Thursday - Draghi Says No to Tapering $QQQ $SPX $DIA $SPY $AAPL $AMZN $TSLA $GOOGL https://t.co/DqmpQKMeF8
p99
aV2017-04-06 | RT @philstockworld: Free Money Thursday - Draghi Says No to Tapering $QQQ $SPX $DIA $SPY $AAPL $AMZN $TSLA $GOOGL https://t.co/DqmpQKMeF8
p100
aV2017-04-06 | $GOOGL $AMZN $ FB $AAPL $TSLA $NFLX $NKE $BIDU $BABA  WAITING for $VIX to pass 20 again BUY when others are fearful! https://t.co/4D5yBS4Jr9
p101
asI1
(lp102
V2017-04-05 | RT @JPDesloges: #Apple  Tested the Resistance of a Daily Trading Range (red) but Uneable to break it yet $AAPL #Trading #investing #markets\u2026
p103
aV2017-04-05 | RT @philstockworld: Will We Hold It Wednesday - High Hopes at 5,440 (Again) $QQQ $SPX $DIA $TASR Also $AAPL https://t.co/6XHV2TPbtt
p104
aV2017-04-05 | #Options #maxpain chart for $AAPL. Free options app https://t.co/VCJp7MA06J https://t.co/QxR0fUqgS2
p105
aV2017-04-05 | RT @philstockworld: Will We Hold It Wednesday - High Hopes at 5,440 (Again) $QQQ $SPX $DIA $TASR Also $AAPL https://t.co/6XHV2TPbtt
p106
aV2017-04-05 | RT @philstockworld: Will We Hold It Wednesday - High Hopes at 5,440 (Again) $QQQ $SPX $DIA $TASR Also $AAPL https://t.co/6XHV2TPbtt
p107
aV2017-04-05 | RT @philstockworld: Will We Hold It Wednesday - High Hopes at 5,440 (Again) $QQQ $SPX $DIA $TASR Also $AAPL https://t.co/6XHV2TPbtt
p108
aV2017-04-05 | Xiaomi Chases Value, Dumps Apple Approach https://t.co/ETz6ViSrjc $AAPL #APPLE $XI
p109
aV2017-04-05 | RT @philstockworld: Will We Hold It Wednesday - High Hopes at 5,440 (Again) $QQQ $SPX $DIA $TASR Also $AAPL https://t.co/6XHV2TPbtt
p110
aV2017-04-05 | RT @philstockworld: Will We Hold It Wednesday - High Hopes at 5,440 (Again) $QQQ $SPX $DIA $TASR Also $AAPL https://t.co/6XHV2TPbtt
p111
aV2017-04-05 | RT @philstockworld: Will We Hold It Wednesday - High Hopes at 5,440 (Again) $QQQ $SPX $DIA $TASR Also $AAPL https://t.co/6XHV2TPbtt
p112
aV2017-04-05 | RT @philstockworld: Will We Hold It Wednesday - High Hopes at 5,440 (Again) $QQQ $SPX $DIA $TASR Also $AAPL https://t.co/6XHV2TPbtt
p113
aV2017-04-05 | $AAPL $COST:  Xiaomi Chases Value, Dumps Apple Approach:  https://t.co/hxibTJwf7O
p114
aV2017-04-05 | RT @philstockworld: Will We Hold It Wednesday - High Hopes at 5,440 (Again) $QQQ $SPX $DIA $TASR Also $AAPL https://t.co/6XHV2TPbtt
p115
aV2017-04-05 | RT @whotrades: Report: Apple Inc.'s Premium OLED iPhone 8 Could Be Delayed https://t.co/P44sOKy9HA $AAPL https://t.co/P96sBZ9jmm
p116
aV2017-04-05 | RT @HedgeStrategy: Our previously tweeted Q2 timeframe trades (for transparency):  $TSLA -301 Apr05 $IBM -174 Apr03 $AAPL -144 Mar28 $AMD +\u2026
p117
aV2017-04-05 | #Apple  Tested the Resistance of a Daily Trading Range (red) but Uneable to break it yet $AAPL #Trading #investing\u2026 https://t.co/wZ40UG1GRY
p118
aV2017-04-05 | RT @philstockworld: Will We Hold It Wednesday - High Hopes at 5,440 (Again) $QQQ $SPX $DIA $TASR Also $AAPL https://t.co/6XHV2TPbtt
p119
aV2017-04-05 | RT @philstockworld: Will We Hold It Wednesday - High Hopes at 5,440 (Again) $QQQ $SPX $DIA $TASR Also $AAPL https://t.co/6XHV2TPbtt
p120
aV2017-04-05 | Xiaomi Chases Value, Dumps Apple Approach https://t.co/sbYPBwifv0 $AAPL #APPLE $XI
p121
aV2017-04-05 | Xiaomi Chases Value, Dumps Apple Approach https://t.co/tzqYUyJ1zn $AAPL #APPLE $XI
p122
aV2017-04-05 | RT @philstockworld: Will We Hold It Wednesday - High Hopes at 5,440 (Again) $QQQ $SPX $DIA $TASR Also $AAPL https://t.co/6XHV2TPbtt
p123
aV2017-04-05 | RT @EXPstocktrader: A replay of today in the #StockMarket:  $SPY $AAPL $NVDA $AMZN $TSLA $IBB $XBI #MAGA https://t.co/HTewqZOVLQ
p124
aV2017-04-05 | RT @philstockworld: Will We Hold It Wednesday - High Hopes at 5,440 (Again) $QQQ $SPX $DIA $TASR Also $AAPL https://t.co/6XHV2TPbtt
p125
aV2017-04-05 | RT @philstockworld: Will We Hold It Wednesday - High Hopes at 5,440 (Again) $QQQ $SPX $DIA $TASR Also $AAPL https://t.co/6XHV2TPbtt
p126
aV2017-04-05 | RT @philstockworld: Will We Hold It Wednesday - High Hopes at 5,440 (Again) $QQQ $SPX $DIA $TASR Also $AAPL https://t.co/6XHV2TPbtt
p127
aV2017-04-05 | RT @philstockworld: Will We Hold It Wednesday - High Hopes at 5,440 (Again) $QQQ $SPX $DIA $TASR Also $AAPL https://t.co/6XHV2TPbtt
p128
aV2017-04-05 | RT @philstockworld: Will We Hold It Wednesday - High Hopes at 5,440 (Again) $QQQ $SPX $DIA $TASR Also $AAPL https://t.co/6XHV2TPbtt
p129
aV2017-04-05 | See why these assets are trending in 1 watchlist #fintech $AAPL $Blockchain $Nasdaq $SPX https://t.co/F1n1UxrX5K https://t.co/5GU0zwiM0O
p130
aV2017-04-05 | RT @philstockworld: Will We Hold It Wednesday - High Hopes at 5,440 (Again) $QQQ $SPX $DIA $TASR Also $AAPL https://t.co/6XHV2TPbtt
p131
aV2017-04-05 | $AAPL is trending! Here's some analysis https://t.co/fNkN4sAio9 #BloombergBold #NationalWalkingDay https://t.co/Uah1f45OgW
p132
aV2017-04-05 | RT @philstockworld: Will We Hold It Wednesday - High Hopes at 5,440 (Again) $QQQ $SPX $DIA $TASR Also $AAPL https://t.co/6XHV2TPbtt
p133
aV2017-04-05 | $AAPL #Options OI chart. Free stocks app https://t.co/cnRpv2hkbQ https://t.co/RLcUGkDjaK
p134
aV2017-04-05 | RT @philstockworld: Will We Hold It Wednesday - High Hopes at 5,440 (Again) $QQQ $SPX $DIA $TASR Also $AAPL https://t.co/6XHV2TPbtt
p135
aV2017-04-05 | RT @theflynews: Data center infrastructure stocks continue multi-day slide $FFIV $FNSR $CIEN $AMZN $MSFT $GOOG $GOOGL $FB $AAPL\u2026 https://t.\u2026
p136
aV2017-04-05 | RT @philstockworld: Will We Hold It Wednesday - High Hopes at 5,440 (Again) $QQQ $SPX $DIA $TASR Also $AAPL https://t.co/6XHV2TPbtt
p137
aV2017-04-05 | RT @philstockworld: Will We Hold It Wednesday - High Hopes at 5,440 (Again) $QQQ $SPX $DIA $TASR Also $AAPL https://t.co/6XHV2TPbtt
p138
aV2017-04-05 | Report: Apple Inc.'s Premium OLED iPhone 8 Could Be Delayed https://t.co/P44sOKy9HA $AAPL https://t.co/P96sBZ9jmm
p139
aV2017-04-05 | RT @PortfolioBuzz: These assets are seeing a jump in tweets #fintech #seedinvestment $AAPL $Blockchain $SPX https://t.co/QmYkQfE4dM https:/\u2026
p140
aV2017-04-05 | RT @philstockworld: Will We Hold It Wednesday - High Hopes at 5,440 (Again) $QQQ $SPX $DIA $TASR Also $AAPL https://t.co/6XHV2TPbtt
p141
aV2017-04-05 | RT @philstockworld: Will We Hold It Wednesday - High Hopes at 5,440 (Again) $QQQ $SPX $DIA $TASR Also $AAPL https://t.co/6XHV2TPbtt
p142
aV2017-04-05 | RT @philstockworld: Will We Hold It Wednesday - High Hopes at 5,440 (Again) $QQQ $SPX $DIA $TASR Also $AAPL https://t.co/6XHV2TPbtt
p143
aV2017-04-05 | RT @philstockworld: Will We Hold It Wednesday - High Hopes at 5,440 (Again) $QQQ $SPX $DIA $TASR Also $AAPL https://t.co/6XHV2TPbtt
p144
aV2017-04-05 | RT @philstockworld: Will We Hold It Wednesday - High Hopes at 5,440 (Again) $QQQ $SPX $DIA $TASR Also $AAPL https://t.co/6XHV2TPbtt
p145
aV2017-04-05 | RT @philstockworld: Will We Hold It Wednesday - High Hopes at 5,440 (Again) $QQQ $SPX $DIA $TASR Also $AAPL https://t.co/6XHV2TPbtt
p146
aV2017-04-05 | RT @philstockworld: Will We Hold It Wednesday - High Hopes at 5,440 (Again) $QQQ $SPX $DIA $TASR Also $AAPL https://t.co/6XHV2TPbtt
p147
aV2017-04-05 | RT @philstockworld: Will We Hold It Wednesday - High Hopes at 5,440 (Again) $QQQ $SPX $DIA $TASR Also $AAPL https://t.co/6XHV2TPbtt
p148
aV2017-04-05 | Our previously tweeted Q2 timeframe trades (for transparency):  $TSLA -301 Apr05 $IBM -174 Apr03 $AAPL -144 Mar28 $AMD +14, $TWTR +15 Mar30
p149
aV2017-04-05 | RT @MacHashNews: Microsoft releases \u2018Who's In' iMessage app for event planning with friends https://t.co/oM5Mvj5nVx #9to5Mac $AAPL https://\u2026
p150
aV2017-04-05 | StockNews Dow Down 41. $AAPL $SNAP $AMZN $TWTR $FB $TSLA https://t.co/kVGqmABxh3
p151
aV2017-04-05 | RT @PortfolioBuzz: Track trending assets in 1 watchlist #fintech $AAPL $Blockchain $SPX https://t.co/nJt1CRcsTf https://t.co/tFQ9358EMX
p152
aV2017-04-05 | Microsoft releases \u2018Who's In' iMessage app for event planning with friends https://t.co/oM5Mvj5nVx #9to5Mac $AAPL https://t.co/o0ANQF5OhT
p153
aV2017-04-05 | RT @philstockworld: Will We Hold It Wednesday - High Hopes at 5,440 (Again) $QQQ $SPX $DIA $TASR Also $AAPL https://t.co/6XHV2TPbtt
p154
aV2017-04-05 | RT @philstockworld: Will We Hold It Wednesday - High Hopes at 5,440 (Again) $QQQ $SPX $DIA $TASR Also $AAPL https://t.co/6XHV2TPbtt
p155
aV2017-04-05 | RT @PortfolioBuzz: These assets are seeing a jump in tweets #fintech #seedinvestment $AAPL $Blockchain $SPX https://t.co/QmYkQfE4dM https:/\u2026
p156
aV2017-04-05 | RT @philstockworld: Will We Hold It Wednesday - High Hopes at 5,440 (Again) $QQQ $SPX $DIA $TASR Also $AAPL https://t.co/6XHV2TPbtt
p157
aV2017-04-05 | RT @PortfolioBuzz: These assets are seeing a jump in tweets #fintech #seedinvestment $AAPL $Blockchain $SPX https://t.co/QmYkQfE4dM https:/\u2026
p158
aV2017-04-05 | RT @PortfolioBuzz: Track trending assets in 1 watchlist #fintech $AAPL $Blockchain $SPX https://t.co/nJt1CRcsTf https://t.co/tFQ9358EMX
p159
aV2017-04-05 | RT @philstockworld: Will We Hold It Wednesday - High Hopes at 5,440 (Again) $QQQ $SPX $DIA $TASR Also $AAPL https://t.co/6XHV2TPbtt
p160
aV2017-04-05 | $AAPL:  Report: Apple Inc.\u2019s Premium OLED iPhone 8 Could Be Delayed:  https://t.co/TXJ97FqcJE
p161
aV2017-04-05 | RT @philstockworld: Will We Hold It Wednesday - High Hopes at 5,440 (Again) $QQQ $SPX $DIA $TASR Also $AAPL https://t.co/6XHV2TPbtt
p162
aV2017-04-05 | Dow reverses 150 points and closes down 41 as Fed minutes show worry about valuations. $AMZN $TSLA $AAPL hit highs https://t.co/oVfBaxDycg
p163
aV2017-04-05 | Apple, Inc. Earnings: Can the Tech Giant Live Up to a Higher Stock Price?  https://t.co/KAY2Lxen8g $AAPL https://t.co/PBoPQETIOF
p164
aV2017-04-05 | RT @philstockworld: Will We Hold It Wednesday - High Hopes at 5,440 (Again) $QQQ $SPX $DIA $TASR Also $AAPL https://t.co/6XHV2TPbtt
p165
aV2017-04-05 | RT @appleinsider: Microsoft's new iOS 10 iMessage App "Who's In" lets groups collaborate on plans $AAPL $MSFT https://t.co/UIkVYxFYbt https\u2026
p166
aV2017-04-05 | RT @philstockworld: Will We Hold It Wednesday - High Hopes at 5,440 (Again) $QQQ $SPX $DIA $TASR Also $AAPL https://t.co/6XHV2TPbtt
p167
aV2017-04-05 | RT @philstockworld: Will We Hold It Wednesday - High Hopes at 5,440 (Again) $QQQ $SPX $DIA $TASR Also $AAPL https://t.co/6XHV2TPbtt
p168
aV2017-04-05 | RT @philstockworld: Will We Hold It Wednesday - High Hopes at 5,440 (Again) $QQQ $SPX $DIA $TASR Also $AAPL https://t.co/6XHV2TPbtt
p169
aV2017-04-05 | RT @philstockworld: Will We Hold It Wednesday - High Hopes at 5,440 (Again) $QQQ $SPX $DIA $TASR Also $AAPL https://t.co/6XHV2TPbtt
p170
aV2017-04-05 | RT @philstockworld: Will We Hold It Wednesday - High Hopes at 5,440 (Again) $QQQ $SPX $DIA $TASR Also $AAPL https://t.co/6XHV2TPbtt
p171
aV2017-04-05 | RT @philstockworld: Will We Hold It Wednesday - High Hopes at 5,440 (Again) $QQQ $SPX $DIA $TASR Also $AAPL https://t.co/6XHV2TPbtt
p172
aV2017-04-05 | RT @philstockworld: Will We Hold It Wednesday - High Hopes at 5,440 (Again) $QQQ $SPX $DIA $TASR Also $AAPL https://t.co/6XHV2TPbtt
p173
aV2017-04-05 | RT @theflynews: Data center infrastructure stocks continue multi-day slide $FFIV $FNSR $CIEN $AMZN $MSFT $GOOG $GOOGL $FB $AAPL\u2026 https://t.\u2026
p174
aV2017-04-05 | RT @philstockworld: Will We Hold It Wednesday - High Hopes at 5,440 (Again) $QQQ $SPX $DIA $TASR Also $AAPL https://t.co/6XHV2TPbtt
p175
aV2017-04-05 | $AAPL Apple Stock Analysis And Predictions For 2017: https://t.co/cRn1OYsY1b https://t.co/ZhYPROcHmE
p176
aV2017-04-05 | RT @philstockworld: Will We Hold It Wednesday - High Hopes at 5,440 (Again) $QQQ $SPX $DIA $TASR Also $AAPL https://t.co/6XHV2TPbtt
p177
aV2017-04-05 | RT @philstockworld: Will We Hold It Wednesday - High Hopes at 5,440 (Again) $QQQ $SPX $DIA $TASR Also $AAPL https://t.co/6XHV2TPbtt
p178
aV2017-04-05 | Track trending assets in 1 watchlist #fintech $AAPL $Blockchain $SPX https://t.co/nJt1CRcsTf https://t.co/tFQ9358EMX
p179
aV2017-04-05 | RT @philstockworld: Will We Hold It Wednesday - High Hopes at 5,440 (Again) $QQQ $SPX $DIA $TASR Also $AAPL https://t.co/6XHV2TPbtt
p180
aV2017-04-05 | RT @MarketRealist: Consumer Tech Stocks: New Life after 1Q17? https://t.co/LdxrfaHBdH $AAPL $FIT $GPRO $BBRY
p181
aV2017-04-05 | RT @philstockworld: Will We Hold It Wednesday - High Hopes at 5,440 (Again) $QQQ $SPX $DIA $TASR Also $AAPL https://t.co/6XHV2TPbtt
p182
aV2017-04-05 | If $AAPL had a Bezos/Musk like CEO..stock would be double the price it is now. Cook is a good guy but he is a game manager..a la Alex Smith
p183
aV2017-04-05 | RT @philstockworld: Will We Hold It Wednesday - High Hopes at 5,440 (Again) $QQQ $SPX $DIA $TASR Also $AAPL https://t.co/6XHV2TPbtt
p184
aV2017-04-05 | RT @philstockworld: Will We Hold It Wednesday - High Hopes at 5,440 (Again) $QQQ $SPX $DIA $TASR Also $AAPL https://t.co/6XHV2TPbtt
p185
aV2017-04-05 | RT @philstockworld: Will We Hold It Wednesday - High Hopes at 5,440 (Again) $QQQ $SPX $DIA $TASR Also $AAPL https://t.co/6XHV2TPbtt
p186
aV2017-04-05 | RT @philstockworld: Will We Hold It Wednesday - High Hopes at 5,440 (Again) $QQQ $SPX $DIA $TASR Also $AAPL https://t.co/6XHV2TPbtt
p187
aV2017-04-05 | RT @philstockworld: Will We Hold It Wednesday - High Hopes at 5,440 (Again) $QQQ $SPX $DIA $TASR Also $AAPL https://t.co/6XHV2TPbtt
p188
aV2017-04-05 | 12 Great Books on Options Trading https://t.co/u69ZnBdmhA #options #trading $SPY $AAPL $VIX $VXX $RUT $DIA $QQQ
p189
aV2017-04-05 | RT @philstockworld: Will We Hold It Wednesday - High Hopes at 5,440 (Again) $QQQ $SPX $DIA $TASR Also $AAPL https://t.co/6XHV2TPbtt
p190
aV2017-04-05 | RT @philstockworld: Will We Hold It Wednesday - High Hopes at 5,440 (Again) $QQQ $SPX $DIA $TASR Also $AAPL https://t.co/6XHV2TPbtt
p191
aV2017-04-05 | RT @appleinsider: Microsoft's new iOS 10 iMessage App "Who's In" lets groups collaborate on plans $AAPL $MSFT https://t.co/UIkVYxFYbt https\u2026
p192
aV2017-04-05 | RT @philstockworld: Will We Hold It Wednesday - High Hopes at 5,440 (Again) $QQQ $SPX $DIA $TASR Also $AAPL https://t.co/6XHV2TPbtt
p193
aV2017-04-05 | RT @MacHashNews: Why iOS 10.3.1 is a "must-install" update https://t.co/6VChltb3Qa #AppleWorldToday $AAPL https://t.co/AoX704RqFL
p194
aV2017-04-05 | RT @philstockworld: Will We Hold It Wednesday - High Hopes at 5,440 (Again) $QQQ $SPX $DIA $TASR Also $AAPL https://t.co/6XHV2TPbtt
p195
aV2017-04-05 | RT @philstockworld: Will We Hold It Wednesday - High Hopes at 5,440 (Again) $QQQ $SPX $DIA $TASR Also $AAPL https://t.co/6XHV2TPbtt
p196
aV2017-04-05 | These assets are seeing a jump in tweets #fintech #seedinvestment $AAPL $Blockchain $SPX https://t.co/QmYkQfE4dM https://t.co/ZNCMI1Je7H
p197
aV2017-04-05 | RT @philstockworld: Will We Hold It Wednesday - High Hopes at 5,440 (Again) $QQQ $SPX $DIA $TASR Also $AAPL https://t.co/6XHV2TPbtt
p198
aV2017-04-05 | RT @philstockworld: Will We Hold It Wednesday - High Hopes at 5,440 (Again) $QQQ $SPX $DIA $TASR Also $AAPL https://t.co/6XHV2TPbtt
p199
aV2017-04-05 | RT @philstockworld: Will We Hold It Wednesday - High Hopes at 5,440 (Again) $QQQ $SPX $DIA $TASR Also $AAPL https://t.co/6XHV2TPbtt
p200
aV2017-04-05 | RT @philstockworld: Will We Hold It Wednesday - High Hopes at 5,440 (Again) $QQQ $SPX $DIA $TASR Also $AAPL https://t.co/6XHV2TPbtt
p201
aV2017-04-05 | RT @philstockworld: Will We Hold It Wednesday - High Hopes at 5,440 (Again) $QQQ $SPX $DIA $TASR Also $AAPL https://t.co/6XHV2TPbtt
p202
asI2
(lp203
V2017-04-04 | RT @appleinsider: Why Apple's new GPU efforts are a major disruptive threat to Nvidia $AAPL $NVDA  https://t.co/Kt7fubyL5Q https://t.co/Oq9\u2026
p204
aV2017-04-04 | RT @FoxBusiness: Apple admits to Mac Pro design flaws, promises new model coming $AAPL  https://t.co/eRqZRM6PzH
p205
aV2017-04-04 | RT @commander10: $AAPL breaking above yet another bull flag on daily chart to new all-time highs. Very #bullish. https://t.co/ANza8RiVX0
p206
aV2017-04-04 | I love bull call spreads for that specific fact I can risk just a $1 per option or $100 to own 100 shares of $AMZN $GOOG $AAPL
p207
aV2017-04-04 | RT @NewsToDesk: $AAPL:  Bullish on Apple Inc? You\u2019ll Love These 3 Stocks:  https://t.co/xlQwVZ4O8e
p208
aV2017-04-04 | Ready to invest? $AAPL is definitely worth checking out today! https://t.co/3xizRKvcdM #SusanRice #3d
p209
aV2017-04-04 | $AAPL silicon ambition MT Why Apple's new GPU efforts are a major disruptive threat to $NVDA ($AMD 2) https://t.co/wpuLmh4r6o @AppleInsider
p210
aV2017-04-04 | RT @appleinsider: Why Apple's new GPU efforts are a major disruptive threat to Nvidia $AAPL $NVDA  https://t.co/Kt7fubyL5Q https://t.co/Oq9\u2026
p211
aV2017-04-04 | RT @option_snipper: $AAPL NO need to draw anything on this beautiful chart. Just look at it clean. STRONG price actions expected next few d\u2026
p212
aV2017-04-04 | Dubai News Reveals another Apple Store under Construction that will have a Spectacular View of\u2026\u2026 https://t.co/Yun9JHztpE
p213
aV2017-04-04 | RT @lisahopeking: Had great time w @Gartenberg @reneritchie on AppleTalk. Listen now: What $AAPL needs to do to beat #S8, DeX &amp; more https:\u2026
p214
aV2017-04-04 | It's a stock-pickers market again. Recent winners include $NFLX $FB $AAPL $TSLA $NVDA $BABA  Free Trials, hitting swing winners since 2006.
p215
aV2017-04-04 | RT @ExactOptionPick: FREE DAILY OPTION TRADE. Sign up for our DAILY FREE TRADE at   https://t.co/78FVQDKYyw   $AAPL $AMZN $GOOGL $GS $FB $N\u2026
p216
aV2017-04-04 | RT @ExactOptionPick: FREE DAILY OPTION TRADE. Sign up for our DAILY FREE TRADE at   https://t.co/78FVQDKYyw   $AAPL $AMZN $GOOGL $GS $FB $N\u2026
p217
aV2017-04-04 | FREE DAILY OPTION TRADE. Sign up for our DAILY FREE TRADE at   https://t.co/78FVQDKYyw   $AAPL $AMZN $GOOGL $GS $FB $NVDA $TSLA $PNRA $AMD
p218
aV2017-04-04 | $AAPL #patent 9,613,393: Closed loop CPU performance control https://t.co/a6sMEOvR6O #tech #IP https://t.co/HIoJWAZzJ2
p219
aV2017-04-04 | Why Apple's new GPU efforts are a major disruptive threat to Nvidia $AAPL $NVDA  https://t.co/9sI8n5hMjF https://t.co/pqrslTpgVl
p220
aV2017-04-04 | RT @PortfolioBuzz: CityFALCON score gives top rated news for FREE #bigdata $AAPL $TSLA https://t.co/dPpKdbV6WC https://t.co/B7MyNB54UK
p221
aV2017-04-04 | CityFALCON score gives top rated news for FREE #bigdata $AAPL $TSLA https://t.co/dPpKdbV6WC https://t.co/B7MyNB54UK
p222
aV2017-04-04 | Why Apple's new GPU efforts are a major disruptive threat to Nvidia $AAPL $NVDA  https://t.co/RwpMmTv0Q8 https://t.co/O0AInDWqFK
p223
aV2017-04-04 | appleinsider: Why Apple's new GPU efforts are a major disruptive threat to Nvidia $AAPL $NVDA  \u2026 https://t.co/qObYlQmRgc
p224
aV2017-04-04 | RT @appleinsider: Why Apple's new GPU efforts are a major disruptive threat to Nvidia $AAPL $NVDA  https://t.co/Kt7fubyL5Q https://t.co/Oq9\u2026
p225
aV2017-04-04 | RT @appleinsider: Why Apple's new GPU efforts are a major disruptive threat to Nvidia $AAPL $NVDA  https://t.co/Kt7fubyL5Q https://t.co/Oq9\u2026
p226
aV2017-04-04 | RT @appleinsider: Why Apple's new GPU efforts are a major disruptive threat to Nvidia $AAPL $NVDA  https://t.co/Kt7fubyL5Q https://t.co/Oq9\u2026
p227
aV2017-04-04 | RT @appleinsider: Why Apple's new GPU efforts are a major disruptive threat to Nvidia $AAPL $NVDA  https://t.co/Kt7fubyL5Q https://t.co/Oq9\u2026
p228
aV2017-04-04 | These assets are seeing a jump in tweets #fintech #frenchelections $AAPL $Blockchain $TSLA https://t.co/zSBmEwCXYp https://t.co/9vKMOc1hmU
p229
aV2017-04-04 | Why Apple's new GPU efforts are a major disruptive threat to Nvidia $AAPL $NVDA  https://t.co/Kt7fubyL5Q https://t.co/Oq91rMepxG
p230
aV2017-04-04 | RT @DayTradersGroup: $AAPL Remember this chart from Monday? http://t.co/snblISku09 $fcx $nem $gGLD $GDX $AMZN $vxx $aig $TBT #OPTIONS
p231
aV2017-04-04 | @Recode $twtr @jack @anthonynoto @kayvz @omidkordestani @btaylor @jimcramer tough compition.expected. $amzn redefin\u2026 https://t.co/nBZtfXQscq
p232
aV2017-04-04 | I don't like #APPLE products (poorly made but wrapped nicely; "#APPLE gone with Jobs"), but better remove some from $NVDA to buy $AAPL.
p233
aV2017-04-04 | $AAPL:  Bullish on Apple Inc? You\u2019ll Love These 3 Stocks:  https://t.co/xlQwVZ4O8e
p234
aV2017-04-04 | RT @option_snipper: Watchlist for Wednesday, April 5:  $AAPL $TSLA $GOOGL $X
p235
aV2017-04-04 | @Ghost_ridder_ yeah all options. $AAPL multistrikes $TSLA JAN2019 350C MAR31 275C &amp; APR 300C
p236
aV2017-04-04 | RT @MacHashNews: Apple Patent Reveals a New Security Feature Coming to Siri https://t.co/UuCjM2UdCq #PatentlyApple $AAPL https://t.co/6cuj1\u2026
p237
aV2017-04-04 | $AAPL on the launch pad right before the close.
p238
aV2017-04-04 | $AAPL NO need to draw anything on this beautiful chart. Just look at it clean. STRONG price actions expected next f\u2026 https://t.co/M5Tp2ypHlo
p239
aV2017-04-04 | Watchlist for Wednesday, April 5:  $AAPL $TSLA $GOOGL $X
p240
aV2017-04-04 | The Compound Effect by Darren Hardy: https://t.co/czGhVZckbQ #investing #compunding $SPY $AAPL $MSFT $GE $KO $MSFT $AMZN
p241
aV2017-04-04 | RT @farzyness: $GM is the Nokia of the car world. $F has the potential to be the Samsung of the car world. $TSLA is the $AAPL of the car wo\u2026
p242
aV2017-04-04 | @stevesi The top up on memory costs $20-40, and $AAPL is selling at $100 more. Never shy of money raining there....
p243
aV2017-04-04 | $AAPL:  Samsung to ride soaring chip profits in first quarter, Galaxy S8 aura \u2026:  https://t.co/YSNcZlI3YX
p244
aV2017-04-04 | $AAPL #patent 9,613,249: Finger sensor including encapsulating layer over sensi... https://t.co/GPnpWDjsRN #tech #IP https://t.co/YF5eL16T3E
p245
aV2017-04-04 | Breadth is really thinning - $aapl $amzn $tsla only a handful bearing this mkt
p246
aV2017-04-04 | Apple Patent Reveals a New Security Feature Coming to Siri https://t.co/UuCjM2UdCq #PatentlyApple $AAPL https://t.co/6cuj1dKNKY
p247
aV2017-04-04 | RT @WallStJesus: TODAY'S  $AAPL SENTIMENT: https://t.co/ZJTb1skKYj
p248
aV2017-04-04 | RT @theinformation: The latest defection on the Apple design team. $AAPL https://t.co/nsJXGeCgAT
p249
aV2017-04-04 | RT @optionslisa: $aapl tough one here ..probably going sideways in tight range here may pull back a buck or up a bit but no trade here for\u2026
p250
aV2017-04-04 | RT @kiwitrader24: $SPX the final week of April looks like the motherland reports: $AAPL $TWTR $FB $AMZN $GOOGL
p251
aV2017-04-04 | $aapl tough one here ..probably going sideways in tight range here may pull back a buck or up a bit but no trade here for me
p252
aV2017-04-04 | $SPX the final week of April looks like the motherland reports: $AAPL $TWTR $FB $AMZN $GOOGL
p253
aV2017-04-04 | RT @andrewbusey: I really wish @Apple would add a way for me to plug an iPad into my Mac as both an input device and second screen. $AAPL
p254
aV2017-04-04 | RT @_steve3_: \U0001f49bTuesday April 4th, '17 \U0001f49a+ Call Buy $AAPL $AMZN $FB $MU $ORCL $TSLA $TWTR  \u2665\ufe0f - &lt;none&gt; \U0001f499#TrumpIndex $FREE  #JAlert -&gt; @Cramer\u2026
p255
aV2017-04-04 | RT @bennyrich11: Apple patents shock absorbers for iPhone that pop out when device is dropped, and allow flotation $AAPL https://t.co/MJy0u\u2026
p256
aV2017-04-04 | These companies are on sale. If deal is passed, huge returns! $M, $PNRA, $SPLS $XLNX by $AVGO? $TOSYY by $AVGO,\u2026 https://t.co/64OjwX0GUU
p257
aV2017-04-04 | Monitor your watchlist of assets for tweets - US Tech Giants https://t.co/J74uV6qAnD $AAPL $GOOGL $MSFT $FB
p258
aV2017-04-04 | $AAPL sum put vol=45,106 sum call vol=85,623 PutCallRatio=0.53 expiration 04/07/2017 . https://t.co/2B64q6wt4V https://t.co/2xtHttgMO3
p259
aV2017-04-04 | Track trending assets in 1 watchlist #fintech $AAPL $Blockchain $TSLA https://t.co/KHX3b4qoMy https://t.co/Cm6Y2wZLyr
p260
aV2017-04-04 | Millionaire trading student https://t.co/GSuqF6B8WI made millions learning to trade from https://t.co/ui9ZEGne2A $AAPL $CNAT $ICPT
p261
aV2017-04-04 | @falafeldiaper1 @Bryce_Martel They are hiding just running up $AAPL, $AMZN and $TSLA here
p262
aV2017-04-04 | Can Foreign Individuals Trade in the US Markets? https://t.co/rYrmYqZWe9 #Trading #Stocks #Options $AAPL $FB $AMZN $TWTR $GS $GM $F $DUST
p263
aV2017-04-04 | $AAPL New ATH off the 8D, 150c's being bought. Grinding higher into earnings @Bryce_Martel  https://t.co/4pZnCLLv80
p264
aV2017-04-04 | Apple patents shock absorbers for iPhone that pop out when device is dropped, and allow flotation $AAPL https://t.co/MJy0utQEy1
p265
aV2017-04-04 | RT @WallStJesus: TODAY'S  $AAPL SENTIMENT: https://t.co/ZJTb1skKYj
p266
aV2017-04-04 | RT @SeekingAlpha: The Cheapest Way To Diversify Among Large-Cap Companies https://t.co/xo6XGK2Bmr $AAPL #APPLE $AMZN $FB $GE $GIS $JNJ $JPM\u2026
p267
aV2017-04-04 | RT @SeekingAlpha: The Cheapest Way To Diversify Among Large-Cap Companies https://t.co/xo6XGK2Bmr $AAPL #APPLE $AMZN $FB $GE $GIS $JNJ $JPM\u2026
p268
aV2017-04-04 | The Little Book of Stock Market Profits: The Best Strategies of All Time Made Even Better: https://t.co/Txl0ckYyiH $AAPL $SPY $DIA $IBM
p269
aV2017-04-04 | RT @treabase: $AAPL #patent 9,613,246: Multiple scan element array ultrasonic biometric scanner https://t.co/hTuvSjRrPz #tech #IP https://t\u2026
p270
aV2017-04-04 | Yet #markets are at record highs...all we need is $AMZN $FB $AAPL &amp; $GOOGL,the rest?Optional. That's not a healty\u2026 https://t.co/LQsU8e8NAC
p271
aV2017-04-04 | RT @WallStJesus: TODAY'S  $AAPL SENTIMENT: https://t.co/ZJTb1skKYj
p272
aV2017-04-04 | TODAY'S  $AAPL SENTIMENT: https://t.co/ZJTb1skKYj
p273
aV2017-04-04 | RT @FoxBusiness: Apple admits to Mac Pro design flaws, promises new model coming $AAPL  https://t.co/eRqZRM6PzH
p274
aV2017-04-04 | RT @AlertTrade: The Cheapest Way To Diversify Among Large-Cap Companies $AAPL #APPLE $AMZN $FB $GE $GIS $JNJ\u2026 https://t.co/lC79hen8bd #Inve\u2026
p275
aV2017-04-04 | RT @AlertTrade: The Cheapest Way To Diversify Among Large-Cap Companies $AAPL #APPLE $AMZN $FB $GE $GIS $JNJ\u2026 https://t.co/lC79hen8bd #Inve\u2026
p276
aV2017-04-04 | $AAPL #patent 9,613,246: Multiple scan element array ultrasonic biometric scanner https://t.co/hTuvSjRrPz #tech #IP https://t.co/2fW5WI7Hwl
p277
aV2017-04-04 | RT @TradewiseApp: Apple is sorry about the Mac Pro, vows to relaunch it in 2018 https://t.co/p2O4r2M5Sx $AAPL
p278
aV2017-04-04 | Apple is sorry about the Mac Pro, vows to relaunch it in 2018 https://t.co/p2O4r2M5Sx $AAPL
p279
aV2017-04-04 | $AAPL - Statement of Changes in Beneficial Ownership (4) https://t.co/YwEgflksOP
p280
aV2017-04-04 | $AAPL - Statement of Changes in Beneficial Ownership (4) https://t.co/oyKmsPlfZC
p281
aV2017-04-04 | $AAPL - Statement of Changes in Beneficial Ownership (4) https://t.co/TDbSVpoBHv
p282
aV2017-04-04 | $AAPL - Statement of Changes in Beneficial Ownership (4) https://t.co/y18IxJJF6h
p283
aV2017-04-04 | $AAPL - Statement of Changes in Beneficial Ownership (4) https://t.co/gCeppMbFKF
p284
aV2017-04-04 | $AAPL - Statement of Changes in Beneficial Ownership (4) https://t.co/OvFNQkeq0P
p285
aV2017-04-04 | $AAPL - Statement of Changes in Beneficial Ownership (4) https://t.co/D2YXm5SSwC
p286
aV2017-04-04 | $AAPL - Statement of Changes in Beneficial Ownership (4) https://t.co/YWnCYbx5sH
p287
aV2017-04-04 | $AAPL - Statement of Changes in Beneficial Ownership (4) https://t.co/5iQDq3nHWu
p288
aV2017-04-04 | $AAPL - Statement of Changes in Beneficial Ownership (4) https://t.co/uoSLNAdAni
p289
aV2017-04-04 | $AAPL - Statement of Changes in Beneficial Ownership (4) https://t.co/QMIOikp5Oj
p290
aV2017-04-04 | $AAPL - Statement of Changes in Beneficial Ownership (4) https://t.co/SLGo8fXYSq
p291
aV2017-04-04 | $AAPL - Statement of Changes in Beneficial Ownership (4) https://t.co/kyTlLohIEE
p292
aV2017-04-04 | $AAPL - Statement of Changes in Beneficial Ownership (4) https://t.co/5bQzd2ycIs
p293
aV2017-04-04 | $AAPL - Statement of Changes in Beneficial Ownership (4) https://t.co/em5smIKeru
p294
aV2017-04-04 | Apple warns iCloud users some services accidentally reactivated with iOS 10.3 https://t.co/1BlJ3fTBvd #AppleInsider\u2026 https://t.co/7n8UFT4d2R
p295
aV2017-04-04 | $AAPL:  New Insider Filing on  Senior Vice President  PHILIP W SCHILLER:  https://t.co/Ogoekkz4Wa
p296
aV2017-04-04 | $AAPL - Statement of Changes in Beneficial Ownership (4) https://t.co/EL64bjE5NK
p297
aV2017-04-04 | $AAPL - Statement of Changes in Beneficial Ownership (4) https://t.co/1gNPkSICiR
p298
aV2017-04-04 | $AAPL - Statement of Changes in Beneficial Ownership (4) https://t.co/IRQmlmnhSz
p299
aV2017-04-04 | $AAPL - Statement of Changes in Beneficial Ownership (4) https://t.co/mNZVR5gD50
p300
aV2017-04-04 | $AAPL - Statement of Changes in Beneficial Ownership (4) https://t.co/y1ojCckE7J
p301
aV2017-04-04 | $AAPL - Statement of Changes in Beneficial Ownership (4) https://t.co/ZGAhB8ftGg
p302
aV2017-04-04 | $AAPL - Statement of Changes in Beneficial Ownership (4) https://t.co/cB8Y8DgB5h
p303
asI3
(lp304
V2017-04-03 | Why You Shouldn't Be Surprised That Apple Is Ditching Imagination Technologies @themotleyfool #stocks $AAPL https://t.co/B7oTCdfi7r
p305
aV2017-04-03 | #BREAKING Android Passes Windows As Top Internet OS.  $GOOGL $MSFT $AAPL https://t.co/6ouK844U3H https://t.co/jSICPN9ZOg
p306
aV2017-04-03 | @Bamabroker in addition to $TLT it went to the safety $amzn $aapl $fb $GOOG
p307
aV2017-04-03 | RT @OphirGottlieb: https://t.co/BPfK6XyysS The Secret\u2019s Out: Apple Gets Dead Serious About India via @YahooFinance - $AAPL
p308
aV2017-04-03 | These assets are seeing a jump in tweets #fintech $AAPL $Blockchain $TSLA https://t.co/KHX3b4qoMy https://t.co/jWGCz1pxe6
p309
aV2017-04-03 | RT @treabase: $AAPL #patent 20170094391: Magnetic retention of earbud within cavity https://t.co/UuAj5tubLo #tech #IP https://t.co/yVYiJpYP\u2026
p310
aV2017-04-03 | RT @PortfolioBuzz: CityFALCON score gives top rated news for FREE #bigdata $AAPL $TSLA https://t.co/dPpKdbV6WC https://t.co/KUrjDjD0uG
p311
aV2017-04-03 | CityFALCON score gives top rated news for FREE #bigdata $AAPL $TSLA https://t.co/dPpKdbV6WC https://t.co/KUrjDjD0uG
p312
aV2017-04-03 | Apple ordering 70 million Samsung OLED panels for 'iPhone 8' - report https://t.co/3a45W5Ocd6 #AppleInsider $AAPL https://t.co/iZnEsBELbJ
p313
aV2017-04-03 | RT @treabase: $AAPL #patent 20170094391: Magnetic retention of earbud within cavity https://t.co/UuAj5tubLo #tech #IP https://t.co/yVYiJpYP\u2026
p314
aV2017-04-03 | $AAPL #patent 20170094391: Magnetic retention of earbud within cavity https://t.co/UuAj5tubLo #tech #IP https://t.co/yVYiJpYPLI
p315
aV2017-04-03 | IndieGameDevBot RT RyanKairer: Posted a new review of the Koogeek HomeKit Compatible Smart Plug Cool gadget. https://t.co/Oknpq2lRcD $AAPL\u2026
p316
aV2017-04-03 | RT @DomainMondo: Tech Review UPDATE: #Android now world\u2019s most popular OS for internet use, Goodbye @Windows https://t.co/IqkGmvpequ $MSFT\u2026
p317
aV2017-04-03 | RT @DomainMondo: Tech Review UPDATE: #Android now world\u2019s most popular OS for internet use, Goodbye @Windows https://t.co/IqkGmvpequ $MSFT\u2026
p318
aV2017-04-03 | RT @DomainMondo: Tech Review UPDATE: #Android now world\u2019s most popular OS for internet use, Goodbye @Windows https://t.co/IqkGmvpequ $MSFT\u2026
p319
aV2017-04-03 | RT @RyanKairer: Posted a new review of the Koogeek HomeKit Compatible Smart Plug  Cool gadget. https://t.co/XxIyQ64FFj $AAPL #iosdev #gadge\u2026
p320
aV2017-04-03 | RT @DomainMondo: Tech Review UPDATE: #Android now world\u2019s most popular OS for internet use, Goodbye @Windows https://t.co/IqkGmvpequ $MSFT\u2026
p321
aV2017-04-03 | RT @Flower_Power_67: $AAPL is going to $160. \u2014 Pete Najarian, Fast Money #TradersEdge
p322
aV2017-04-03 | RT @optioncharts: $AAPL maturity 04/07/2017 Vol PutCallRatio of 0.73 puts=45,643 calls=62,105 . https://t.co/2B64q6wt4V https://t.co/jesah7\u2026
p323
aV2017-04-03 | $AAPL is going to $160. \u2014 Pete Najarian, Fast Money #TradersEdge
p324
aV2017-04-03 | RT @DomainMondo: Tech Review UPDATE: #Android now world\u2019s most popular OS for internet use, Goodbye @Windows https://t.co/IqkGmvpequ $MSFT\u2026
p325
aV2017-04-03 | Should have held on to these stocks I owned in thousands once: $FB $22 $AAPL $55 $TSLA $35 $PCLN $3 #Facebook #Apple #Tesla #Priceline
p326
aV2017-04-03 | RT @DomainMondo: Tech Review UPDATE: #Android now world\u2019s most popular OS for internet use, Goodbye @Windows https://t.co/IqkGmvpequ $MSFT\u2026
p327
aV2017-04-03 | RT @DomainMondo: Tech Review UPDATE: #Android now world\u2019s most popular OS for internet use, Goodbye @Windows https://t.co/IqkGmvpequ $MSFT\u2026
p328
aV2017-04-03 | RT @DomainMondo: Tech Review UPDATE: #Android now world\u2019s most popular OS for internet use, Goodbye @Windows https://t.co/IqkGmvpequ $MSFT\u2026
p329
aV2017-04-03 | RT @DomainMondo: Tech Review UPDATE: #Android now world\u2019s most popular OS for internet use, Goodbye @Windows https://t.co/IqkGmvpequ $MSFT\u2026
p330
aV2017-04-03 | RT @DomainMondo: Tech Review UPDATE: #Android now world\u2019s most popular OS for internet use, Goodbye @Windows https://t.co/IqkGmvpequ $MSFT\u2026
p331
aV2017-04-03 | $AAPL maturity 04/07/2017 Vol PutCallRatio of 0.73 puts=45,643 calls=62,105 . https://t.co/2B64q6wt4V https://t.co/jesah7XxBO
p332
aV2017-04-03 | RT @RyanKairer: Posted a new review of the Koogeek HomeKit Compatible Smart Plug  Cool gadget. https://t.co/XxIyQ64FFj $AAPL #iosdev #gadge\u2026
p333
aV2017-04-03 | @ZenTrends 1) At $110 on $AAPL you were bullish I wasn't you were right. Well done brither. 2) Northy is a fraud &amp;\u2026 https://t.co/fzGo7nw2YI
p334
aV2017-04-03 | Gain from movement in these buzzing assets #fintech $AAPL $Blockchain $TSLA https://t.co/KHX3b4qoMy https://t.co/RANGXnwbXx
p335
aV2017-04-03 | Building Winning Algorithmic Trading Systems by Kevin Davey: https://t.co/HUE3O9mOJ6 #algotrading #trading $SPY $VIX $AAPL $MCD
p336
aV2017-04-03 | RT @DomainMondo: Tech Review UPDATE: #Android now world\u2019s most popular OS for internet use, Goodbye @Windows https://t.co/IqkGmvpequ $MSFT\u2026
p337
aV2017-04-03 | RT @DomainMondo: Tech Review UPDATE: #Android now world\u2019s most popular OS for internet use, Goodbye @Windows https://t.co/IqkGmvpequ $MSFT\u2026
p338
aV2017-04-03 | RT @seeitmarket: $AAPL - Apple monthly chart.  Getting overbought... but notice the classic breakout --&gt; retest --&gt; and go pattern. https:/\u2026
p339
aV2017-04-03 | Stocks DOWN, Bonds &amp; Gold UP! https://t.co/TOkUAEWbrb #nasdaq #bloomberg #foxbusiness #cnbc #nytimes $spy $gld $aapl @iTunesPodcasts #money
p340
aV2017-04-03 | RT @treabase: $AAPL #patent 20170094390: Earbuds with acoustic insert https://t.co/2gBh4RpgBC #tech #IP https://t.co/T2nnHPp6LW
p341
aV2017-04-03 | Remember when GTAT went bankrupt when $AAPL ended their relationship? Pepperage Farm &amp; now $IMG remembers...https://t.co/uYl0646VHO
p342
aV2017-04-03 | $AAPL #patent 20170094390: Earbuds with acoustic insert https://t.co/2gBh4RpgBC #tech #IP https://t.co/T2nnHPp6LW
p343
aV2017-04-03 | Veteran designer Christopher Stringer leaves Apple after 21 years https://t.co/s3353i3iam #AppleInsider $AAPL https://t.co/VxSSqY0w2o
p344
aV2017-04-03 | RT @DomainMondo: Tech Review UPDATE: #Android now world\u2019s most popular OS for internet use, Goodbye @Windows https://t.co/IqkGmvpequ $MSFT\u2026
p345
aV2017-04-03 | $AAPL flagging on daily
p346
aV2017-04-03 | RT @WallStJesus: \U0001f525TODAY'S ACTIVE FLOW: $BAC $AAPL $TSLA $JPM $CSCO $AMZN $MU $NVDA $MON $AMD $MSFT $KMX $T $DB $X $GOOGL $EBAY $VRX $TWTR $\u2026
p347
aV2017-04-03 | RT @WallStJesus: \U0001f525TODAY'S ACTIVE FLOW: $BAC $AAPL $TSLA $JPM $CSCO $AMZN $MU $NVDA $MON $AMD $MSFT $KMX $T $DB $X $GOOGL $EBAY $VRX $TWTR $\u2026
p348
aV2017-04-03 | RT @DomainMondo: Tech Review UPDATE: #Android now world\u2019s most popular OS for internet use, Goodbye @Windows https://t.co/IqkGmvpequ $MSFT\u2026
p349
aV2017-04-03 | RT @XGemTrader: 1000% agree with @petenajarian that $AAPL is going to 160 @GuyAdami @timseymour @MelissaLeeCNBC @RiskReversal https://t.co/\u2026
p350
aV2017-04-03 | These assets are seeing a jump in tweets #fintech $AAPL $Blockchain $TSLA https://t.co/KHX3b4qoMy https://t.co/bFzWgTFfD0
p351
aV2017-04-03 | RT @DomainMondo: Tech Review UPDATE: #Android now world\u2019s most popular OS for internet use, Goodbye @Windows https://t.co/IqkGmvpequ $MSFT\u2026
p352
aV2017-04-03 | Tech Review UPDATE: #Android now world\u2019s most popular OS for internet use, Goodbye @Windows https://t.co/IqkGmvpequ\u2026 https://t.co/CYCbD2CGny
p353
aV2017-04-03 | Posted a new review of the Koogeek HomeKit Compatible Smart Plug  Cool gadget. https://t.co/XxIyQ64FFj $AAPL #iosdev #gadget #review
p354
aV2017-04-03 | RT @scalpthatstock: T3 Live Daily Recap - Let The Q2 Stock Fishing Begin  https://t.co/RKLTelhCRY  $SPX $IWM $XLF $BAC $TSLA $GOOGL $AMZN $\u2026
p355
aV2017-04-03 | RT @OphirGottlieb: https://t.co/BPfK6XyysS The Secret\u2019s Out: Apple Gets Dead Serious About India via @YahooFinance - $AAPL
p356
aV2017-04-03 | $AAPL holding strong in a weak-ish tape today, just tapping the 8ema &amp; stayed above https://t.co/beoEK4xOTP
p357
aV2017-04-03 | $STUDY $SPY current holdings.  Sold the larger $TSLA position for a nice gain, rolled down &amp; in to the wkly $aapl\u2026 https://t.co/Au3Aehmbgk
p358
aV2017-04-03 | RT @option_snipper: Any company that is in the process of fundamentally changing people's ways of living deserves high valuation. $AAPL $TS\u2026
p359
aV2017-04-03 | Den of Thieves by James B. Stewart: https://t.co/tgSWH2PXGZ $SPY $AAPL $AMZN $VIX
p360
aV2017-04-03 | https://t.co/BPfK6XyysS The Secret\u2019s Out: Apple Gets Dead Serious About India via @YahooFinance - $AAPL
p361
aV2017-04-03 | Tickers trending on TWTR in last 1 hour #fintech $AAPL $Blockchain $TSLA https://t.co/KHX3b4qoMy https://t.co/nQS0B5Kjpl
p362
aV2017-04-03 | T3 Live Daily Recap - Let The Q2 Stock Fishing Begin  https://t.co/RKLTelhCRY  $SPX $IWM $XLF $BAC $TSLA $GOOGL $AMZN $NVDA $SPY $BABA $AAPL
p363
aV2017-04-03 | RT @treabase: $AAPL #patent 20170094389: Wireless ear buds with proximity sensors https://t.co/MgrTFHzY3z #tech #IP https://t.co/jfw48Zxk9g
p364
aV2017-04-03 | RT @MacHashNews: iOS 10.3.1 includes bug fixes and improves the security of your iPhone or iPad https://t.co/Fz2JuvY1B3 #ArsTechnica $AAPL\u2026
p365
aV2017-04-03 | $AAPL #patent 20170094389: Wireless ear buds with proximity sensors https://t.co/MgrTFHzY3z #tech #IP https://t.co/jfw48Zxk9g
p366
aV2017-04-03 | iOS 10.3.1 includes bug fixes and improves the security of your iPhone or iPad https://t.co/Fz2JuvY1B3 #ArsTechnica\u2026 https://t.co/NNGYl4lltX
p367
aV2017-04-03 | #Apple  Into a Daily Trading Range (red) and +24.0% above the 200 DMA (Day Moving Avg-green line) $AAPL #Trading\u2026 https://t.co/sTACfXqDiK
p368
aV2017-04-03 | RT @PrivateCapBlog: How Soon Will India Replace China For Apple? $AAPL https://t.co/KGaVsuembH
p369
aV2017-04-03 | RT @AAPLTree: On the later side, IIRC.  Mark your calendars. $AAPL  https://t.co/tP461E8gkx
p370
aV2017-04-03 | The Neatest Little Guide to Stock Market Investing: https://t.co/pgTRFzPHuJ #stocks #investing $SPY $AAPL $TSLA $AMZN
p371
aV2017-04-03 | RT @ElixiumJupiter: #Trading with #Bitcoin  https://t.co/7CK2LpRMRN  @ElixiumBitcoin #Blockchain #Crypto #Cryptocurrency $GOOG $AAPL $TSLA\u2026
p372
aV2017-04-03 | How Soon Will India Replace China For Apple? $AAPL https://t.co/KGaVsuembH
p373
aV2017-04-03 | How to Overcome Big Trading Losses https://t.co/YilpW05nhl #Trading #Stocks #Options #Success #Investing $AAPL $FB $AMAN $TWTR $GS $GM $F
p374
aV2017-04-03 | RT @AAPLTree: On the later side, IIRC.  Mark your calendars. $AAPL  https://t.co/tP461E8gkx
p375
aV2017-04-03 | Track trending assets in 1 watchlist #fintech $AAPL $Blockchain $TSLA https://t.co/KHX3b4qoMy https://t.co/F9cX0F77Qx
p376
aV2017-04-03 | RT @whotrades: Apple Set For Biggest Quarter in Five Years, But is It Poised for a Massive 2017? https://t.co/sUVJ6JCfEz $AAPL
p377
aV2017-04-03 | RT @option_snipper: Any company that is in the process of fundamentally changing people's ways of living deserves high valuation. $AAPL $TS\u2026
p378
aV2017-04-03 | #Instant #Apple Unlocking $0.99 Cent All #iPhone FOR 3GS 4 4S 5 5C 5S 6 6+ #unlockfusion #icloud #freeunlock #factoryunlock $AAPL #unlock
p379
aV2017-04-03 | $AAPL closes second day in a row with true doji and is forms small bull flag https://t.co/6SdRLWGrDU
p380
aV2017-04-03 | A Beginner's Guide to Day Trading Online: https://t.co/8daaWMMQbV #daytrading #trading $SPY $ES_F $AAPL
p381
aV2017-04-03 | Top stocks you should consider buying this week! https://t.co/yiPHmsvR3K $GE $FB $AAPL
p382
aV2017-04-03 | RT @theinformation: Apple industrial designer who was at Apple for 21 years and involved in the first iPhones and iPads departs. $AAPL http\u2026
p383
aV2017-04-03 | RT @ebcapital: 5 Best Core Growth Stocks For Your Portfolio @themotleyfool #stocks #invest $AAPL, $AMZN, $GOOGL, $FB, $CELG, $GOOG https://\u2026
p384
aV2017-04-03 | #Instant #Apple Unlocking $0.99 Cent All #iPhone FOR 3GS 4 4S 5 5C 5S 6 6+ #unlockfusion #icloud #freeunlock #factoryunlock $AAPL #unlock
p385
aV2017-04-03 | And it will, right before a historic 2018 crash no one will ever see coming. $AAPL yearly and biyearly puts. Number\u2026 https://t.co/QIhZ25SbwI
p386
aV2017-04-03 | Having 10 different news tabs open for $AAPL $DB $BP? We give you 1 https://t.co/iSMMsCwWju https://t.co/9QZZpa0cu1
p387
aV2017-04-03 | \U0001f525TODAY'S ACTIVE FLOW: $BAC $AAPL $TSLA $JPM $CSCO $AMZN $MU $NVDA $MON $AMD $MSFT $KMX $T $DB $X $GOOGL $EBAY $VRX\u2026 https://t.co/yBeT8RxvDJ
p388
aV2017-04-03 | RT @andreascseh: Who pays for Eating, Drinking and Warmongering for Free? Sheeple Americans &amp; Europeans for Sure Not Big Cock Offshore Tim\u2026
p389
aV2017-04-03 | Report suggests $SNE #SONY is developing a 150-megapixel backlit sensor https://t.co/4rcZJqBEgk  #nikkei $AAPL\u2026 https://t.co/UxleKmV6jB
p390
aV2017-04-03 | RT @XGemTrader: 1000% agree with @petenajarian that $AAPL is going to 160 @GuyAdami @timseymour @MelissaLeeCNBC @RiskReversal https://t.co/\u2026
p391
aV2017-04-03 | $AAPL #patent 20170094388: Headphone eartips with internal support componen... https://t.co/wGuwR8mgFt #tech #IP https://t.co/LbfzM0OuqZ
p392
aV2017-04-03 | These assets are seeing a jump in tweets #fintech $AAPL $Blockchain $TSLA https://t.co/KHX3b4qoMy https://t.co/ZoN597MlIR
p393
aV2017-04-03 | RT @XGemTrader: 1000% agree with @petenajarian that $AAPL is going to 160 @GuyAdami @timseymour @MelissaLeeCNBC @RiskReversal https://t.co/\u2026
p394
aV2017-04-03 | RT @XGemTrader: 1000% agree with @petenajarian that $AAPL is going to 160 @GuyAdami @timseymour @MelissaLeeCNBC @RiskReversal https://t.co/\u2026
p395
aV2017-04-03 | MUST READ: Up today on news. Short squeeze coming: https://t.co/0TuhB37PYv $AAPL $DIA $CSX $EWZ $ADP $WPZ $SAVE $CP $NTES $ONCS
p396
aV2017-04-03 | Koogeek Smart Plug Review https://t.co/CObyYuLOSA #MacHash $AAPL https://t.co/qChWmr7JHV
p397
aV2017-04-03 | RT @ElixiumJupiter: #Trading with #Bitcoin  https://t.co/7CK2LpRMRN  @ElixiumBitcoin #Blockchain #Crypto #Cryptocurrency $GOOG $AAPL $TSLA\u2026
p398
aV2017-04-03 | Next iPhone would be amazing because of one simple feature https://t.co/aP79uYoHpZ $AAPL
p399
aV2017-04-03 | @EatSleepNTrade @elonmusk People don't realize the vision of this Company. Investors believe in vision, not just to\u2026 https://t.co/WDpx8KRN4Z
p400
aV2017-04-03 | Apple Set For Biggest Quarter in Five Years, But is It Poised for a Massive 2017? https://t.co/sUVJ6JCfEz $AAPL
p401
aV2017-04-03 | RT @itzstockchartz: $QQQ $AAPL Divergences https://t.co/VbybeHrqRP
p402
aV2017-04-03 | RT @PortfolioBuzz: See why these assets are trending in 1 watchlist #Biotech $AAPL $Blockchain $DJIA $TSLA https://t.co/hThog8f8yJ https://\u2026
p403
aV2017-04-03 | See why these assets are trending in 1 watchlist #Biotech $AAPL $Blockchain $DJIA $TSLA https://t.co/hThog8f8yJ https://t.co/koyj2gkcfg
p404
asI4
(lp405
V2017-04-02 | RT @finzine: $AAPL Is It Time to Upgrade Your iPad? Probably Not https://t.co/WXlkQ0yvge
p406
aV2017-04-02 | RT @ElixiumCrypto: #Trading with #Bitcoin  https://t.co/O2OJksMa3p   @ElixiumBitcoin #Blockchain #Crypto #Cryptocurrency $GOOG $AAPL $TSLA\u2026
p407
aV2017-04-02 | $AAPL Is It Time to Upgrade Your iPad? Probably Not https://t.co/WXlkQ0yvge
p408
aV2017-04-02 | RT @ElixiumNeptune: #Trading with #Bitcoin  https://t.co/Fbjg0jCHj7  @ElixiumBitcoin #Blockchain #Crypto #Cryptocurrency $GOOG $AAPL $TSLA\u2026
p409
aV2017-04-02 | RT @ElixiumNeptune: #Trading with #Bitcoin  https://t.co/Fbjg0jCHj7  @ElixiumBitcoin #Blockchain #Crypto #Cryptocurrency $GOOG $AAPL $TSLA\u2026
p410
aV2017-04-02 | RT @projectedranges: PROJECTED Stock Quarterly Ranges for Q2 2017: $AAPL (145.38 YRLY target)  $AGN $AMZN $FB $GOOG $GILD $NFLX $NVDA $TSLA\u2026
p411
aV2017-04-02 | RT @treabase: $AAPL #patent 20170093107: Rotating contact ring with legs extending at an... https://t.co/5smiy86LAm #tech #IP https://t.co/\u2026
p412
aV2017-04-02 | RT @ElixiumCrypto: #Trading with #Bitcoin  https://t.co/O2OJksMa3p   @ElixiumBitcoin #Blockchain #Crypto #Cryptocurrency $GOOG $AAPL $TSLA\u2026
p413
aV2017-04-02 | RT @ElixiumNeptune: #Trading with #Bitcoin  https://t.co/Fbjg0jCHj7  @ElixiumBitcoin #Blockchain #Crypto #Cryptocurrency $GOOG $AAPL $TSLA\u2026
p414
aV2017-04-02 | $AAPL #patent 20170093107: Rotating contact ring with legs extending at an... https://t.co/5smiy86LAm #tech #IP https://t.co/9vn6Ek1FL5
p415
aV2017-04-02 | RT @jedimarkus77: $AAPL $MSFT $AMZN $FB $GOOG $GOOGL $CMCSA $INTC $CSCO $AMGN https://t.co/GHdSdUKYpL
p416
aV2017-04-02 | $AAPL $MSFT $AMZN $FB $GOOG $GOOGL $CMCSA $INTC $CSCO $AMGN https://t.co/GHdSdUKYpL
p417
aV2017-04-02 | RT @ElixiumCrypto: #Trading with #Bitcoin  https://t.co/O2OJksMa3p  @ElixiumBitcoin #Blockchain #Crypto #Cryptocurrency $GOOG $AAPL $TSLA $\u2026
p418
aV2017-04-02 | PROJECTED Stock Monthly Ranges for April: $AAPL (145.38 YRLY target)  $AGN $AMZN $FB $GOOG $GILD $NFLX $NVDA $TSLA\u2026 https://t.co/kuDOGOtydH
p419
aV2017-04-02 | @Bamabroker @GreenMonsterah Big Boy Tech holding up the whole mess  $AAPL $AMZN $GOOG $GOOGL  Question as earnings\u2026 https://t.co/ne9p0r34M7
p420
aV2017-04-02 | PROJECTED Stock Quarterly Ranges for Q2 2017: $AAPL (145.38 YRLY target)  $AGN $AMZN $FB $GOOG $GILD $NFLX $NVDA\u2026 https://t.co/nMZLULPg5y
p421
aV2017-04-02 | RT @TedatACA: #Apple wants to sell @HBO, Showtime and Starz in a single bundle https://t.co/jlRfPoM4Go $AAPL $CBS @Recode @pkafka https://t\u2026
p422
aV2017-04-02 | $AAPL sum put vol=45,240 sum call vol=50,566 PutCallRatio=0.89 expiration 04/07/2017 . https://t.co/2B64q6wt4V https://t.co/CJ7E3Zegtq
p423
aV2017-04-02 | Many of you young bucks prolly dont even remember when $BBRY was on top of the world - they let $AAPL come in and eat their lunch 1/2
p424
aV2017-04-02 | RT @TedatACA: #Apple wants to sell @HBO, Showtime and Starz in a single bundle https://t.co/jlRfPoM4Go $AAPL $CBS @Recode @pkafka https://t\u2026
p425
aV2017-04-02 | CityFALCON score gives top rated news for FREE #bigdata $AAPL $TSLA https://t.co/dPpKdbV6WC https://t.co/2MgLGLsaWb
p426
aV2017-04-02 | RT @TedatACA: #Apple wants to sell @HBO, Showtime and Starz in a single bundle https://t.co/jlRfPoM4Go $AAPL $CBS @Recode @pkafka https://t\u2026
p427
aV2017-04-02 | RT @ElixiumNeptune: #Trading with #Bitcoin  https://t.co/Fbjg0jCHj7  @ElixiumBitcoin #Blockchain #Crypto #Cryptocurrency $GOOG $AAPL $TSLA\u2026
p428
aV2017-04-02 | #Apple wants to sell @HBO, Showtime and Starz in a single bundle https://t.co/jlRfPoM4Go $AAPL $CBS @Recode @pkafka https://t.co/mbQ6ruxT1q
p429
aV2017-04-02 | Apple reportedly working to offer \u2018premium TV' streaming bundle https://t.co/nr4AoLTvxG #9to5Mac $AAPL https://t.co/ZRB3BrMBWt
p430
aV2017-04-02 | RT @Benzinga: Benzinga Stocks Of The Week: GE, Facebook, Apple And More https://t.co/CJm440RuIR $AA $AAPL $AVGO $EXTR $GE $BBRY $FB
p431
aV2017-04-02 | Monitor your watchlist of assets for tweets - US Tech Giants https://t.co/J74uV6qAnD $AAPL $GOOG $MSFT $FB
p432
aV2017-04-02 | RT @Benzinga: Benzinga Stocks Of The Week: GE, Facebook, Apple And More https://t.co/CJm440RuIR $AA $AAPL $AVGO $EXTR $GE $BBRY $FB
p433
aV2017-04-02 | $AAPL Company wants to sell HBO, Showtime and Starz in a single bundle https://t.co/DzH30vyiwr
p434
aV2017-04-02 | Benzinga: Benzinga Stocks Of The Week: GE, Facebook, Apple And More https://t.co/zhNjGSLNss $AA $AAPL $AVGO $EXTR $GE $BBRY $FB
p435
aV2017-04-02 | DUI checkpoints for the first time since buying $AAPL in summer 2014 I am in you.
p436
aV2017-04-02 | \u201cAmateurs want to be right. Professionals want to make money.\u201d  $AAPL $GS $TSLA $NFLX $WYNN $AMZN $GOOGL $BABA $FB $NVDA $PCLN $AMD $BIDU
p437
aV2017-04-02 | $SPY This is what happens when #MiserableBear loses all his money #PhonyTrader #StockLoser $AAPL $IWM $QQQ $XLF\u2026 https://t.co/BP1itMYf7l
p438
aV2017-04-02 | Benzinga Stocks Of The Week: GE, Facebook, Apple And More https://t.co/CJm440RuIR $AA $AAPL $AVGO $EXTR $GE $BBRY $FB
p439
aV2017-04-02 | RT @option_snipper: My biased APRIL prediction based on charts: $TSLA to 306, $NVDA to 124, $AMD to 16, $GOOGL to 897, $MU to 34, $AAPL to\u2026
p440
aV2017-04-02 | RT @OptionsMaestro: My next 3 trades in focus are $TSLA $NFLX $AAPL. Looks like $TSLA will gap up at the open tomorrow with news catalyst
p441
aV2017-04-02 | RT @ElixiumNeptune: #Trading with #Bitcoin  https://t.co/Fbjg0jCHj7  @ElixiumBitcoin #Blockchain #Crypto #Cryptocurrency $GOOG $AAPL $TSLA\u2026
p442
aV2017-04-02 | Why access a ticker when you can access a group of tickers - US Tech Giants https://t.co/J74uV6qAnD $AAPL $GOOG $MSFT $FB
p443
aV2017-04-02 | My next 3 trades in focus are $TSLA $NFLX $AAPL. Looks like $TSLA will gap up at the open tomorrow with news catalyst
p444
aV2017-04-02 | RT @treabase: $AAPL #patent 20170093099: Interconnect devices https://t.co/Wc64VodPjf #tech #IP https://t.co/V5oGLbRQKW
p445
aV2017-04-02 | RT @treabase: $AAPL #patent 20170093099: Interconnect devices https://t.co/Wc64VodPjf #tech #IP https://t.co/V5oGLbRQKW
p446
aV2017-04-02 | RT @treabase: $AAPL #patent 20170093099: Interconnect devices https://t.co/Wc64VodPjf #tech #IP https://t.co/V5oGLbRQKW
p447
aV2017-04-02 | RT @treabase: $AAPL #patent 20170093099: Interconnect devices https://t.co/Wc64VodPjf #tech #IP https://t.co/V5oGLbRQKW
p448
aV2017-04-02 | RT @marketexclusive: Next To Exxon, Apple Looks Like A World Beater https://t.co/ZiIdi0PhAj $aapl $xom #stocks #value
p449
aV2017-04-02 | The Manual of Ideas: The Proven Framework for Finding the Best Value Investments: https://t.co/KqvP31P6kW $AAPL $IBM $CSCO $INTC $COST
p450
aV2017-04-02 | RT @treabase: $AAPL #patent 20170093099: Interconnect devices https://t.co/Wc64VodPjf #tech #IP https://t.co/V5oGLbRQKW
p451
aV2017-04-02 | Apple May Offer HBO, Showtime, and Starz Channels as Single TV Package https://t.co/iLH9erbBS6 #MacRumors $AAPL https://t.co/4i8DcJCQfz
p452
aV2017-04-02 | RT @ElixiumNeptune: #Trading with #Bitcoin  https://t.co/Fbjg0jCHj7  @ElixiumBitcoin #Blockchain #Crypto #Cryptocurrency $GOOG $AAPL $TSLA\u2026
p453
aV2017-04-02 | $AAPL #patent 20170093099: Interconnect devices https://t.co/Wc64VodPjf #tech #IP https://t.co/V5oGLbRQKW
p454
aV2017-04-02 | RT @_steve3_: wow -&gt; that's F/in material Jim -&gt; @jimcramer   #RaiseItUp $AAPL  AGAIN  Tim Tim Tim  @tim_cook - what are we going to do wit\u2026
p455
aV2017-04-02 | RT @Investing_Books: The Vulture Investors by Hilary Rosenberg: https://t.co/GbzqAHDN0e $AAPL $SPY $SPX $VIX $DIA $QQQ
p456
aV2017-04-02 | Are you Bullish or Bearish on #Apple? Start #Trading $AAPL with #Bitcoin. 15:1 Leverage. #Cool #Gif #Stocks\u2026 https://t.co/hjIk7gG9Yf
p457
aV2017-04-02 | wow -&gt; that's F/in material Jim -&gt; @jimcramer   #RaiseItUp $AAPL  AGAIN  Tim Tim Tim  @tim_cook - what are we going\u2026 https://t.co/F0GPsdLKHU
p458
aV2017-04-02 | RT @ElixiumNeptune: #Trading with #Bitcoin  https://t.co/Fbjg0jCHj7  @ElixiumBitcoin #Blockchain #Crypto #Cryptocurrency $GOOG $AAPL $TSLA\u2026
p459
aV2017-04-02 | RT @marketexclusive: Next To Exxon, Apple Looks Like A World Beater https://t.co/ZiIdi0PhAj $aapl $xom #stocks #value
p460
aV2017-04-02 | RT @andreascseh: David de Rothschild's Braeburn Capital is #Investing Tax Free Cash Apple has Amassed in Corruption $AAPL https://t.co/uYmZ\u2026
p461
aV2017-04-02 | #Instant #Apple Unlocking $0.99 Cent All #iPhone FOR 3GS 4 4S 5 5C 5S 6 6+ #unlockfusion #icloud #freeunlock #factoryunlock $AAPL #unlock
p462
aV2017-04-02 | RT @OphirGottlieb: Apple wants to sell HBO, Showtime and Starz in a single bundle https://t.co/u8Mz3VrDWb via @Recode - $AAPL Here they com\u2026
p463
aV2017-04-02 | RT @treabase: $AAPL #patent 20170093087: Magnetic surface contacts https://t.co/el7Mw53c7y #tech #IP https://t.co/Npo3GwJ4Gd
p464
aV2017-04-02 | Proven Option Spread Trading Strategies by Billy Williams: https://t.co/d6EJGf2OEl #options #trading $AAPL $IBM $JNJ $PG $MCD
p465
aV2017-04-02 | RT @Investing_Books: The Vulture Investors by Hilary Rosenberg: https://t.co/GbzqAHDN0e $AAPL $SPY $SPX $VIX $DIA $QQQ
p466
aV2017-04-02 | @TommyThornton @Ev_Investor @elonmusk Every electronics co had a smart phone 1 year after $AAPL. how that work out for them
p467
aV2017-04-02 | #Instant #Apple Unlocking $0.99 Cent All #iPhone FOR 3GS 4 4S 5 5C 5S 6 6+ #unlockfusion #icloud #freeunlock #factoryunlock $AAPL #unlock
p468
aV2017-04-02 | $AAPL #patent 20170093087: Magnetic surface contacts https://t.co/el7Mw53c7y #tech #IP https://t.co/Npo3GwJ4Gd
p469
aV2017-04-02 | RT @learnstocks101: Free video w/setups for April 3 "Trade Signals" $AAPL $TSLA $MU $HPQ $AMZN https://t.co/y9NICg3GCi
p470
aV2017-04-02 | What is it ahead for US Tech Giants? Check what analysts have to say $GOOG $TWTR $AAPL https://t.co/l3Lv2AAjzE https://t.co/khbwlAGoBC
p471
aV2017-04-02 | Options For Monday + Ranges https://t.co/knMU0bGLN6 $AAPL $SPY
p472
aV2017-04-02 | RT @option_snipper: My biased 2017 prediction based on CHARTS:  $TSLA 355, $AMZN 1019, $AAPL 176, $NFLX 197, $BABA 158, $MU 46, $AMD 24, $G\u2026
p473
aV2017-04-02 | RT @Investing_Books: The Vulture Investors by Hilary Rosenberg: https://t.co/GbzqAHDN0e $AAPL $SPY $SPX $VIX $DIA $QQQ
p474
aV2017-04-02 | The Vulture Investors by Hilary Rosenberg: https://t.co/GbzqAHDN0e $AAPL $SPY $SPX $VIX $DIA $QQQ
p475
aV2017-04-02 | RT @OphirGottlieb: Apple wants to sell HBO, Showtime and Starz in a single bundle https://t.co/u8Mz3VrDWb via @Recode - $AAPL Here they com\u2026
p476
aV2017-04-02 | RT @OphirGottlieb: Apple wants to sell HBO, Showtime and Starz in a single bundle https://t.co/u8Mz3VrDWb via @Recode - $AAPL Here they com\u2026
p477
aV2017-04-02 | Tech shares rally hard for the quarter led by Apple and Facebook https://t.co/rCYBadJs0I via @FT: #technology #tech #stocks $AAPL $FB
p478
aV2017-04-02 | Free video w/setups for April 3 "Trade Signals" $AAPL $TSLA $MU $HPQ $AMZN https://t.co/y9NICg3GCi
p479
aV2017-04-02 | RT @PortfolioBuzz: Having 10 different news tabs open for $AAPL $DB $BP? We give you 1 https://t.co/iSMMsCwWju https://t.co/F6mpgj3GBF
p480
aV2017-04-02 | Almost Everyone Will Start Paying U.S. Sales Tax on Amazon--Tech Roundup $AMZN $AAPL $EBAY https://t.co/CSqxObBaos via @TheStreet
p481
aV2017-04-02 | Apple wants to sell HBO, Showtime and Starz in a single bundle https://t.co/u8Mz3VrDWb via @Recode - $AAPL Here they come, all areas.
p482
aV2017-04-02 | RT @SharePlanner: Dedication &amp; focus and an eye for risk management. Find it in the Splash Zone today! $CHK $AAPL #stocks $FB $ADBE https:/\u2026
p483
aV2017-04-02 | RT @marketexclusive: Next To Exxon, Apple Looks Like A World Beater https://t.co/ZiIdi0PhAj $aapl $xom #stocks #value
p484
aV2017-04-02 | RT @ElixiumNeptune: #Trading with #Bitcoin  https://t.co/Fbjg0jCHj7  @ElixiumBitcoin #Blockchain #Crypto #Cryptocurrency $GOOG $AAPL $TSLA\u2026
p485
aV2017-04-02 | simple MACD test $AAPL https://t.co/Tzizlk6pk0 TV_TradingIdeas
p486
aV2017-04-02 | Having 10 different news tabs open for $AAPL $DB $BP? We give you 1 https://t.co/iSMMsCwWju https://t.co/F6mpgj3GBF
p487
aV2017-04-02 | RT @Investor_tj0o: Should I transition my strategy over to $AAPL for a week? I wonder how it will perform with stocks since they can have h\u2026
p488
aV2017-04-02 | $AAPL #patent 20170093085: Concealed apparatus for communicating with an el... https://t.co/oDyQpibiC6 #tech #IP https://t.co/QoHv7x1ASF
p489
aV2017-04-02 | simple MACD test $AAPL https://t.co/BZo8kwdjVa
p490
aV2017-04-02 | Should I transition my strategy over to $AAPL for a week? I wonder how it will perform with stocks since they can have higher returns.
p491
aV2017-04-02 | RT @PortfolioBuzz: Stay ahead with Nasdaq 100 news, views &amp; analysis $MSFT $AAPL $GOOG https://t.co/W1OB9ZtUgi https://t.co/LFA5LB9Blz
p492
aV2017-04-02 | RT @ElixiumNeptune: #Trading with #Bitcoin  https://t.co/Fbjg0jCHj7  @ElixiumBitcoin #Blockchain #Crypto #Cryptocurrency $GOOG $AAPL $TSLA\u2026
p493
aV2017-04-02 | Set up your FREE #DayTrading journal | $AKTX $CNAT $DRNA $CBIO $AUPH $SNAP $MRNS $AAPL $FB $SPY #stocks #livestream https://t.co/0b0iPYAfIX
p494
aV2017-04-02 | $AAPL hires former $GOOG YouTube &amp; Spotify exec Shiva Rajaraman to "strengthen its position in video" against rivals like $NFLX &amp; $AMZN
p495
aV2017-04-02 | Stay ahead with Nasdaq 100 news, views &amp; analysis $MSFT $AAPL $GOOG https://t.co/W1OB9ZtUgi https://t.co/LFA5LB9Blz
p496
aV2017-04-02 | RT @ExactOptionPick: Stop trading the wrong options and start trading the winners!!   https://t.co/78FVQDKYyw $AAPL $NFLX $AMZN $GOOGL $BAB\u2026
p497
aV2017-04-02 | $SPX Hello it's me @Adele Monday! Let the trading begin $AAPL $VIX $FB $XOM @MadMoneyOnCNBC @CNBCFastMoney @WSJ\u2026 https://t.co/2pvSTBanl4
p498
aV2017-04-02 | RT @marketexclusive: Next To Exxon, Apple Looks Like A World Beater https://t.co/ZiIdi0PhAj $aapl $xom #stocks #value
p499
aV2017-04-02 | $AAPL APPLE: SELL Now &amp; Thank Warren Buffett Later https://t.co/kXybumwUlw https://t.co/uZRBsVsgKU
p500
aV2017-04-02 | $AAPL #patent 20170093079: Waterproof receptacle connector https://t.co/U4EdnilYgX #tech #IP https://t.co/G1JHArvvF0
p501
aV2017-04-02 | RT @ExactOptionPick: Stop trading the wrong options and start trading the winners!!   https://t.co/78FVQDKYyw $AAPL $NFLX $AMZN $GOOGL $BAB\u2026
p502
aV2017-04-02 | RT @ExactOptionPick: Stop trading the wrong options and start trading the winners!!   https://t.co/78FVQDKYyw $AAPL $NFLX $AMZN $GOOGL $BAB\u2026
p503
aV2017-04-02 | #Apple Record High $144.50\U0001f60dDouble Number $AAPL MONTHLY Price Pattern Coordinates Chart Monthly Time Price 6UA Area\u2026 https://t.co/KOsJ215DHu
p504
aV2017-04-02 | Stop trading the wrong options and start trading the winners!!   https://t.co/78FVQDKYyw $AAPL $NFLX $AMZN $GOOGL $BABA  $WYNN $NVDA $PCLN
p505
asI5
(lp506
V2017-04-01 | RT @ElixiumCrypto: #Trading with #Bitcoin  https://t.co/O2OJksMa3p   @ElixiumBitcoin #Blockchain #Crypto #Cryptocurrency $GOOG $AAPL $TSLA\u2026
p507
aV2017-04-01 | RT @Ascend_Trading: Trade $BTC right on our platform! FREE WEEK DEMO! https://t.co/r9bJIBHuVz  $SPY $QQQ $VXX $JNUG $GDX $ETH $ETC $GRC $DO\u2026
p508
aV2017-04-01 | RT @treabase: $AAPL #patent 20170091522: Electronic device generating finger images at a... https://t.co/SIjhs98huA #tech #IP https://t.co/\u2026
p509
aV2017-04-01 | RT @ValaAfshar: April 1, 1976 (41 years ago today), Jobs and @stevewoz formed @Apple.   Today, $AAPL is valued at $754 billion. https://t.c\u2026
p510
aV2017-04-01 | RT @treabase: $AAPL #patent 20170091522: Electronic device generating finger images at a... https://t.co/SIjhs98huA #tech #IP https://t.co/\u2026
p511
aV2017-04-01 | RT @treabase: $AAPL #patent 20170091522: Electronic device generating finger images at a... https://t.co/SIjhs98huA #tech #IP https://t.co/\u2026
p512
aV2017-04-01 | $AAPL #patent 20170091522: Electronic device generating finger images at a... https://t.co/SIjhs98huA #tech #IP https://t.co/ppH6xbSv9N
p513
aV2017-04-01 | #Apple: A Power In Streaming #Music https://t.co/ERmJRPR7a9 $AAPL, $AMD, $BBRY, $GOOG, $INTC #ApplePay #AMD #Streaming #Google #Stocks
p514
aV2017-04-01 | @jimcramer Took an $AAPL workshop in the store today. Aside from the stock, the company is amazing with product/user support Nothing like it
p515
aV2017-04-01 | RT @ValaAfshar: April 1, 1976 (41 years ago today), Jobs and @stevewoz formed @Apple.   Today, $AAPL is valued at $754 billion. https://t.c\u2026
p516
aV2017-04-01 | RT @PipsToDollars: $AAPL $GOOGL $AMZN $MU $WDC $AVGO Apple, Amazon, Google join bidding for Toshiba chip unit: media https://t.co/zY0aslnee\u2026
p517
aV2017-04-01 | RT @AppleReporter: Apple Closes Wk, Mo, Qtr Near Record High! YTD +24%, 12ME +32% Since Election +29% Post Earnings +18% $AAPL $DIA $QQQ $X\u2026
p518
aV2017-04-01 | RT @tribeless: $AAPL Clips tries for that Snapchat/Instagram mojo https://t.co/RlIDK97gnF via @USATODAY
p519
aV2017-04-01 | RT @TalkMarkets: Chinese Brands Are Shaking Up The $420B Smartphone Market $AAPL https://t.co/5T6HMhz2Dt
p520
aV2017-04-01 | RT @ValaAfshar: April 1, 1976 (41 years ago today), Jobs and @stevewoz formed @Apple.   Today, $AAPL is valued at $754 billion. https://t.c\u2026
p521
aV2017-04-01 | $AAPL #patent 20170091515: Input devices incorporating biometric sensors https://t.co/6jlI9qxr6L #tech #IP https://t.co/jRBg0ZfTkh
p522
aV2017-04-01 | Can\u2019t Make \u201cAlpha\u201d In Mega-Caps? $AAPL $MSFT $AMZN $BRK.A $BRK.B $FB $JPM $BABA $BAC $V $MA $MRK $C $GOOG $PG $UNH https://t.co/AfPrpkfmvd
p523
aV2017-04-01 | $AAPL maturity 04/07/2017 Vol PutCallRatio of 0.89 puts=45,240 calls=50,566 . https://t.co/2B64q6wt4V https://t.co/H0Zr51h910
p524
aV2017-04-01 | CityFALCON score gives top rated news for FREE #bigdata $AAPL $TSLA https://t.co/dPpKdbV6WC https://t.co/ZYKgUynaHD
p525
aV2017-04-01 | #Misty for the follow #CLOUDUNLOCK Check Out #Apple #iCloud #iPhone $AAPL for #unlock #code https://t.co/sFE120Bm7R
p526
aV2017-04-01 | RT @ElixiumCrypto: #Trading with #Bitcoin  https://t.co/O2OJksMa3p  @ElixiumBitcoin #Blockchain #Crypto #Cryptocurrency $GOOG $AAPL $TSLA $\u2026
p527
aV2017-04-01 | RT @ValaAfshar: April 1, 1976 (41 years ago today), Jobs and @stevewoz formed @Apple.   Today, $AAPL is valued at $754 billion. https://t.c\u2026
p528
aV2017-04-01 | RT @ValaAfshar: April 1, 1976 (41 years ago today), Jobs and @stevewoz formed @Apple.   Today, $AAPL is valued at $754 billion. https://t.c\u2026
p529
aV2017-04-01 | RT @ValaAfshar: April 1, 1976 (41 years ago today), Jobs and @stevewoz formed @Apple.   Today, $AAPL is valued at $754 billion.
p530
aV2017-04-01 | RT @ValaAfshar: April 1, 1976 (41 years ago today), Jobs and @stevewoz formed @Apple.   Today, $AAPL is valued at $754 billion. https://t.c\u2026
p531
aV2017-04-01 | RT @ValaAfshar: April 1, 1976 (41 years ago today), Jobs and @stevewoz formed @Apple.   Today, $AAPL is valued at $754 billion. https://t.c\u2026
p532
aV2017-04-01 | Chinese Brands Are Shaking Up The $420B Smartphone Market $AAPL https://t.co/5T6HMhz2Dt
p533
aV2017-04-01 | RT @treabase: $AAPL #patent 20170091507: Finger biometric sensor including capacitance ch... https://t.co/e80O1nswN2 #tech #IP https://t.co\u2026
p534
aV2017-04-01 | RT @treabase: $AAPL #patent 20170091507: Finger biometric sensor including capacitance ch... https://t.co/e80O1nswN2 #tech #IP https://t.co\u2026
p535
aV2017-04-01 | RT @treabase: $AAPL #patent 20170091507: Finger biometric sensor including capacitance ch... https://t.co/e80O1nswN2 #tech #IP https://t.co\u2026
p536
aV2017-04-01 | RT @ValaAfshar: April 1, 1976 (41 years ago today), Jobs and @stevewoz formed @Apple.   Today, $AAPL is valued at $754 billion. https://t.c\u2026
p537
aV2017-04-01 | $AAPL #patent 20170091507: Finger biometric sensor including capacitance ch... https://t.co/e80O1nswN2 #tech #IP https://t.co/g3d4cQ5ftz
p538
aV2017-04-01 | RT @masamikan: .@NaviAvatar1 on #Periscope: Poolside Chat $WYNN $SNAP $AAPL $TWTR $FB https://t.co/YUSGDalolM
p539
aV2017-04-01 | .@NaviAvatar1 on #Periscope: Poolside Chat $WYNN $SNAP $AAPL $TWTR $FB https://t.co/YUSGDalolM
p540
aV2017-04-01 | RT @ValaAfshar: April 1, 1976 (41 years ago today), Jobs and @stevewoz formed @Apple.   Today, $AAPL is valued at $754 billion. https://t.c\u2026
p541
aV2017-04-01 | .@NaviAvatar1 on #Periscope: Poolside Chat $WYNN $AAPL $TWTR $SNAP $FB https://t.co/e42tAqkf6I
p542
aV2017-04-01 | Poolside Chat $WYNN $AAPL $TWTR $SNAP $FB https://t.co/UKvgwtZlIY
p543
aV2017-04-01 | RT @isaiah_ebooks: $AAPL is 99% Canada jokes and 2% developer developer for $45/hr.
p544
aV2017-04-01 | RT @ValaAfshar: April 1, 1976 (41 years ago today), Jobs and @stevewoz formed @Apple.   Today, $AAPL is valued at $754 billion. https://t.c\u2026
p545
aV2017-04-01 | RT @ValaAfshar: April 1, 1976 (41 years ago today), Jobs and @stevewoz formed @Apple.   Today, $AAPL is valued at $754 billion. https://t.c\u2026
p546
aV2017-04-01 | $AAPL is 99% Canada jokes and 2% developer developer for $45/hr.
p547
aV2017-04-01 | RT @BarrySchwartzBW: Apple has $159B net in cash and should generate another $50B plus for its 2017 fiscal year. And $60B plus the followin\u2026
p548
aV2017-04-01 | RT @ValaAfshar: April 1, 1976 (41 years ago today), Jobs and @stevewoz formed @Apple.   Today, $AAPL is valued at $754 billion. https://t.c\u2026
p549
aV2017-04-01 | RT @ValaAfshar: April 1, 1976 (41 years ago today), Jobs and @stevewoz formed @Apple.   Today, $AAPL is valued at $754 billion. https://t.c\u2026
p550
aV2017-04-01 | RT @CBOE: $AMZN, $AAPL, and EuroCurrency Volatility were the big winners in the volatility space last week.  $VIX https://t.co/1v6CBZ8IKS
p551
aV2017-04-01 | #Instant #Apple Unlocking $0.99 Cent All #iPhone FOR 3GS 4 4S 5 5C 5S 6 6+ #unlockfusion #icloud #freeunlock #factoryunlock $AAPL #unlock
p552
aV2017-04-01 | RT @ManMadeMaterial: $AAPL My Apple iPhone 7 scored 2476 in the 3DMark SlingShot Extreme iOS benchmark test. https://t.co/KH4DJNyObx  YIPP\u2026
p553
aV2017-04-01 | RT @option_snipper: My biased 2017 prediction based on CHARTS:  $TSLA 355, $AMZN 1019, $AAPL 176, $NFLX 197, $BABA 158, $MU 46, $AMD 24, $G\u2026
p554
aV2017-04-01 | #Instant #Apple Unlocking $0.99 Cent All #iPhone FOR 3GS 4 4S 5 5C 5S 6 6+ #unlockfusion #icloud #freeunlock #factoryunlock $AAPL #unlock
p555
aV2017-04-01 | Is #Apple Overvalued? A DCF #Analysis - $aapl https://t.co/D3ZOQHDpcu
p556
aV2017-04-01 | RT @ValaAfshar: April 1, 1976 (41 years ago today), Jobs and @stevewoz formed @Apple.   Today, $AAPL is valued at $754 billion. https://t.c\u2026
p557
aV2017-04-01 | $AAPL #patent 20170091439: System and method for person reidentification https://t.co/bwJkrfldbm #tech #IP https://t.co/fMr05IGayh
p558
aV2017-04-01 | $GOOGL $AAPL $AMZN join bidding for Toshiba chip unit: media https://t.co/ltwskYz6bx  $MU $WDC   In bidding war $AAPL $AMZN $GOOGL w win
p559
aV2017-04-01 | RT @ValaAfshar: April 1, 1976 (41 years ago today), Jobs and @stevewoz formed @Apple.   Today, $AAPL is valued at $754 billion. https://t.c\u2026
p560
aV2017-04-01 | RT @marketexclusive: Apple Inc. (NASDAQ:AAPL) Closes WWDC 2017 Registration Process https://t.co/z11FGMXUpa $AAPL
p561
aV2017-04-01 | Poolside Chat $WYNN $SNAP $AAPL $TWTR $FB https://t.co/zrkqAL6g7x
p562
aV2017-04-01 | $AAPL My Apple iPhone 7 scored 2476 in the 3DMark SlingShot Extreme iOS benchmark test. https://t.co/KH4DJNyObx  YIPPEE!  \U0001f602\U0001f680\U0001f926\U0001f3fb\u200d\u2642\ufe0f\U0001f603
p563
aV2017-04-01 | RT @ValaAfshar: April 1, 1976 (41 years ago today), Jobs and @stevewoz formed @Apple.   Today, $AAPL is valued at $754 billion. https://t.c\u2026
p564
aV2017-04-01 | RT @ValaAfshar: April 1, 1976 (41 years ago today), Jobs and @stevewoz formed @Apple.   Today, $AAPL is valued at $754 billion. https://t.c\u2026
p565
aV2017-04-01 | RT @ValaAfshar: April 1, 1976 (41 years ago today), Jobs and @stevewoz formed @Apple.   Today, $AAPL is valued at $754 billion. https://t.c\u2026
p566
aV2017-04-01 | What is it ahead for US Tech Giants? Check what analysts have to say $GOOG $TWTR $AAPL https://t.co/l3Lv2AAjzE https://t.co/TFsu4cRCCJ
p567
aV2017-04-01 | RT @ValaAfshar: April 1, 1976 (41 years ago today), Jobs and @stevewoz formed @Apple.   Today, $AAPL is valued at $754 billion. https://t.c\u2026
p568
aV2017-04-01 | RT @ValaAfshar: April 1, 1976 (41 years ago today), Jobs and @stevewoz formed @Apple.   Today, $AAPL is valued at $754 billion. https://t.c\u2026
p569
aV2017-04-01 | RT @ValaAfshar: April 1, 1976 (41 years ago today), Jobs and @stevewoz formed @Apple.   Today, $AAPL is valued at $754 billion. https://t.c\u2026
p570
aV2017-04-01 | RT @ElixiumCrypto: #Trading with #Bitcoin  https://t.co/O2OJksMa3p  @ElixiumBitcoin #Blockchain #Crypto #Cryptocurrency $GOOG $AAPL $TSLA $\u2026
p571
aV2017-04-01 | RT @ValaAfshar: April 1, 1976 (41 years ago today), Jobs and @stevewoz formed @Apple.   Today, $AAPL is valued at $754 billion. https://t.c\u2026
p572
aV2017-04-01 | @joefriday_714 while continue to ask his followers for "tips" to buy few groceries cuz he lost all money trading\u2026 https://t.co/T2Sb3qiZn8
p573
aV2017-04-01 | RT @ValaAfshar: April 1, 1976 (41 years ago today), Jobs and @stevewoz formed @Apple.   Today, $AAPL is valued at $754 billion. https://t.c\u2026
p574
aV2017-04-01 | RT @ValaAfshar: April 1, 1976 (41 years ago today), Jobs and @stevewoz formed @Apple.   Today, $AAPL is valued at $754 billion. https://t.c\u2026
p575
aV2017-04-01 | RT @ValaAfshar: April 1, 1976 (41 years ago today), Jobs and @stevewoz formed @Apple.   Today, $AAPL is valued at $754 billion. https://t.c\u2026
p576
aV2017-04-01 | RT @WellRoundedNews: April 1, 1976 (41 years ago today), Jobs and stevewoz formed Apple.   Today, $AAPL is valued at $754 billion. https://\u2026
p577
aV2017-04-01 | RT @treabase: $AAPL #patent 20170091436: Input devices incorporating biometric sensors https://t.co/T4hfBcEaVM #tech #IP https://t.co/Q61LF\u2026
p578
aV2017-04-01 | RT @ValaAfshar: April 1, 1976 (41 years ago today), Jobs and @stevewoz formed @Apple.   Today, $AAPL is valued at $754 billion. https://t.c\u2026
p579
aV2017-04-01 | RT @ValaAfshar: April 1, 1976 (41 years ago today), Jobs and @stevewoz formed @Apple.   Today, $AAPL is valued at $754 billion. https://t.c\u2026
p580
aV2017-04-01 | RT @ValaAfshar: April 1, 1976 (41 years ago today), Jobs and @stevewoz formed @Apple.   Today, $AAPL is valued at $754 billion. https://t.c\u2026
p581
aV2017-04-01 | RT @ElixiumCrypto: #Trading with #Bitcoin  https://t.co/O2OJksMa3p  @ElixiumBitcoin #Blockchain #Crypto #Cryptocurrency $GOOG $AAPL $TSLA $\u2026
p582
aV2017-04-01 | RT @ValaAfshar: April 1, 1976 (41 years ago today), Jobs and @stevewoz formed @Apple.   Today, $AAPL is valued at $754 billion. https://t.c\u2026
p583
aV2017-04-01 | RT @ValaAfshar: April 1, 1976 (41 years ago today), Jobs and @stevewoz formed @Apple.   Today, $AAPL is valued at $754 billion. https://t.c\u2026
p584
aV2017-04-01 | RT @ValaAfshar: April 1, 1976 (41 years ago today), Jobs and @stevewoz formed @Apple.   Today, $AAPL is valued at $754 billion. https://t.c\u2026
p585
aV2017-04-01 | $AAPL #patent 20170091436: Input devices incorporating biometric sensors https://t.co/T4hfBcEaVM #tech #IP https://t.co/Q61LFFSckW
p586
aV2017-04-01 | RT @ValaAfshar: April 1, 1976 (41 years ago today), Jobs and @stevewoz formed @Apple.   Today, $AAPL is valued at $754 billion. https://t.c\u2026
p587
aV2017-04-01 | RT @ValaAfshar: April 1, 1976 (41 years ago today), Jobs and @stevewoz formed @Apple.   Today, $AAPL is valued at $754 billion. https://t.c\u2026
p588
aV2017-04-01 | RT @ValaAfshar: April 1, 1976 (41 years ago today), Jobs and @stevewoz formed @Apple.   Today, $AAPL is valued at $754 billion. https://t.c\u2026
p589
aV2017-04-01 | RT @ClayTrader25: I'm happy to report I did NOT do this in the month of March. Still a good reminder though - https://t.co/YTbuDWsN23 $USRM\u2026
p590
aV2017-04-01 | April 1, 1976 (41 years ago today), Jobs and stevewoz formed Apple.   Today, $AAPL is valued at $754 billion. https://t.co/DgBGUzLwnz via \u2026
p591
aV2017-04-01 | RT @ValaAfshar: April 1, 1976 (41 years ago today), Jobs and @stevewoz formed @Apple.   Today, $AAPL is valued at $754 billion. https://t.c\u2026
p592
aV2017-04-01 | RT @ValaAfshar: April 1, 1976 (41 years ago today), Jobs and @stevewoz formed @Apple.   Today, $AAPL is valued at $754 billion. https://t.c\u2026
p593
aV2017-04-01 | RT @ValaAfshar: April 1, 1976 (41 years ago today), Jobs and @stevewoz formed @Apple.   Today, $AAPL is valued at $754 billion. https://t.c\u2026
p594
aV2017-04-01 | RT @ValaAfshar: April 1, 1976 (41 years ago today), Jobs and @stevewoz formed @Apple.   Today, $AAPL is valued at $754 billion. https://t.c\u2026
p595
aV2017-04-01 | RT @ValaAfshar: April 1, 1976 (41 years ago today), Jobs and @stevewoz formed @Apple.   Today, $AAPL is valued at $754 billion. https://t.c\u2026
p596
aV2017-04-01 | RT @ValaAfshar: April 1, 1976 (41 years ago today), Jobs and @stevewoz formed @Apple.   Today, $AAPL is valued at $754 billion. https://t.c\u2026
p597
aV2017-04-01 | RT @ValaAfshar: April 1, 1976 (41 years ago today), Jobs and @stevewoz formed @Apple.   Today, $AAPL is valued at $754 billion. https://t.c\u2026
p598
aV2017-04-01 | RT @ValaAfshar: April 1, 1976 (41 years ago today), Jobs and @stevewoz formed @Apple.   Today, $AAPL is valued at $754 billion. https://t.c\u2026
p599
aV2017-04-01 | RT @ValaAfshar: April 1, 1976 (41 years ago today), Jobs and @stevewoz formed @Apple.   Today, $AAPL is valued at $754 billion. https://t.c\u2026
p600
aV2017-04-01 | RT @ValaAfshar: April 1, 1976 (41 years ago today), Jobs and @stevewoz formed @Apple.   Today, $AAPL is valued at $754 billion. https://t.c\u2026
p601
aV2017-04-01 | RT @ValaAfshar: April 1, 1976 (41 years ago today), Jobs and @stevewoz formed @Apple.   Today, $AAPL is valued at $754 billion. https://t.c\u2026
p602
aV2017-04-01 | RT @ValaAfshar: April 1, 1976 (41 years ago today), Jobs and @stevewoz formed @Apple.   Today, $AAPL is valued at $754 billion. https://t.c\u2026
p603
aV2017-04-01 | RT @ValaAfshar: April 1, 1976 (41 years ago today), Jobs and @stevewoz formed @Apple.   Today, $AAPL is valued at $754 billion. https://t.c\u2026
p604
aV2017-04-01 | RT @ValaAfshar: April 1, 1976 (41 years ago today), Jobs and @stevewoz formed @Apple.   Today, $AAPL is valued at $754 billion. https://t.c\u2026
p605
aV2017-04-01 | RT @marketexclusive: Apple Inc. (NASDAQ:AAPL) Closes WWDC 2017 Registration Process https://t.co/z11FGMXUpa $AAPL
p606
asI6
(lp607
sI7
(lp608
sI8
(lp609
sI9
(lp610
sI10
(lp611
sI11
(lp612
sI12
(lp613
sI13
(lp614
sI14
(lp615
sI15
(lp616
sI16
(lp617
sI17
(lp618
sI18
(lp619
s.