(dp0
I0
(lp1
V2017-05-18 | The opportunity beneath Microsoft's securtiy "flaw." https://t.co/26tOf6OBiE $MSFT
p2
aV2017-05-18 | RT @seeitmarket: New Post - "Trading Ideas: 5 Stocks To Watch Today" http://t.co/BaChMo4qFv by @NoanetTrader $AGN $JAZZ $TLT $ITW $AAPL $MS\u2026
p3
aV2017-05-18 | - #Windows10 update - Tick. Tock #Microsoft $MSFT #Tech https://t.co/VdX5gvLGTc
p4
aV2017-05-18 | Traders Sell Microsoft Co. $MSFT on Strength Following Insider Selling https://t.co/nJsbnXYQQN
p5
aV2017-05-18 | Traders Sell Microsoft Co. $MSFT on Strength Following Insider Selling https://t.co/5hDhd86rJY
p6
aV2017-05-18 | $MSFT. A monopoly with an embedded cloud infra call option is trading for... 14x forward FCFF. Is there something wrong with this picture?
p7
aV2017-05-18 | $MSFT:  On the Surface, Microsoft Corporation (MSFT) Stock Looks Like a Buy:  https://t.co/7oOubBpVKY
p8
aV2017-05-18 | This is one of the most relevant news about $MSFT now. Microsoft taking data-center race into Africa https://t.co/bfXOlnCqKo #stocks #invest
p9
aV2017-05-18 | Traders Sell Microsoft Co. $MSFT on Strength Following Insider Selling https://t.co/ulCxGu1X6X
p10
aV2017-05-18 | This is one of the most relevant articles about $MSFT now. Microsoft's Windows 10 update looks fantastic, but w... https://t.co/NZrqcH7JYv
p11
aV2017-05-18 | RT @SeekingAlpha: Etsy: Potential Buyout Scenarios https://t.co/rdayAgX08Z $AMZN $BABA $EBAY $FB $MSFT $PYPL $WMT $ETSY
p12
aV2017-05-18 | RT @stockpulp: This is one of the most relevant articles about $MSFT now. A new Microsoft PowerPoint feature is straight out.... https://t.\u2026
p13
aV2017-05-18 | This is one of the most relevant articles about $MSFT now. A new Microsoft PowerPoint feature is straight out.... https://t.co/LB7crtbZCN
p14
aV2017-05-18 | Microsoft taking over the data-center race into Africa $GOOG $GOOGL $MSFT $AMZN https://t.co/d1SLBMRQSo
p15
aV2017-05-18 | RT @learnstocks101: Free video w/setups for May 19 "Not Real Convincing" $AAPL $MSFT $NVDA $AMAT $SHOP https://t.co/ERrPqxP3vb
p16
aV2017-05-18 | Apple Technician Dan Dodge talks about QNX..... @BlackBerry $BBRY $AAPL @Apple  @Microsoft $MSFT https://t.co/Jr9NdD3Hfn
p17
aV2017-05-18 | Free video w/setups for May 19 "Not Real Convincing" $AAPL $MSFT $NVDA $AMAT $SHOP https://t.co/ERrPqxP3vb
p18
aV2017-05-18 | RT @davemcclure: Chart: How Top 5 Tech Giants Make Their Billions https://t.co/DnYCQ7uWRe by @VisualCap $AAPL $GOOG $MSFT $AMZN $FB cc @500\u2026
p19
aV2017-05-18 | Salesforce Rising:: Trumpets Rising Profit Margins, Market Share -Tech Trader Daily - $CRM $MSFT $ORCL $SAP https://t.co/tZ647ACthk
p20
aV2017-05-18 | Microsoft Co. $MSFT EVP Christopher C. Capossela Sells 3,000 Shares of Stock https://t.co/16vrPEgFhn
p21
aV2017-05-18 | Microsoft Co. $MSFT EVP Christopher C. Capossela Sells 3,000 Shares of Stock https://t.co/gJzpPZjE67
p22
aV2017-05-18 | RT @AlertTrade: Etsy: Potential Buyout Scenarios $AMZN $BABA $EBAY $FB $MSFT $PYPL $WMT $ETSY https://t.co/te2qvdSfYT #Investing #Stocks ht\u2026
p23
aV2017-05-18 | Microsoft Co. $MSFT EVP Christopher C. Capossela Sells 3,000 Shares of Stock https://t.co/PWgKhjQCye
p24
aV2017-05-18 | In the era of chronic farting i think $CRM will be bought out by $MSFT for a huge premium like the $LNKD acquisition.
p25
aV2017-05-18 | Etsy: Potential Buyout Scenarios $AMZN $BABA $EBAY $FB $MSFT $PYPL $WMT $ETSY https://t.co/te2qvdSfYT #Investing\u2026 https://t.co/BdgzXiow7p
p26
aV2017-05-18 | $CRM $MSFT $ORCL $SAP:  Salesforce Rising:: Trumpets Rising Profit Margins, Market Share:  https://t.co/H65kBw2tiB
p27
aV2017-05-18 | Etsy: Potential Buyout Scenarios https://t.co/XoRHUvjK55 $AMZN $BABA $EBAY $FB $MSFT $PYPL $WMT $ETSY
p28
aV2017-05-18 | Etsy: Potential Buyout Scenarios https://t.co/rdayAgX08Z $AMZN $BABA $EBAY $FB $MSFT $PYPL $WMT $ETSY
p29
aV2017-05-18 | RT @EatSleepNTrade: In the era of big data i think $CRM will be bought out by $MSFT for a huge premium like the $LNKD acquisition.
p30
aV2017-05-18 | Update: Salesforce Stalls After Ho-Hum Q1 Earnings $CRM $MSFT -  https://t.co/bkQRgYjqMy
p31
aV2017-05-18 | In the era of big data i think $CRM will be bought out by $MSFT for a huge premium like the $LNKD acquisition.
p32
aV2017-05-18 | RT @CourtMcQuade: How former $MSFT software engineer @GregKapustin found his true passion creatin new products to generate alpha https://t.\u2026
p33
aV2017-05-18 | $ Money Flows: Selling on Strength: Among stocks that are up today, these had the largest net OUTFLOWS of money:\u2026 https://t.co/pGC5CpUDCV
p34
aV2017-05-18 | Update: Salesforce Stalls After Ho-Hum Q1 Earnings $CRM $MSFT -  https://t.co/UPhozQ2sX4
p35
aV2017-05-18 | RT @theflynews: On The Fly: What to watch in Salesforce earnings report $CRM $MSFT $SAP $ORCL https://t.co/GxRLAUabbl
p36
aV2017-05-18 | $FB $GOOG $AMZN $MSFT:  Facebook Will Live Stream Thousands of Hours of Video Game \u2026:  https://t.co/oKzoQWpRPT
p37
aV2017-05-18 | RT @SAI: A new Microsoft PowerPoint feature is straight out of 'Star Trek' $MSFT https://t.co/Vl8oIigPzC https://t.co/Vr32UQRpZH
p38
aV2017-05-18 | Microsoft\u2019s $MSFT Outperform Rating Reaffirmed at Sanford C. Bernstein https://t.co/2qyZN2zMMX
p39
aV2017-05-18 | $V #SAI:A new Microsoft PowerPoint feature is straight out of 'Star Trek' $MSFT https://t.co/AhgJ6P0nOk https://t.co/QoL9egVEJY
p40
aV2017-05-18 | RT @SAI: A new Microsoft PowerPoint feature is straight out of 'Star Trek' $MSFT https://t.co/Vl8oIigPzC https://t.co/Vr32UQRpZH
p41
aV2017-05-18 | SAI: A new Microsoft PowerPoint feature is straight out of 'Star Trek' $MSFT https://t.co/p95bZvVx6m https://t.co/x717WVsOCw
p42
aV2017-05-18 | RT @SAI: A new Microsoft PowerPoint feature is straight out of 'Star Trek' $MSFT https://t.co/Vl8oIigPzC https://t.co/Vr32UQRpZH
p43
aV2017-05-18 | A new Microsoft PowerPoint feature is straight out of 'Star Trek' $MSFT https://t.co/Vl8oIigPzC https://t.co/Vr32UQRpZH
p44
aV2017-05-18 | A new Microsoft PowerPoint feature is straight out of 'Star Trek' $MSFT https://t.co/wfCTqNtRh4 https://t.co/zzkyY4Qmf7
p45
aV2017-05-18 | $MSFT Todays trading with Microsoft Corporation for $67.71 on date May 18, 2017. #Finance
p46
aV2017-05-18 | @SwiftOnSecurity Updates = job security  Legacy SW patchin = job security Automate 4Ur ability to flee midday to mo\u2026 https://t.co/GThSRLLfzX
p47
aV2017-05-18 | Xbox One S 2TB Console https://t.co/E7KbIsnPPy $MSFT #xbox #xboxone #gaming
p48
aV2017-05-18 | Top #moneyflow for #sp500 today $NKE $AAPL $BAC $JPM $MSFT $PFE $GE $CERN $XOM $CAT ... https://t.co/S59zN0R1wP
p49
aV2017-05-18 | Top #moneyflow for #nasdaq today $AAPL $MSFT $CERN $GOOG $NFLX $ORCL $NVDA $ADBE $ESRX $GILD ... https://t.co/S59zN0R1wP
p50
aV2017-05-18 | Emerging Mrkt $EEM $ADRE BEAR BACK KISS $BZQ $IWM $RUT $VIX $NDX $QQQ $NQ_F $ES_F $SPY $SPX $IBM $TF_F $MSFT $GOOG\u2026 https://t.co/hDyngsaU1n
p51
aV2017-05-18 | RT @EpicStockCall: $spy $aapl $msft $fb $twtr The pope needs to bless you lousy traders https://t.co/wEu91Athsq
p52
aV2017-05-18 | RT @TheMrDev: Exiting $IWM $RUT Day Longs for EM Shorts @ close $VIX $NDX $QQQ $NQ_F $ES_F $SPY $SPX $IBM $TF_F $MSFT $GOOG $FB $DJI @cnbc\u2026
p53
aV2017-05-18 | RT @EpicStockCall: $spy $aapl $msft $fb $twtr The pope needs to bless you lousy traders https://t.co/wEu91Athsq
p54
aV2017-05-18 | Not today, $msft https://t.co/LEwnfwFzdN
p55
aV2017-05-18 | RT @davemcclure: Chart: How Top 5 Tech Giants Make Their Billions https://t.co/DnYCQ7uWRe by @VisualCap $AAPL $GOOG $MSFT $AMZN $FB cc @500\u2026
p56
aV2017-05-18 | Exiting $IWM $RUT Day Longs for EM Shorts @ close $VIX $NDX $QQQ $NQ_F $ES_F $SPY $SPX $IBM $TF_F $MSFT $GOOG $FB $DJI @cnbc $HD $NFLX $AAPL
p57
aV2017-05-18 | $SNE #SONY Investors meeting next Tuesday May 23rd https://t.co/sotXMgP56F $AAPL $VIA $SSNLF $MSFT $AMZN $GOOGL\u2026 https://t.co/dajqdExKYS
p58
aV2017-05-18 | RT @theflynews: On The Fly: What to watch in Salesforce earnings report $CRM $MSFT $SAP $ORCL https://t.co/GxRLAUabbl
p59
aV2017-05-18 | On The Fly: What to watch in Salesforce earnings report $CRM $MSFT $SAP $ORCL https://t.co/GxRLAUabbl
p60
aV2017-05-18 | $spy $aapl $msft $fb $twtr The pope needs to bless you lousy traders https://t.co/wEu91Athsq
p61
aV2017-05-18 | Microsoft: How To Increase Your Yield https://t.co/hm5Wv0LFoc $MSFT #MICROSOFT #WINDOWS
p62
aV2017-05-18 | Microsoft: How To Increase Your Yield https://t.co/IUb8YuBePU $MSFT #MICROSOFT #WINDOWS
p63
aV2017-05-18 | Microsoft: How To Increase Your Yield https://t.co/V4ni5DrV1d $MSFT #MICROSOFT #WINDOWS
p64
asI1
(lp65
V2017-05-17 | $MSFT $AAPL Deloitte\u2019s Global Defense Outlook Research Report about Cyber Security and Nuclear Capability https://t.co/uAe95k9bpo
p66
aV2017-05-17 | Christopher C. Capossela Sells 3,000 Shares of Microsoft Co. $MSFT Stock https://t.co/EyWg8tBa8h
p67
aV2017-05-17 | Christopher C. Capossela Sells 3,000 Shares of Microsoft Co. $MSFT Stock https://t.co/bommiR7qYY
p68
aV2017-05-17 | Christopher C. Capossela Sells 3,000 Shares of Microsoft Co. $MSFT Stock https://t.co/NV2qQUz5b6
p69
aV2017-05-17 | Christopher C. Capossela Sells 3,000 Shares of Microsoft Co. $MSFT Stock https://t.co/J4vfoT9Ccc
p70
aV2017-05-17 | $GOOG $AAPL $NFLX $CL $jnj $XOM $WFC $GS $fb $JPM $t $GE $AMD $ko $TGT $TWX $MSFT $CL $TXN $INTC $TSLA $D $HCA $DO\u2026 https://t.co/CW7Ce8Eawn
p71
aV2017-05-17 | Christopher C. Capossela Sells 3,000 Shares of Microsoft Co. $MSFT Stock https://t.co/DJVb053zbW #acn
p72
aV2017-05-17 | Christopher C. Capossela Sells 3,000 Shares of Microsoft Co. $MSFT Stock https://t.co/HXub7OMhC8
p73
aV2017-05-17 | High-tech US-based transnational companies (TNCs) now = 5 of 7 largest companies in the world 1 $AAPL 2 $GOOG 3 $MSFT 4 ? 5 ? 6 $AMZN 7 $FB
p74
aV2017-05-17 | Carpe DM Consulting Retained by Bhrigus, Inc., NQ Minerals and https://t.co/KcTkvrhBYo https://t.co/FrO83nb2Fg $NQMLF $UNIS $CYRX $MSFT
p75
aV2017-05-17 | https://t.co/F9wB9RxC0G  Buy $KOPN $SPVNF for some bang for your buck and of course $MSFT #Stocks
p76
aV2017-05-17 | Tech the only sector that saw positive money flow ($800m) on 17 May. $AAPL $FB $MSFT major beneficiaries. Financials worst hit- $4b outflow.
p77
aV2017-05-17 | Could #Microsoft $MSFT have prevented the #WannaCry cyberattack? https://t.co/14U452vY5z
p78
aV2017-05-17 | $MSFT https://t.co/ZTIcvYqTx7 Pot. intermed top in Uptrend LONGERTERM Wly-Dly-Hly combo chart #Microsoft #trading https://t.co/JvMNeQprjV
p79
aV2017-05-17 | RT @DanCarlson33: Market down? $VUZI closes higher. #augmentedreality is the Next Big Thing. Just ask $FB $GOOG $MSFT $SNAP &amp; $INTC.  https\u2026
p80
aV2017-05-17 | Technology Stock Roundup: MSFT Build, INTC Debt, AliPay, TWTR A.I. https://t.co/DiMsaKF1Gq $MSFT $AAPL $BABA $TWTR $INTC
p81
aV2017-05-17 | $MSFT:  New Insider Filing on  EVP, Chief Marketing Officer  CHRISTOPHER C CAPOSSELA:  https://t.co/avrzihFYqF
p82
aV2017-05-17 | RT @rickjnewman: Dude next to me at #SALT2017 is typing / tapping on a $MSFT Surface. My $AAPL Macbook feels archaic.
p83
aV2017-05-17 | Dude next to me at #SALT2017 is typing / tapping on a $MSFT Surface. My $AAPL Macbook feels archaic.
p84
aV2017-05-17 | Special Prosector appointed to oversea Russia Probe $SPY $IBB $NVDA $MSFT $AMZN $GOOG
p85
aV2017-05-17 | Where will highest tech long term investment ROI come from? $twtr $snap $goog $fb $msft $amzn $nflx $tsla
p86
aV2017-05-17 | The most attractive #Stocks in the lucrative machine learning field, $MSFT, $IBM, $AMZN: https://t.co/oEaMqu0Mk3 https://t.co/mPaG1Zilhe
p87
aV2017-05-17 | RT @JorelLaraKalel: Political jitters send stocks to worst losses since September $FB $AMZN $AAPL $MSFT $GOOGL https://t.co/4N5Wa8VJLV
p88
aV2017-05-17 | Market down? $VUZI closes higher. #augmentedreality is the Next Big Thing. Just ask $FB $GOOG $MSFT $SNAP &amp; $INTC.  https://t.co/zoPODhAg8k
p89
aV2017-05-17 | Flows: Buying on Weakness: Among stocks that were down WED, these have the largest net INFLOWS of money: $AAPL $EFA\u2026 https://t.co/Wy9anL8uih
p90
aV2017-05-17 | Fearing Shadow Brokers leak, NSA reported critical flaw to Microsoft https://t.co/2bgQjRco2n $MSFT
p91
aV2017-05-17 | RT @greavespg: Metzner: Ex. $MSFT runs billions of dollars through #PuertoRico, not being discussed. Increasing taxes on foreign corporatio\u2026
p92
aV2017-05-17 | Political jitters send stocks to worst losses since September $FB $AMZN $AAPL $MSFT $GOOGL https://t.co/4N5Wa8VJLV
p93
aV2017-05-17 | $GOOGL $KCG $VIRT $MSFT:  Alphabet Chairman Talks Up Machine Learning to Combat High \u2026:  https://t.co/OxhIkmQcOk
p94
aV2017-05-17 | RT @zerofiltertruth: Mystery period $TWTR shorts just got lot more miserable   $AAPL $AMZN $MSFT $VZ $IBM @jimcramer $FB $SNAP  @jack @anth\u2026
p95
aV2017-05-17 | @awesom_o $MSFT is a good "extra stock" they like to throw in these days too
p96
aV2017-05-17 | RT @greavespg: Metzner: Ex. $MSFT runs billions of dollars through #PuertoRico, not being discussed. Increasing taxes on foreign corporatio\u2026
p97
aV2017-05-17 | likely redistribution $AAPL $FB $AMZN $NFLX $GOOGL $MSFT gains into rest of market with similar gross margin &amp; growth prospects like $BBRY \U0001f914
p98
aV2017-05-17 | Mystery period $TWTR shorts just got lot more miserable   $AAPL $AMZN $MSFT $VZ $IBM @jimcramer $FB $SNAP  @jack\u2026 https://t.co/FDv6zmX6Yx
p99
aV2017-05-17 | Metzner: Ex. $MSFT runs billions of dollars through #PuertoRico, not being discussed. Increasing taxes on foreign corporations could help
p100
aV2017-05-17 | Sanford C. Bernstein reiterated Microsoft $MSFT at Outperform. This 5yr DCF shows nice Upside\u2026 https://t.co/WkLHGHgcvG
p101
aV2017-05-17 | RT @davemcclure: Chart: How Top 5 Tech Giants Make Their Billions https://t.co/DnYCQ7uWRe by @VisualCap $AAPL $GOOG $MSFT $AMZN $FB cc @500\u2026
p102
aV2017-05-17 | $MSFT Down 2.6% Today. Microsoft Stock Analysis: https://t.co/TFUMPzKFN5 via @KenFaulkenberry #dividend #technology\u2026 https://t.co/K59YrnZls3
p103
aV2017-05-17 | $QQQ =  $AAPL 12.35% $MSFT 8.12% $AMZN 6.98% $FB 5.34% $GOOGL A/C 9.3% $CMCSA 2.78% $CSCO 2.6%  $QQQ 50SMA: 133.52\u2026 https://t.co/nkDEuP0xC4
p104
aV2017-05-17 | $MSFT Next NSA Exploit Payload Could be Much Worse Than the Ransomware Wana.Crypt. https://t.co/NdGnO8tvx1 #Security #Politics
p105
aV2017-05-17 | RT @Briefingcom: Near-Term Risk Is Elevated https://t.co/kqPllvtJOR #Economy #Markets #Stocks #TheBigPicture $AAPL $AMZN $MSFT $F $NDX $GOO\u2026
p106
aV2017-05-17 | The #NSA\u2019s leaked #Windows hack caused more damage than just #WannaCry https://t.co/UvNuiEx3Hs #Microsoft $MSFT
p107
aV2017-05-17 | 3 Stocks That Feel Like Microsoft in 1986 @themotleyfool #stocks $NTES, $MSFT, $WDAY, $TSLA https://t.co/oMuHnm3G5Y
p108
aV2017-05-17 | Near-Term Risk Is Elevated https://t.co/kqPllvtJOR #Economy #Markets #Stocks #TheBigPicture $AAPL $AMZN $MSFT $F $NDX $GOOG $SPY $RUT $COMPQ
p109
aV2017-05-17 | Flipped $MSFT inverted strangle that I was assigned on into a regular strangle: https://t.co/BWHJ8WY0bK
p110
aV2017-05-17 | today was a day to buy \U0001f6d2 not a day to panic  $GS $AAPL $MSFT
p111
aV2017-05-17 | $MSFT Todays trading with Microsoft Corporation for $67.48 on date May 17, 2017. #Finance
p112
aV2017-05-17 | RT @AdaptToReality: Big Out Flows  $BAC $JPM $WFC  $AAPL $MSFT  $CVX $RDS-A  $GE  $T
p113
aV2017-05-17 | Top #money flow today. Free stocks app https://t.co/5RPia7Qmp0 $QQQ, $SPY, $AAPL, $IWM, $VGT, $EFA, $AMZN, $MSFT,\u2026 https://t.co/csJFyum5gE
p114
aV2017-05-17 | Adding some $MSFT on the close last minute #NoNutsNoGlory #TeamBallmer @Steven_Ballmer
p115
aV2017-05-17 | $BAH $MSFT:  4 Cybersecurity Stocks to Buy After \u2018WannaCry\u2019:  https://t.co/GJn2QiW6fh
p116
aV2017-05-17 | Four tech heavyweights make up a huge share of the S&amp;P 500.  $AMZN $MSFT $AAPL $FB https://t.co/aM0Au78egE
p117
aV2017-05-17 | \u2026\u2026..why not appoint CEO of $INTC, $GOOG $MSFT etc? https://t.co/41k4lPKl2j
p118
aV2017-05-17 | $AAPL $MSFT $FB:  Four tech heavyweights make up a huge share of the S&amp;P 500:  https://t.co/FfSZh2WFdg
p119
aV2017-05-17 | RT @CNBCClosingBell: Stocks dragging down the Dow: $GS $JPM $AAPL $DD $MSFT https://t.co/sKOsrQjDUV
p120
aV2017-05-17 | Big Out Flows  $BAC $JPM $WFC  $AAPL $MSFT  $CVX $RDS-A  $GE  $T
p121
aV2017-05-17 | Microsoft Co. $MSFT Earns Hold Rating from Canaccord Genuity https://t.co/x4BqvUeOMe
p122
aV2017-05-17 | RT @CNBCClosingBell: Stocks dragging down the Dow: $GS $JPM $AAPL $DD $MSFT https://t.co/sKOsrQjDUV
p123
aV2017-05-17 | RT @CNBCClosingBell: Stocks dragging down the Dow: $GS $JPM $AAPL $DD $MSFT https://t.co/sKOsrQjDUV
p124
aV2017-05-17 | RT @CNBCClosingBell: Stocks dragging down the Dow: $GS $JPM $AAPL $DD $MSFT https://t.co/sKOsrQjDUV
p125
aV2017-05-17 | Stocks dragging down the Dow: $GS $JPM $AAPL $DD $MSFT https://t.co/sKOsrQjDUV
p126
aV2017-05-17 | Microsoft Co. $MSFT Earns Hold Rating from Canaccord Genuity https://t.co/4HL9587BJj
p127
aV2017-05-17 | Microsoft Co. $MSFT Earns Hold Rating from Canaccord Genuity https://t.co/hKws7L2lIb
p128
aV2017-05-17 | $IWM / $RUT Daily Sell $VIX $NDX $QQQ $NQ_F $ES_F $SPY $SPX $IBM $TF_F $MSFT $GOOG $FB $DJI @cnbc $HD $NFLX $AAPL\u2026 https://t.co/fXzL9imvSg
p129
aV2017-05-17 | $GOOGL $MSFT $FB $AAPL:  Google Launches Job Search Feature:  https://t.co/gA9sEC6R4g
p130
aV2017-05-17 | $RUT TEST of 2017 LOWS $VIX $NDX $QQQ $NQ_F $ES_F $SPY $SPX $IBM $TF_F $MSFT $GOOG $FB $DJI @cnbc $HD $NFLX $AAPL\u2026 https://t.co/TQbR1m5TUz
p131
aV2017-05-17 | $GOOGL with BIG AMBITIONS in #AI #CLOUD  Impact on $AMZN $NVDA $MSFT $INTC $IBM https://t.co/iU5gjmmY5F
p132
aV2017-05-17 | @VendbienJon @NotaBubble @7wtc @yusschr @larry_kudlow Fed will continue to raise rates, so Banks will do better. Do\u2026 https://t.co/hesTZQk8Xf
p133
aV2017-05-17 | 3 Stocks That Feel Like Microsoft in 1986 @themotleyfool #stocks $NTES, $MSFT, $WDAY, $TSLA https://t.co/S1Ea6IQMnI
p134
aV2017-05-17 | RT @davemcclure: Chart: How Top 5 Tech Giants Make Their Billions https://t.co/DnYCQ7uWRe by @VisualCap $AAPL $GOOG $MSFT $AMZN $FB cc @500\u2026
p135
aV2017-05-17 | Recent Investments: $SHOP $SQ $CLDR  Market is down today so I'm debating if I should buy $MSFT $TMUS $TSLA &amp; $TWTR. $TWTR is most tempting
p136
aV2017-05-17 | RT @TickerCandy: #Tech #nasdaq down 2.4%. You know you want to buy the dip...or do you? $NVDA $AAPL $NFLX $AMZN $MSFT $GOOG $AMD $SWKS $FB\u2026
p137
aV2017-05-17 | #Tech #nasdaq down 2.4%. You know you want to buy the dip...or do you? $NVDA $AAPL $NFLX $AMZN $MSFT $GOOG $AMD $SWKS $FB $TWTR $SNAP
p138
asI2
(lp139
V2017-05-16 | RT @pennystockspy: $MYSZ volume spike as it heads to test its HOD. IMO $DRYS $AEXE $DRSV $TSLA $MSFT $LEXG $AVOP $AMLH $BKD $ICNB $PGPM $SA\u2026
p140
aV2017-05-16 | RT @CNBCFastMoney: $MSFT is up 17% since @petenajarian's Fast Pitch in November https://t.co/moYTrFQviE
p141
aV2017-05-16 | RT @AwesomeStockTip: $MYSZ volume spike as it heads to test its HOD. IMO $DRYS $AEXE $DRSV $TSLA $MSFT $LEXG $AVOP $AMLH $BKD $ICNB $PGPM $\u2026
p142
aV2017-05-16 | RT @AwesomeStockTip: $MYSZ volume spike as it heads to test its HOD. IMO $DRYS $AEXE $DRSV $TSLA $MSFT $LEXG $AVOP $AMLH $BKD $ICNB $PGPM $\u2026
p143
aV2017-05-16 | APPLE PLANS Laptop Upgrades to Take on Microsoft $AAPL $MSFT - BLOOMBERG https://t.co/zRT7vOkU6x
p144
aV2017-05-16 | APPLE PLANS Laptop Upgrades to Take on Microsoft $AAPL $MSFT - BLOOMBERG https://t.co/OpffPkCqSq
p145
aV2017-05-16 | Microsoft Build: Enterprise Remains The Focus https://t.co/law02ywe6g $MSFT #Investing
p146
aV2017-05-16 | RT @007stockchat: $MYSZ volume spike as it heads to test its HOD. IMO $DRYS $AEXE $DRSV $TSLA $MSFT $LEXG $AVOP $AMLH $BKD $ICNB $PGPM $SAN\u2026
p147
aV2017-05-16 | RT @007stockchat: $MYSZ volume spike as it heads to test its HOD. IMO $DRYS $AEXE $DRSV $TSLA $MSFT $LEXG $AVOP $AMLH $BKD $ICNB $PGPM $SAN\u2026
p148
aV2017-05-16 | RT @pennystockspy: $MYSZ volume spike as it heads to test its HOD. IMO $DRYS $AEXE $DRSV $TSLA $MSFT $LEXG $AVOP $AMLH $BKD $ICNB $PGPM $SA\u2026
p149
aV2017-05-16 | RT @007stockchat: $MYSZ volume spike as it heads to test its HOD. IMO $DRYS $AEXE $DRSV $TSLA $MSFT $LEXG $AVOP $AMLH $BKD $ICNB $PGPM $SAN\u2026
p150
aV2017-05-16 | Free video w/setups for May 17 "Not Quite What I Expected" $CMG $FB $MSFT $CRUS $C $AMZN https://t.co/F3ScCSKHEQ
p151
aV2017-05-16 | RT @pennystockspy: $MYSZ volume spike as it heads to test its HOD. IMO $DRYS $AEXE $DRSV $TSLA $MSFT $LEXG $AVOP $AMLH $BKD $ICNB $PGPM $SA\u2026
p152
aV2017-05-16 | RT @CNBCFastMoney: $MSFT is up 17% since @petenajarian's Fast Pitch in November https://t.co/moYTrFQviE
p153
aV2017-05-16 | RT @pennystockspy: $MYSZ volume spike as it heads to test its HOD. IMO $DRYS $AEXE $DRSV $TSLA $MSFT $LEXG $AVOP $AMLH $BKD $ICNB $PGPM $SA\u2026
p154
aV2017-05-16 | RT @AwesomeStockTip: $MYSZ volume spike as it heads to test its HOD. IMO $DRYS $AEXE $DRSV $TSLA $MSFT $LEXG $AVOP $AMLH $BKD $ICNB $PGPM $\u2026
p155
aV2017-05-16 | RT @AwesomeStockTip: $MYSZ volume spike as it heads to test its HOD. IMO $DRYS $AEXE $DRSV $TSLA $MSFT $LEXG $AVOP $AMLH $BKD $ICNB $PGPM $\u2026
p156
aV2017-05-16 | Stocks Turn Deaf Ear Toward Washington Chaos - https://t.co/J4fG1AhYB7 $SPY $DIA $QQQ $USO $HD $MSFT #stocks\u2026 https://t.co/oVK24I1ckR
p157
aV2017-05-16 | RT @pennystockspy: $MYSZ volume spike as it heads to test its HOD. IMO $DRYS $AEXE $DRSV $TSLA $MSFT $LEXG $AVOP $AMLH $BKD $ICNB $PGPM $SA\u2026
p158
aV2017-05-16 | RT @WallStJesus: \U0001f525 TODAY'S ACTIVE FLOW &gt;&gt;  $AMD $AAPL $BABA $NVDA $TWTR $C $BAC $FB $AMZN $SNAP $MSFT $TGT $F $VRX $M $YHOO $HD $GE $VZ $MU\u2026
p159
aV2017-05-16 | RT @pennystockspy: $MYSZ volume spike as it heads to test its HOD. IMO $DRYS $AEXE $DRSV $TSLA $MSFT $LEXG $AVOP $AMLH $BKD $ICNB $PGPM $SA\u2026
p160
aV2017-05-16 | RT @pennystockspy: $MYSZ volume spike as it heads to test its HOD. IMO $DRYS $AEXE $DRSV $TSLA $MSFT $LEXG $AVOP $AMLH $BKD $ICNB $PGPM $SA\u2026
p161
aV2017-05-16 | RT @WallStJesus: \U0001f525 TODAY'S ACTIVE FLOW &gt;&gt;  $AMD $AAPL $BABA $NVDA $TWTR $C $BAC $FB $AMZN $SNAP $MSFT $TGT $F $VRX $M $YHOO $HD $GE $VZ $MU\u2026
p162
aV2017-05-16 | RT @AwesomeStockTip: $MYSZ volume spike as it heads to test its HOD. IMO $DRYS $AEXE $DRSV $TSLA $MSFT $LEXG $AVOP $AMLH $BKD $ICNB $PGPM $\u2026
p163
aV2017-05-16 | RT @WallStJesus: \U0001f525 TODAY'S ACTIVE FLOW &gt;&gt;  $AMD $AAPL $BABA $NVDA $TWTR $C $BAC $FB $AMZN $SNAP $MSFT $TGT $F $VRX $M $YHOO $HD $GE $VZ $MU\u2026
p164
aV2017-05-16 | RT @WallStJesus: \U0001f525 TODAY'S ACTIVE FLOW &gt;&gt;  $AMD $AAPL $BABA $NVDA $TWTR $C $BAC $FB $AMZN $SNAP $MSFT $TGT $F $VRX $M $YHOO $HD $GE $VZ $MU\u2026
p165
aV2017-05-16 | \U0001f525 TODAY'S ACTIVE FLOW &gt;&gt;  $AMD $AAPL $BABA $NVDA $TWTR $C $BAC $FB $AMZN $SNAP $MSFT $TGT $F $VRX $M $YHOO $HD $GE\u2026 https://t.co/6FoWgKMLrw
p166
aV2017-05-16 | RT @AwesomeStockTip: $MYSZ volume spike as it heads to test its HOD. IMO $DRYS $AEXE $DRSV $TSLA $MSFT $LEXG $AVOP $AMLH $BKD $ICNB $PGPM $\u2026
p167
aV2017-05-16 | Watch List for 5/17/17 $MSFT $VRTX $PSX $EDIT $FB $MNST $SPY https://t.co/Gx5KDrVESp
p168
aV2017-05-16 | $MSFT:  New Insider Filing on  Executive Vice President  JEAN PHILIPPE COURTOIS:  https://t.co/oLin1yKfQ7
p169
aV2017-05-16 | $MSFT New SEC Document(s) for Microsoft Corporation From our Stock News Alerts App
p170
aV2017-05-16 | RT @pennystockspy: $MYSZ volume spike as it heads to test its HOD. IMO $DRYS $AEXE $DRSV $TSLA $MSFT $LEXG $AVOP $AMLH $BKD $ICNB $PGPM $SA\u2026
p171
aV2017-05-16 | RT @pennystockspy: $MYSZ volume spike as it heads to test its HOD. IMO $DRYS $AEXE $DRSV $TSLA $MSFT $LEXG $AVOP $AMLH $BKD $ICNB $PGPM $SA\u2026
p172
aV2017-05-16 | RT @pennystockspy: $MYSZ volume spike as it heads to test its HOD. IMO $DRYS $AEXE $DRSV $TSLA $MSFT $LEXG $AVOP $AMLH $BKD $ICNB $PGPM $SA\u2026
p173
aV2017-05-16 | RT @pennystockspy: $MYSZ volume spike as it heads to test its HOD. IMO $DRYS $AEXE $DRSV $TSLA $MSFT $LEXG $AVOP $AMLH $BKD $ICNB $PGPM $SA\u2026
p174
aV2017-05-16 | RT @sniiper_trader: $AAPL $ABX $AMD $AMX $BAC $CCJ $CS $MS $MU $NFLX $NOK $RBS $VRTX $X $SPY $AMZN $MSFT $TWTR $GOOGL $INTC $CLF $X $AKS $R\u2026
p175
aV2017-05-16 | RT @pennystockspy: $MYSZ volume spike as it heads to test its HOD. IMO $DRYS $AEXE $DRSV $TSLA $MSFT $LEXG $AVOP $AMLH $BKD $ICNB $PGPM $SA\u2026
p176
aV2017-05-16 | RT @007stockchat: $MYSZ volume spike as it heads to test its HOD. IMO $DRYS $AEXE $DRSV $TSLA $MSFT $LEXG $AVOP $AMLH $BKD $ICNB $PGPM $SAN\u2026
p177
aV2017-05-16 | Tuesdays Chart Breakouts  https://t.co/M1OrYwgCWm  $AMD $MSFT $C $BBRY $YHOO $ETSY $BABA $WB $MOMO https://t.co/ZddnBeHjfR
p178
aV2017-05-16 | RT @market_fox: How $AAPL, $GOOGL, $AMZN $MSFT &amp; $FB make their money: https://t.co/5XO8rSmo6Z https://t.co/kcqZHNYtp3
p179
aV2017-05-16 | RT @pennystockspy: $MYSZ volume spike as it heads to test its HOD. IMO $DRYS $AEXE $DRSV $TSLA $MSFT $LEXG $AVOP $AMLH $BKD $ICNB $PGPM $SA\u2026
p180
aV2017-05-16 | RT @pennystockspy: $MYSZ volume spike as it heads to test its HOD. IMO $DRYS $AEXE $DRSV $TSLA $MSFT $LEXG $AVOP $AMLH $BKD $ICNB $PGPM $SA\u2026
p181
aV2017-05-16 | The 10 Best Growth Stocks for Retirement https://t.co/uu7AG88Ora $V $MSFT $GOOGL $AMZN $FB $UPS $BRK.B $HD $SBUX $NKE
p182
aV2017-05-16 | BlackBerry working with automakers on anti-hack tool -analyst.Reuters.  @BlackBerry $BBRY #Jaguars $AAPL $MSFT\u2026 https://t.co/c1sRmq7zbz
p183
aV2017-05-16 | 4 Big Tech Stocks That Are Making a Charge https://t.co/DZgD6yOIG3  https://t.co/z5RFKzeKmb $AMZN $MSFT $NVDA $TWTR
p184
aV2017-05-16 | Here are 3 tech laggards you can still buy: Technician https://t.co/Lc5rmZwfB9  $MSFT, $BABA, $WDAY
p185
aV2017-05-16 | RT @AwesomeStockTip: $MYSZ volume spike as it heads to test its HOD. IMO $DRYS $AEXE $DRSV $TSLA $MSFT $LEXG $AVOP $AMLH $BKD $ICNB $PGPM $\u2026
p186
aV2017-05-16 | RT @pennystockspy: $MYSZ volume spike as it heads to test its HOD. IMO $DRYS $AEXE $DRSV $TSLA $MSFT $LEXG $AVOP $AMLH $BKD $ICNB $PGPM $SA\u2026
p187
aV2017-05-16 | RT @pennystockspy: $MYSZ volume spike as it heads to test its HOD. IMO $DRYS $AEXE $DRSV $TSLA $MSFT $LEXG $AVOP $AMLH $BKD $ICNB $PGPM $SA\u2026
p188
aV2017-05-16 | RT @MaglanCapital: $GSAT Sum of the Parts Valuation- $10++ Buyers: $T $VZ $S $TMUS $CHTR $CMCSA $AMZN $MSFT $GOOG $AAPL $FB $NFLX   #Spectr\u2026
p189
aV2017-05-16 | RT @pennystockspy: $MYSZ volume spike as it heads to test its HOD. IMO $DRYS $AEXE $DRSV $TSLA $MSFT $LEXG $AVOP $AMLH $BKD $ICNB $PGPM $SA\u2026
p190
aV2017-05-16 | #Facebook, the #Zune of #faceFilters $SNAP $MSFT $FB $TWTR https://t.co/KJIg21g0oP
p191
aV2017-05-16 | RT @AwesomeStockTip: $MYSZ volume spike as it heads to test its HOD. IMO $DRYS $AEXE $DRSV $TSLA $MSFT $LEXG $AVOP $AMLH $BKD $ICNB $PGPM $\u2026
p192
aV2017-05-16 | $GSAT Sum of the Parts Valuation- $10++ Buyers: $T $VZ $S $TMUS $CHTR $CMCSA $AMZN $MSFT $GOOG $AAPL $FB $NFLX\u2026 https://t.co/AgjjP9UFzo
p193
aV2017-05-16 | RT @pennystockspy: $MYSZ volume spike as it heads to test its HOD. IMO $DRYS $AEXE $DRSV $TSLA $MSFT $LEXG $AVOP $AMLH $BKD $ICNB $PGPM $SA\u2026
p194
aV2017-05-16 | Digital Assistants Drive New Meta-Platform Battle $AMZN $FB $GOOG $GOOGL $MSFT $AAPL $SSNLF https://t.co/uNSWk9drqH\u2026 https://t.co/bfwgHGdEMk
p195
aV2017-05-16 | RT @pennystockspy: $MYSZ volume spike as it heads to test its HOD. IMO $DRYS $AEXE $DRSV $TSLA $MSFT $LEXG $AVOP $AMLH $BKD $ICNB $PGPM $SA\u2026
p196
aV2017-05-16 | RT @pennystockspy: $MYSZ volume spike as it heads to test its HOD. IMO $DRYS $AEXE $DRSV $TSLA $MSFT $LEXG $AVOP $AMLH $BKD $ICNB $PGPM $SA\u2026
p197
aV2017-05-16 | @BalajiSivan The strength in $QQQ $AMZN $AAPL $GOOG $MSFT $FB shows the direction of the market. $SPX going higher.\u2026 https://t.co/ny6xfYvaTe
p198
aV2017-05-16 | @bryanyuBC Last time I checked Seattle has $MSFT $AMZN and many other huge tech co's - Van barely has a corner stor\u2026 https://t.co/Pn5lpf5bXT
p199
aV2017-05-16 | RT @pennystockspy: $MYSZ volume spike as it heads to test its HOD. IMO $DRYS $AEXE $DRSV $TSLA $MSFT $LEXG $AVOP $AMLH $BKD $ICNB $PGPM $SA\u2026
p200
aV2017-05-16 | RT @ManUtdFv: @CNBCFastMoney @GuyAdami @petenajarian Finally coverage on $MSFT #GiddyUp
p201
aV2017-05-16 | RT @CNBCFastMoney: $MSFT is up 17% since @petenajarian's Fast Pitch in November https://t.co/moYTrFQviE
p202
aV2017-05-16 | @RichartRoss Go East Young Man $BABA $MSFT Look for year end Highs some Vol for summer. Good Call Ross The Boss
p203
aV2017-05-16 | Digital Assistants Drive New Meta-Platform Battle https://t.co/JELcYUl5a7 $AMZN $FB $GOOG $GOOGL $MSFT $AAPL $SSNLF
p204
aV2017-05-16 | Digital Assistants Drive New Meta-Platform Battle https://t.co/VQPWmVKzGA $AMZN $FB $GOOG $GOOGL $MSFT $AAPL $SSNLF
p205
aV2017-05-16 | RT @CNBCFastMoney: $MSFT is up 17% since @petenajarian's Fast Pitch in November https://t.co/moYTrFQviE
p206
aV2017-05-16 | RT @pennystockspy: $MYSZ volume spike as it heads to test its HOD. IMO $DRYS $AEXE $DRSV $TSLA $MSFT $LEXG $AVOP $AMLH $BKD $ICNB $PGPM $SA\u2026
p207
aV2017-05-16 | $MSFT $BABA $WDAY...  10-4, over &amp; out.
p208
aV2017-05-16 | RT @CNBCFastMoney: $MSFT is up 17% since @petenajarian's Fast Pitch in November https://t.co/moYTrFQviE
p209
aV2017-05-16 | RT @AwesomeStockTip: $MYSZ volume spike as it heads to test its HOD. IMO $DRYS $AEXE $DRSV $TSLA $MSFT $LEXG $AVOP $AMLH $BKD $ICNB $PGPM $\u2026
p210
aV2017-05-16 | @CNBCFastMoney @GuyAdami @petenajarian Finally coverage on $MSFT #GiddyUp
p211
aV2017-05-16 | RT @CNBCFastMoney: $MSFT is up 17% since @petenajarian's Fast Pitch in November https://t.co/moYTrFQviE
p212
aV2017-05-16 | The top five stocks that gained today were $AMD, QRVO, $YHOO, $MSFT, and $BFB.
p213
aV2017-05-16 | The top five most active stocks today were $AMD, $BAC, $F, $PFE, and $MSFT.
p214
aV2017-05-16 | $MSFT is up 17% since @petenajarian's Fast Pitch in November https://t.co/moYTrFQviE
p215
aV2017-05-16 | RT @pennystockspy: $MYSZ volume spike as it heads to test its HOD. IMO $DRYS $AEXE $DRSV $TSLA $MSFT $LEXG $AVOP $AMLH $BKD $ICNB $PGPM $SA\u2026
p216
aV2017-05-16 | RT @007stockchat: $MYSZ volume spike as it heads to test its HOD. IMO $DRYS $AEXE $DRSV $TSLA $MSFT $LEXG $AVOP $AMLH $BKD $ICNB $PGPM $SAN\u2026
p217
aV2017-05-16 | RT @pennystockspy: $MYSZ volume spike as it heads to test its HOD. IMO $DRYS $AEXE $DRSV $TSLA $MSFT $LEXG $AVOP $AMLH $BKD $ICNB $PGPM $SA\u2026
p218
aV2017-05-16 | RT @davemcclure: Chart: How Top 5 Tech Giants Make Their Billions https://t.co/DnYCQ7uWRe by @VisualCap $AAPL $GOOG $MSFT $AMZN $FB cc @500\u2026
p219
aV2017-05-16 | RT @AwesomeStockTip: $MYSZ volume spike as it heads to test its HOD. IMO $DRYS $AEXE $DRSV $TSLA $MSFT $LEXG $AVOP $AMLH $BKD $ICNB $PGPM $\u2026
p220
aV2017-05-16 | $MSFT Up 1.4% Today. Microsoft Stock Analysis: https://t.co/TFUMPzKFN5 via @KenFaulkenberry #dividend #technology\u2026 https://t.co/MsWVmKYvXA
p221
aV2017-05-16 | RT @HedgeMind: 10 most popular stocks among hedge funds: $FB $CHTR $BAC $AMZN $MSFT $GOOG $V $BABA $AAPL $TWX https://t.co/bbzdGjKgQX
p222
aV2017-05-16 | $AAPL $INTC $MSFT:  Apple Expected to Release Three New Laptops in Summer 2017:  https://t.co/awlAp7VUYW
p223
aV2017-05-16 | \u201cIt takes 20 years to build a reputation and 5 minutes to ruin it. \u201d \u2013 Warren Buffett $KO $MSFT #STOCKS
p224
aV2017-05-16 | RT @questCNN: #Microsoft: Governments shouldn't 'hoard vulnerabilities' $MSFT President @BradSmi talks to @richardquest https://t.co/JozHQt\u2026
p225
aV2017-05-16 | RT @davemcclure: Chart: How Top 5 Tech Giants Make Their Billions https://t.co/DnYCQ7uWRe by @VisualCap $AAPL $GOOG $MSFT $AMZN $FB cc @500\u2026
p226
aV2017-05-16 | RT @007stockchat: $MYSZ volume spike as it heads to test its HOD. IMO $DRYS $AEXE $DRSV $TSLA $MSFT $LEXG $AVOP $AMLH $BKD $ICNB $PGPM $SAN\u2026
p227
aV2017-05-16 | RT @pennystockspy: $MYSZ volume spike as it heads to test its HOD. IMO $DRYS $AEXE $DRSV $TSLA $MSFT $LEXG $AVOP $AMLH $BKD $ICNB $PGPM $SA\u2026
p228
aV2017-05-16 | RT @007stockchat: $MYSZ volume spike as it heads to test its HOD. IMO $DRYS $AEXE $DRSV $TSLA $MSFT $LEXG $AVOP $AMLH $BKD $ICNB $PGPM $SAN\u2026
p229
aV2017-05-16 | RT @TheMrDev: Re RUT $RUT 1030~11am morning window watch $IWM $VIX $NDX $QQQ $NQ_F $ES_F $SPY $SPX $IBM $TF_F $MSFT $GOOG $FB $DJI @cnbc $H\u2026
p230
aV2017-05-16 | RT @pennystockspy: $MYSZ volume spike as it heads to test its HOD. IMO $DRYS $AEXE $DRSV $TSLA $MSFT $LEXG $AVOP $AMLH $BKD $ICNB $PGPM $SA\u2026
p231
aV2017-05-16 | RT @pennystockspy: $MYSZ volume spike as it heads to test its HOD. IMO $DRYS $AEXE $DRSV $TSLA $MSFT $LEXG $AVOP $AMLH $BKD $ICNB $PGPM $SA\u2026
p232
aV2017-05-16 | RT @007stockchat: $MYSZ volume spike as it heads to test its HOD. IMO $DRYS $AEXE $DRSV $TSLA $MSFT $LEXG $AVOP $AMLH $BKD $ICNB $PGPM $SAN\u2026
p233
asI3
(lp234
V2017-05-15 | Wonder if the Harmon Kardon #Invoke will be designed to produce surround sound for #VR? $MSFT #AI https://t.co/hoZ2nmR2aM
p235
aV2017-05-15 | $MSFT Cyber attack could spark lawsuits but not against Microsoft https://t.co/BkgDpe0VuO
p236
aV2017-05-15 | $MSFT:  Cyber attack could spark lawsuits but not against Microsoft:  https://t.co/n90w2szsvh
p237
aV2017-05-15 | So, $YHOO closed today at $49.86 ($47.7bn Market Cap). Suddenly, rejecting $MSFT bid in 2008 wasn\u2019t such a bad idea\u2026 https://t.co/RkNPJfXSS1
p238
aV2017-05-15 | @DHSgov @realDonaldTrump My notepad suddenly works great after attack demanding$. hmm $msft needs to ck grn card loyal emp #bitcoin accts?
p239
aV2017-05-15 | RT @questCNN: #Microsoft: Governments shouldn't 'hoard vulnerabilities' $MSFT President @BradSmi talks to @richardquest https://t.co/JozHQt\u2026
p240
aV2017-05-15 | Ever awakened thinking: "Is $MSFT breaking out?" Fullfill your morning thoughts at https://t.co/W0Gg2BBZui #Breakout #coding #3amDT
p241
aV2017-05-15 | Microsoft Co. $MSFT Given New $80.00 Price Target at Deutsche Bank AG https://t.co/I8l5Vy4fiu
p242
aV2017-05-15 | Microsoft Co. $MSFT Given New $80.00 Price Target at Deutsche Bank AG https://t.co/R8KR1OT5TX
p243
aV2017-05-15 | RT @rimisback: Let's see who can help fight Cyber Warfare, need of the hour $BBRY $AAPL $MSFT $GOOGL  $AMZN  @Apple @google @amazon @Micros\u2026
p244
aV2017-05-15 | $RPD software to scan for #wannacry #wannacrypt malware on your $MSFT desktop. https://t.co/BuYXyZVsnD
p245
aV2017-05-15 | Microsoft Build: Enterprise Remains The Focus https://t.co/n7gETBbgMq $MSFT
p246
aV2017-05-15 | RT @davemcclure: Chart: How Top 5 Tech Giants Make Their Billions https://t.co/DnYCQ7uWRe by @VisualCap $AAPL $GOOG $MSFT $AMZN $FB cc @500\u2026
p247
aV2017-05-15 | RT @mchilberg: $MSFT taking preorders for WIndows Mixed Reality developer kits says a lot to competition #AR #VR #IoT #Smarthome https://t.\u2026
p248
aV2017-05-15 | $msft https://t.co/6mDfdWhbkH
p249
aV2017-05-15 | Keep up with payments made via #bitcoin in real time. $MSFT users effected due to #wannacry #wannacrypt malware. Found here-&gt;@actual_ransom
p250
aV2017-05-15 | RT @mchilberg: $MSFT taking preorders for WIndows Mixed Reality developer kits says a lot to competition #AR #VR #IoT #Smarthome https://t.\u2026
p251
aV2017-05-15 | $MSFT taking preorders for WIndows Mixed Reality developer kits says a lot to competition #AR #VR #IoT #Smarthome https://t.co/goTAgNEEKp
p252
aV2017-05-15 | Business Highlights $MSFT https://t.co/krWWnsGl1k
p253
aV2017-05-15 | This chart makes Apple, Facebook and Alphabet look like one-trick ponies https://t.co/nnOhT6zgSI $AAPL $FB $GOOGL $MSFT $AMZN
p254
aV2017-05-15 | @StrangestTribeX I see, so no legal barriers. But still a grey zone, no? Eg if VA took a stake in $GOOG, imagine pr\u2026 https://t.co/jbyUQUO3mS
p255
aV2017-05-15 | $MSFT Windows 10 aka Windows as a Service slowed after free period.  Next come enterprises spurred by #WannaCry\u2026 https://t.co/oAwxwiTDTr
p256
aV2017-05-15 | Microsoft $MSFT should benefit from this cyber security more than security comps. All the XP bums will need to pay up to MS for a modern OS.
p257
aV2017-05-15 | RT @davemcclure: Chart: How Top 5 Tech Giants Make Their Billions https://t.co/DnYCQ7uWRe by @VisualCap $AAPL $GOOG $MSFT $AMZN $FB cc @500\u2026
p258
aV2017-05-15 | RT @questCNN: #Microsoft: Governments shouldn't 'hoard vulnerabilities' $MSFT President @BradSmi talks to @richardquest https://t.co/JozHQt\u2026
p259
aV2017-05-15 | #Microsoft: Governments shouldn't 'hoard vulnerabilities' $MSFT President @BradSmi talks to @richardquest https://t.co/JozHQtCcWa @CNNMoney
p260
aV2017-05-15 | RT @GVAResearch: #Ransomware looking at #bitcoin for a pay day: https://t.co/QwpbfGvVw2 - Interviewed by @HainsworthTV on @BNN #cyberattack\u2026
p261
aV2017-05-15 | RT @GVAResearch: #Ransomware looking at #bitcoin for a pay day: https://t.co/QwpbfGvVw2 - Interviewed by @HainsworthTV on @BNN #cyberattack\u2026
p262
aV2017-05-15 | RT @GVAResearch: #Ransomware looking at #bitcoin for a pay day: https://t.co/QwpbfGvVw2 - Interviewed by @HainsworthTV on @BNN #cyberattack\u2026
p263
aV2017-05-15 | I wonder if ValueAct is permitted to buy shares of tech companies that compete with $MSFT. Probably not as long as Morfit is on board.
p264
aV2017-05-15 | Apple $AAPL sell the news that Buffett bought in full force. 7-8% pullback is another buying opportunity as long as $MSFT doesn't break.
p265
aV2017-05-15 | Microsoft Build: Enterprise Remains The Focus $MSFT #MICROSOFT #WINDOWS https://t.co/MxTfU5i6Bv #Investing #Stocks
p266
aV2017-05-15 | $MSFT:  Microsoft Build: Enterprise Remains The Focus:  https://t.co/x7S5uT7tmg
p267
aV2017-05-15 | Microsoft Build: Enterprise Remains The Focus https://t.co/Ztj8NANyxR $MSFT #MICROSOFT #WINDOWS
p268
aV2017-05-15 | Microsoft Build: Enterprise Remains The Focus https://t.co/NhG80heQpi $MSFT #MICROSOFT #WINDOWS
p269
aV2017-05-15 | Check out how I managed the risk during a bad market, and remained profitable throughout. $MSFT $YHOO $SPY $QQQ $FB https://t.co/1hAwHiYfp4
p270
aV2017-05-15 | $AMD $MSFT $UAL $PENN $LULU $CAT we can add $SNAP to that list.  https://t.co/VUq9JCAA3f
p271
aV2017-05-15 | Microsoft Co. $MSFT Given Hold Rating at Canaccord Genuity https://t.co/hHH0d8npgs
p272
aV2017-05-15 | RT @bluff_capital: Some new positions at 3G: $STZ, $CVX, $APC, $LW. Some exits: $KMI, $COG. Some increases: $CMCSA, $CP, $MSFT
p273
aV2017-05-15 | Some new positions at 3G: $STZ, $CVX, $APC, $LW. Some exits: $KMI, $COG. Some increases: $CMCSA, $CP, $MSFT
p274
aV2017-05-15 | RT @rimisback: Let's see who can help fight Cyber Warfare, need of the hour $BBRY $AAPL $MSFT $GOOGL  $AMZN  @Apple @google @amazon @Micros\u2026
p275
aV2017-05-15 | #Ransomware looking at #bitcoin for a pay day: https://t.co/QwpbfGvVw2 - Interviewed by @HainsworthTV on @BNN #cyberattack #wannacry $MSFT
p276
aV2017-05-15 | RT @davemcclure: Chart: How Top 5 Tech Giants Make Their Billions https://t.co/DnYCQ7uWRe by @VisualCap $AAPL $GOOG $MSFT $AMZN $FB cc @500\u2026
p277
aV2017-05-15 | RT @davemcclure: Chart: How Top 5 Tech Giants Make Their Billions https://t.co/DnYCQ7uWRe by @VisualCap $AAPL $GOOG $MSFT $AMZN $FB cc @500\u2026
p278
aV2017-05-15 | RT @HedgeMind: Stanley Druckenmiller's top 10 holdings are all NEW picks but one: $MSFT $LYB $EEM $GOOGL $CRM $PCLN $AMZN $FB $ABX $EA.
p279
aV2017-05-15 | Scan results - 1,2,3 Pullback Bullish today: $EXAS $UBS $BURL $BZUN $HRC $MZOR $ANF $MSFT $JNPR $BOBE ... https://t.co/y1nHzEF9tw
p280
aV2017-05-15 | Jeff Kagan: Companies Trying to Claim Spot in AI Race by @equitiesinc https://t.co/E0bXmKN9h0 #AI $GOOGL $AAPL $MSFT
p281
aV2017-05-15 | Scan results - Hammer Candlestick today: $VVV $MSFT $LIVN $UNH $WIFI $PCSB $JKHY ... https://t.co/GMTDrifK40
p282
aV2017-05-15 | RT @CRN: Head-To-Head: Microsoft Surface Laptop Vs. Microsoft Surface Book https://t.co/bs98WbJ9fU $MSFT #SurfaceLaptop #SurfaceBook https:\u2026
p283
aV2017-05-15 | $FEYE $PFPT $QLYS $MSFT $FDX:  Cybersecurity Stocks the Big Winners on Monday in Wake of \u2026:  https://t.co/1kkI5aHPZB
p284
aV2017-05-15 | Podcast: Microsoft Build 2017 https://t.co/IOhkK8ERtF $MSFT #MICROSOFT #WINDOWS
p285
aV2017-05-15 | Podcast: Microsoft Build 2017 https://t.co/AQDJBL9E62 $MSFT #MICROSOFT #WINDOWS
p286
aV2017-05-15 | Most Active Stock Options For End Of Day May 15, 2017 \u2013  $SIRI, $MSFT, $AAPL, $AMD, $FMSA, $TMUS   -    https://t.co/Fn0JxqhZjs
p287
aV2017-05-15 | Q1 2017 Was The Peak In #Earnings Growth $DDS $JCP $JWN $M $TJX $WMT $AAPL $AMZN $MSFT $GOOGL $GPRO https://t.co/BXhIpCSB9R
p288
aV2017-05-15 | RT @davemcclure: Chart: How Top 5 Tech Giants Make Their Billions https://t.co/DnYCQ7uWRe by @VisualCap $AAPL $GOOG $MSFT $AMZN $FB cc @500\u2026
p289
aV2017-05-15 | $MSFT $TGT $JNJ:  Altria In The Garden Portfolio:  https://t.co/v2qKf5yNDt
p290
aV2017-05-15 | RT @StockTwits: The man who broke the Bank of England with George Soros holds these 10 stocks: https://t.co/Fa84z0kPSp  $MSFT $PCLN $EA $AM\u2026
p291
aV2017-05-15 | RT @StockTwits: The man who broke the Bank of England with George Soros holds these 10 stocks: https://t.co/Fa84z0kPSp  $MSFT $PCLN $EA $AM\u2026
p292
aV2017-05-15 | $MSFT seemed unaffected by worldwide jack.
p293
aV2017-05-15 | RT @StockTwits: The man who broke the Bank of England with George Soros holds these 10 stocks: https://t.co/Fa84z0kPSp  $MSFT $PCLN $EA $AM\u2026
p294
aV2017-05-15 | RT @davemcclure: Chart: How Top 5 Tech Giants Make Their Billions https://t.co/DnYCQ7uWRe by @VisualCap $AAPL $GOOG $MSFT $AMZN $FB cc @500\u2026
p295
aV2017-05-15 | $MSFT Former CIA officer explains how the US government decides to use some exploits... https://t.co/SMCGlZzJFw
p296
aV2017-05-15 | RT @HedgeMind: Stanley Druckenmiller's top 10 holdings are all NEW picks but one: $MSFT $LYB $EEM $GOOGL $CRM $PCLN $AMZN $FB $ABX $EA.
p297
aV2017-05-15 | $AAPL $HD $AMZN $GOOGL $JNJ $XOM $GS $C $JPM $KO $GE $GILD $BA $UTX $MA $BAC $MSFT $INTC $TSLA $NFLX $CSCO $DIS $PG\u2026 https://t.co/8YgOlfWjHI
p298
aV2017-05-15 | RT @HedgeMind: Stanley Druckenmiller's top 10 holdings are all NEW picks but one: $MSFT $LYB $EEM $GOOGL $CRM $PCLN $AMZN $FB $ABX $EA.
p299
aV2017-05-15 | RT @theflynews: Cybersecurity names surge following 'WannaCry' ransomware attack $MSFT $FTNT $CHKP $SYMC $PFPT $CYBR $FEYE $IMPV\u2026 https://t\u2026
p300
aV2017-05-15 | $MSFT's #Zune 2 development put on hold: The MP3 is dead, say creators after terminating licensing https://t.co/MkWnWMFkjz
p301
aV2017-05-15 | RT @HedgeMind: Stanley Druckenmiller's top 10 holdings are all NEW picks but one: $MSFT $LYB $EEM $GOOGL $CRM $PCLN $AMZN $FB $ABX $EA.
p302
aV2017-05-15 | RT @theflynews: Cybersecurity names surge following 'WannaCry' ransomware attack $MSFT $FTNT $CHKP $SYMC $PFPT $CYBR $FEYE $IMPV\u2026 https://t\u2026
p303
aV2017-05-15 | RT @Mkt5Challenge: The top five most active stocks today were $AMD, $BAC, $CHK, $GE, and $MSFT.
p304
aV2017-05-15 | The top five most active stocks today were $AMD, $BAC, $CHK, $GE, and $MSFT.
p305
aV2017-05-15 | RT @StockTwits: The man who broke the Bank of England with George Soros holds these 10 stocks: https://t.co/Fa84z0kPSp  $MSFT $PCLN $EA $AM\u2026
p306
aV2017-05-15 | RT @StockTwits: The man who broke the Bank of England with George Soros holds these 10 stocks: https://t.co/Fa84z0kPSp  $MSFT $PCLN $EA $AM\u2026
p307
aV2017-05-15 | StockTwits: The man who broke the Bank of England with George Soros holds these 10 stocks: https://t.co/OD8XctY6K2  $MSFT $PCLN $EA $AMZN \u2026
p308
aV2017-05-15 | $MSFT $TGT $JNJ:  Caterpillar In The Garden Portfolio:  https://t.co/fbjknSfDTF
p309
aV2017-05-15 | StockTwits: The man who broke the Bank of England with George Soros holds these 10 stocks: https://t.co/ifjGUpywMp  $MSFT $PCLN $EA $AMZN \u2026
p310
aV2017-05-15 | RT @StockTwits: The man who broke the Bank of England with George Soros holds these 10 stocks: https://t.co/Fa84z0kPSp  $MSFT $PCLN $EA $AM\u2026
p311
aV2017-05-15 | RT @StockTwits: The man who broke the Bank of England with George Soros holds these 10 stocks: https://t.co/Fa84z0kPSp  $MSFT $PCLN $EA $AM\u2026
p312
aV2017-05-15 | RT @StockTwits: The man who broke the Bank of England with George Soros holds these 10 stocks: https://t.co/Fa84z0kPSp  $MSFT $PCLN $EA $AM\u2026
p313
aV2017-05-15 | RT @StockTwits: The man who broke the Bank of England with George Soros holds these 10 stocks: https://t.co/Fa84z0kPSp  $MSFT $PCLN $EA $AM\u2026
p314
aV2017-05-15 | The man who broke the Bank of England with George Soros holds these 10 stocks: https://t.co/Fa84z0kPSp  $MSFT $PCLN $EA $AMZN $CRM
p315
aV2017-05-15 | RT @HedgeMind: Stanley Druckenmiller's top 10 holdings are all NEW picks but one: $MSFT $LYB $EEM $GOOGL $CRM $PCLN $AMZN $FB $ABX $EA.
p316
aV2017-05-15 | $MSFT Todays trading with Microsoft Corporation for $68.43 on date May 15, 2017. #Finance
p317
asI4
(lp318
sI5
(lp319
sI6
(lp320
sI7
(lp321
sI8
(lp322
sI9
(lp323
sI10
(lp324
sI11
(lp325
sI12
(lp326
sI13
(lp327
sI14
(lp328
sI15
(lp329
sI16
(lp330
sI17
(lp331
sI18
(lp332
s.