(dp0
I0
(lp1
V2017-05-18 | UK Web security push paves way for 'Facebook tax' $FB $TWTR $GOOG $GOOGL $BT $LBTYA $VOD https://t.co/8SGfdcg20i
p2
aV2017-05-18 | RT @wildsidekittens: Survey:  Do you know how to market your product?  $AAPL $MMEX $PGPM $GOOG $AMZN
p3
aV2017-05-18 | RT @MarketSmith: You can now ask Google Assistant to preheat your oven or check if the dishes are clean: https://t.co/dIQSI9HXpS $GOOGL $GO\u2026
p4
aV2017-05-18 | Here are #SiliconValley's wealthiest self-made women https://t.co/z5kiAhn3Sb $HP $GOOG $FB
p5
aV2017-05-18 | Here are #SiliconValley's wealthiest self-made women https://t.co/gT51rHuo5k $HP $GOOG $FB
p6
aV2017-05-18 | This seems like a silly appeal, Alsup's reasoning was sound: Alphabet had arbitration agreement with Levandowski, n\u2026 https://t.co/7F3Cb1ODok
p7
aV2017-05-18 | RT @statnews: Former FDA head is joining @Google's life sciences spinoff Verily https://t.co/RUFb12sNDv $GOOG
p8
aV2017-05-18 | RT @statnews: Former FDA head is joining @Google's life sciences spinoff Verily https://t.co/RUFb12sNDv $GOOG
p9
aV2017-05-18 | RT @statnews: Former FDA head is joining @Google's life sciences spinoff Verily https://t.co/RUFb12sNDv $GOOG
p10
aV2017-05-18 | @SAlphaTech Not sure why $GOOG chip news didn't bring this down
p11
aV2017-05-18 | @TravelinTweeter $AMZN. $GOOG could be d one of its management were better @ monetizing all their incredible value\u2026 https://t.co/BEwo6Hi9H8
p12
aV2017-05-18 | $GOOG high open interest range is 930.00 to 840.00 for option expiration 05/19/2017. https://t.co/8q9udWMyky https://t.co/BHrfQ99Fzt
p13
aV2017-05-18 | Buy U.S. Stocks Today? Graham Thinks You're Nuts https://t.co/hXpbo1xBII $TRN $AMZN $XLE $FB $GOOG $GOOGL $SPY $DIA $QQQ $IVV $SH
p14
aV2017-05-18 | How a former #Obama-era FDA boss plans to help a $GOOG-backed company make America healthy again https://t.co/KLfOW63eE2
p15
aV2017-05-18 | How a former #Obama-era FDA boss plans to help a $GOOG-backed company make America healthy again https://t.co/RWHewoGfE8
p16
aV2017-05-18 | Microsoft taking over the data-center race into Africa $GOOG $GOOGL $MSFT $AMZN https://t.co/d1SLBMRQSo
p17
aV2017-05-18 | You can now ask Google Assistant to preheat your oven or check if the dishes are clean: https://t.co/dIQSI9HXpS $GOOGL $GOOG
p18
aV2017-05-18 | You can now ask Google Assistant to preheat your oven or check if the dishes are clean: https://t.co/1beaSwNR3W $GOOGL $GOOG
p19
aV2017-05-18 | RT @MaglanCapital: Solus CEO Says GSAT Spectrum May Appeal to Amazon https://t.co/o250hWKYTD $GSAT $AMZN $FB $GOOG $VZ
p20
aV2017-05-18 | Former #FDA commissioner Califf joins Verily, to help the firm better fit the needs of #doctors. $GOOG #HealthTech\u2026 https://t.co/AP0xsWIC3k
p21
aV2017-05-18 | RT @SFBusinessTimes: How a former #Obama-era FDA boss plans to help a $GOOG-backed company make America healthy again https://t.co/f9q4RaCo\u2026
p22
aV2017-05-18 | RT @davemcclure: Chart: How Top 5 Tech Giants Make Their Billions https://t.co/DnYCQ7uWRe by @VisualCap $AAPL $GOOG $MSFT $AMZN $FB cc @500\u2026
p23
aV2017-05-18 | How a former #Obama-era FDA boss plans to help a $GOOG-backed company make America healthy again\u2026 https://t.co/AI7zh3TXBH
p24
aV2017-05-18 | How a former #Obama-era FDA boss plans to help a $GOOG-backed company make America healthy again\u2026 https://t.co/RUw7Kk5ImA
p25
aV2017-05-18 | How a former #Obama-era FDA boss plans to help a $GOOG-backed company make America healthy again\u2026 https://t.co/luweuTk8Sn
p26
aV2017-05-18 | Microsoft ($MSFT) taking data-center (#IT) race into Africa - Seeking Alpha - $AMZN $GOOG  https://t.co/2umrnMbPRS
p27
aV2017-05-18 | @Tweetermeyer @TeslaAgnostic @kentindell Infotainment. And besides, $GOOG isn't necessarily bad at security. A lot\u2026 https://t.co/OOrUGFXMMS
p28
aV2017-05-18 | Screen through high rated articles for US Tech Kings at once $AAPL $GOOG $FB https://t.co/l3Lv2AAjzE https://t.co/IYNVivR33X
p29
aV2017-05-18 | $GOOG Google will take on Intel, Nvidia with new AI-focused hardware https://t.co/bU3kibCFGf
p30
aV2017-05-18 | RT @Greg5thTrad: $ Flows 5/18 ($/M) #FANG $FB+40 $AMZN-58 $NFLX+138 $GOOG+43 $AAPL+359\U0001f606 $QQQ-87 $ value composite uptick trades - $ value o\u2026
p31
aV2017-05-18 | $ Flows 5/18 ($/M) #FANG $FB+40 $AMZN-58 $NFLX+138 $GOOG+43 $AAPL+359\U0001f606 $QQQ-87 $ value composite uptick trades - $ value of downtick trades
p32
aV2017-05-18 | 6 Great Things Biz Stone Could Do For Twitter $AMZN $FB $GOOG https://t.co/bJ5GRSTXgz $TWTR
p33
aV2017-05-18 | @ACLU @IBeenWarned This from the org which accepted $ from Big Tobacco to fight clean indoor air. Now getting $ fro\u2026 https://t.co/Ib97izyi2F
p34
aV2017-05-18 | Investment Analysts\u2019 Recent Ratings Changes for Alphabet $GOOG https://t.co/u0pv0c8H0C #acn
p35
aV2017-05-18 | Investment Analysts\u2019 Recent Ratings Changes for Alphabet $GOOG https://t.co/1wJMQqHJQ9
p36
aV2017-05-18 | Investment Analysts\u2019 Recent Ratings Changes for Alphabet $GOOG https://t.co/YIOplTx9Xd
p37
aV2017-05-18 | $FB $GOOG $AMZN $MSFT:  Facebook Will Live Stream Thousands of Hours of Video Game \u2026:  https://t.co/oKzoQWpRPT
p38
aV2017-05-18 | $GOOG Google release Google Play Protect to make the fight against Android Malware more serious and intensive. https://t.co/YVGC98aorK
p39
aV2017-05-18 | $GOOG Google tries its AR and VR efforts out on the retail sector with virtual... https://t.co/4zrPvRW9TA
p40
aV2017-05-18 | #Google is reinventing search itself as it moves past Android and into our crazy future $GOOG https://t.co/5wpz6pYbKR
p41
aV2017-05-18 | Products with 1 billion + users: $GOOG = 7; $FB=3 https://t.co/tvsiYOvfTf
p42
aV2017-05-18 | Hey, do you know everything while trading #SP500? $GOOG $JNJ $GE https://t.co/Rwpf6Sogpu https://t.co/tasyfk8opY
p43
aV2017-05-18 | $GOOG What Twitter's privacy changes mean for you https://t.co/9PGgIwVDYw
p44
aV2017-05-18 | Advertisers, Eduardo Saverin, and Winklevoss twins are not the only people that have been misled by $FB  l https://t.co/0dEpwB0mhA   $GOOG
p45
aV2017-05-18 | RT @MotleyFoolTech: Here's what it means for Waymo, Lyft, GM, and other key players. $GOOG $GOOGL $GM https://t.co/ZWiPuMXkxw
p46
aV2017-05-18 | RT @tfoil2: Twitter cranking surveillance capitalist to 11. Glad only ever access via Tor or in VM w/ VPN  &amp; blockers  NEVER use Apps by $G\u2026
p47
aV2017-05-18 | $GOOG What Twitter's privacy changes mean for you https://t.co/QOkNU9ZZmK
p48
aV2017-05-18 | RT @ElixiumCrypto: https://t.co/srkfzEecv5   #Trading with #Bitcoin  @elixiumbitcoin #Forex #Stocks $ES $GC $CL $GOOG $AAPL $TSLA $SPY $QQQ\u2026
p49
aV2017-05-18 | RT @chamath: TPU is a really big deal. $GOOG is so far ahead of others. But, alternatives may soon be coming...\U0001f60f  https://t.co/MA1wpaXtAd
p50
aV2017-05-18 | REPORT: FCC votes 2-1 to begin dismantling of net neutrality rules. Here are the stocks to watch: https://t.co/axaRhNorlh $NFLX $AMZN $GOOG
p51
aV2017-05-18 | RT @Loubatti: Big dogs carrying this market $AAPL $GOOG $AMZN  $NFLX
p52
aV2017-05-18 | RT @SFBusinessTimes: Here are #SiliconValley's wealthiest self-made women https://t.co/HyJMZSJEjG $HP $GOOG $FB https://t.co/M6X8QlYWwa
p53
aV2017-05-18 | Top #moneyflow for #nasdaq today $AAPL $MSFT $CERN $GOOG $NFLX $ORCL $NVDA $ADBE $ESRX $GILD ... https://t.co/S59zN0R1wP
p54
aV2017-05-18 | RT @MaglanCapital: Solus CEO Says GSAT Spectrum May Appeal to Amazon https://t.co/o250hWKYTD $GSAT $AMZN $FB $GOOG $VZ
p55
aV2017-05-18 | Emerging Mrkt $EEM $ADRE BEAR BACK KISS $BZQ $IWM $RUT $VIX $NDX $QQQ $NQ_F $ES_F $SPY $SPX $IBM $TF_F $MSFT $GOOG\u2026 https://t.co/hDyngsaU1n
p56
aV2017-05-18 | Big dogs carrying this market $AAPL $GOOG $AMZN  $NFLX
p57
aV2017-05-18 | Congrats for an amazing milestone $GOOG #android #IO17 https://t.co/c98hsC0jtC
p58
aV2017-05-18 | RT @TheMrDev: Exiting $IWM $RUT Day Longs for EM Shorts @ close $VIX $NDX $QQQ $NQ_F $ES_F $SPY $SPX $IBM $TF_F $MSFT $GOOG $FB $DJI @cnbc\u2026
p59
aV2017-05-18 | RT @MaglanCapital: Solus CEO Says GSAT Spectrum May Appeal to Amazon https://t.co/o250hWKYTD $GSAT $AMZN $FB $GOOG $VZ
p60
aV2017-05-18 | Solus CEO Says GSAT Spectrum May Appeal to Amazon https://t.co/o250hWKYTD $GSAT $AMZN $FB $GOOG $VZ
p61
aV2017-05-18 | RT @davemcclure: Chart: How Top 5 Tech Giants Make Their Billions https://t.co/DnYCQ7uWRe by @VisualCap $AAPL $GOOG $MSFT $AMZN $FB cc @500\u2026
p62
aV2017-05-18 | Amid $GOOG lawsuit, judge orders @Uber exec to stop working on #selfdrivingcars program https://t.co/hOTCQzEJdQ https://t.co/McI6s0KYJY
p63
aV2017-05-18 | Exiting $IWM $RUT Day Longs for EM Shorts @ close $VIX $NDX $QQQ $NQ_F $ES_F $SPY $SPX $IBM $TF_F $MSFT $GOOG $FB $DJI @cnbc $HD $NFLX $AAPL
p64
aV2017-05-18 | RT @BrianDColwell: #DISRUPTION https://t.co/ggxGJM0ea7 @HITpol @DeepLearn007 #ai #agtech #blockchain #automation #machine #bigdata #iot #bi\u2026
p65
aV2017-05-18 | $YHOO $GOOG $TWTR $FB:  Twitter Taps Ad Exec To Help Bring in the Money:  https://t.co/8wFJLK9Sm4
p66
aV2017-05-18 | US users of $FB $GOOG $TWTR services should be pissed that these corps don\u2019t provide same level of privacy to them that they do to EU users.
p67
aV2017-05-18 | Nvidia: The Alphabet Threat, Again? https://t.co/aaxm5tOEW5 $GOOG #GOOGLE $GOOGL $NVDA
p68
aV2017-05-18 | Nvidia: The Alphabet Threat, Again? https://t.co/PMEC4rxqa5 $GOOG #GOOGLE $GOOGL $NVDA
p69
aV2017-05-18 | Twitter cranking surveillance capitalist to 11. Glad only ever access via Tor or in VM w/ VPN  &amp; blockers  NEVER us\u2026 https://t.co/CqSNTTwlXT
p70
aV2017-05-18 | RT @ElixiumCrypto: https://t.co/srkfzEecv5   #Trading with #Bitcoin  @elixiumbitcoin #Forex #Stocks $ES $GC $CL $GOOG $AAPL $TSLA $SPY $QQQ\u2026
p71
aV2017-05-18 | Benzinga: Top 9 Places Professionals Want To Work https://t.co/LFBYwkH5YC $AAPL $AMZN $CRM $DIS $TWX $TSLA $FB $GOOG
p72
aV2017-05-18 | Top 9 Places Professionals Want To Work https://t.co/XmAxj9RfEH $AAPL $AMZN $CRM $DIS $TWX $TSLA $FB $GOOG
p73
aV2017-05-18 | RT @chamath: TPU is a really big deal. $GOOG is so far ahead of others. But, alternatives may soon be coming...\U0001f60f  https://t.co/MA1wpaXtAd
p74
aV2017-05-18 | Are you Bullish or Bearish on #Google? Start #Trading $GOOG with #Bitcoin. 15:1 Leverage. #Stocks #Blockchain #BTC\u2026 https://t.co/2OcG0RBqbF
p75
aV2017-05-18 | $GOOG Google builds advanced new technology for the future machine learning technologies and their Google Cloud. https://t.co/7SkscUzgqZ
p76
aV2017-05-18 | Luigi Zingales\u2014\u201cReason we have $GOOG &amp; $FB today b/c antitrust agst $MFST slowed ability to monopolize the internet" https://t.co/Uabq51Dzmy
p77
aV2017-05-18 | Watch $GSAT REAL close..Right acquisition could send it flying $AMZN $FB $GOOG
p78
aV2017-05-18 | RT @ACInvestorBlog: $GSAT Solus Alternative Asset's Pucillo At Salt Conf. Says GlobalStar Would Be An Attractive Acquisition By $AMZN $FB $\u2026
p79
aV2017-05-18 | RT @MaglanCapital: #Globalstar #Spectrum May be 'Interesting' to #Amazon, Pucillo Says   $GSAT $AMZN $GOOG $FB $VZ #SpectrumIsKing https://\u2026
p80
aV2017-05-18 | #Globalstar #Spectrum May be 'Interesting' to #Amazon, Pucillo Says   $GSAT $AMZN $GOOG $FB $VZ #SpectrumIsKing https://t.co/482pJeBPvd
p81
aV2017-05-18 | RT @chamath: TPU is a really big deal. $GOOG is so far ahead of others. But, alternatives may soon be coming...\U0001f60f  https://t.co/MA1wpaXtAd
p82
aV2017-05-18 | Here are #SiliconValley's wealthiest self-made women https://t.co/HyJMZSJEjG $HP $GOOG $FB https://t.co/M6X8QlYWwa
p83
aV2017-05-18 | As the tech wars heat up, $GOOG\u2019s @Waymo teams up with @Lyft on #selfdrivingcars https://t.co/vxqRoAfx5J https://t.co/sgaUADlSTC
p84
aV2017-05-18 | Sit back and watch $goog and $amzn race for 1000 \U0001f60e
p85
aV2017-05-18 | Alphabet Inc $GOOG CEO Sundar Pichai Sells 4,000 Shares of Stock https://t.co/iUwWnmTZcV
p86
aV2017-05-18 | RT @ElixiumCrypto: Are you Bullish or Bearish on #Google? Start #Trading $GOOG with #Bitcoin. 15:1 Leverage. #Stocks #Blockchain #BTC   htt\u2026
p87
aV2017-05-18 | RT @ACInvestorBlog: $GSAT Solus Alternative Asset's Pucillo At Salt Conf. Says GlobalStar Would Be An Attractive Acquisition By $AMZN $FB $\u2026
p88
aV2017-05-18 | #Options #maxpain chart for $GOOG. Free options app https://t.co/kupWqdianH https://t.co/frukOSYiLK
p89
aV2017-05-18 | RT @MaglanCapital: *SALT: PUCILLO SAYS GLOBALSTAR SPECTRUM MAY ALSO APPEAL TO FACEBOOK, GOOG LE $GSAT $FB $GOOG
p90
aV2017-05-18 | We calculated 63-day Expected Return of $GOOG for you: 12.62% https://t.co/ckFFlwlyGq
p91
aV2017-05-18 | RT @TheMrDev: $IWM $RUT Active Long $VIX $NDX $QQQ $NQ_F $ES_F $SPY $SPX $IBM $TF_F $MSFT $GOOG $FB $DJI @cnbc $HD $NFLX $AAPL @don_kaufman\u2026
p92
aV2017-05-18 | RT @ElixiumCrypto: Are you Bullish or Bearish on #Google? Start #Trading $GOOG with #Bitcoin. 15:1 Leverage. #Stocks #Blockchain #BTC   htt\u2026
p93
aV2017-05-18 | $GOOG #Options OI chart. Free stocks app https://t.co/nuRDoiNnnh https://t.co/snUIJLv9et
p94
aV2017-05-18 | RT @chamath: TPU is a really big deal. $GOOG is so far ahead of others. But, alternatives may soon be coming...\U0001f60f  https://t.co/MA1wpaXtAd
p95
aV2017-05-18 | $GSAT Solus Alternative Asset's Pucillo At Salt Conf. Says GlobalStar Would Be An Attractive Acquisition By $AMZN $FB $GOOG $GOOGL Yeess
p96
aV2017-05-18 | Do you know that #Book Value for $GOOG is $210.88 https://t.co/2NmBTjUAxD
p97
aV2017-05-18 | RT @ElixiumCrypto: Are you Bullish or Bearish on #Google? Start #Trading $GOOG with #Bitcoin. 15:1 Leverage. #Stocks #Blockchain #BTC   htt\u2026
p98
aV2017-05-18 | RT @MaglanCapital: *SALT: PUCILLO SAYS GLOBALSTAR SPECTRUM MAY ALSO APPEAL TO FACEBOOK, GOOG LE $GSAT $FB $GOOG
p99
aV2017-05-18 | Are you Bullish or Bearish on #Google? Start #Trading $GOOG with #Bitcoin. 15:1 Leverage. #Stocks #Blockchain #BTC\u2026 https://t.co/tKwEKiJKTt
p100
aV2017-05-18 | *SALT: PUCILLO SAYS GLOBALSTAR SPECTRUM MAY ALSO APPEAL TO FACEBOOK, GOOG LE $GSAT $FB $GOOG
p101
asI1
(lp102
V2017-05-17 | #GoogleIO Day1 $GOOG #GoogleAssistant on #iPhone #googlehome answers phone calls &amp; stream music #DayDream upgrade\u2026 https://t.co/88lidsMaAo
p103
aV2017-05-17 | RT @theflynews: On The Fly: Top stock stories for Wednesday $TGT $QCOM $AAPL $CVS $RAD $WBA $AMZN $GOOG $GOOGL $JACK $CL $AEO $AMD https://\u2026
p104
aV2017-05-17 | RT @chamath: TPU is a really big deal. $GOOG is so far ahead of others. But, alternatives may soon be coming...\U0001f60f  https://t.co/MA1wpaXtAd
p105
aV2017-05-17 | $GOOG $AAPL $NFLX $CL $jnj $XOM $WFC $GS $fb $JPM $t $GE $AMD $ko $TGT $TWX $MSFT $CL $TXN $INTC $TSLA $D $HCA $DO\u2026 https://t.co/CW7Ce8Eawn
p106
aV2017-05-17 | Insider Trading Activity Alphabet Inc (NASDAQ:GOOG) \u2013 CEO Sold 4,000 shares of Stock https://t.co/0he19NgLri $GOOG
p107
aV2017-05-17 | $GOOG OI for maturity 05/19/2017. 840.00 Highest put. 840.00 Highest call. https://t.co/8q9udWMyky https://t.co/jfK7NbC3Tv
p108
aV2017-05-17 | High-tech US-based transnational companies (TNCs) now = 5 of 7 largest companies in the world 1 $AAPL 2 $GOOG 3 $MSFT 4 ? 5 ? 6 $AMZN 7 $FB
p109
aV2017-05-17 | Now, #GoogleAssistant is on #iPhone, as a substitute to #Siri. Later, it will be inside cars. What next? #IO17\u2026 https://t.co/LZmnnNDjdi
p110
aV2017-05-17 | RT @chrissyfarr: Alphabet's Verily confirmed that Califf is joining. https://t.co/AdKGDwFLgr   Our scoop from yesterday: https://t.co/2DyZW\u2026
p111
aV2017-05-17 | Here's what it means for Waymo, Lyft, GM, and other key players. $GOOG $GOOGL $GM https://t.co/ZWiPuMXkxw
p112
aV2017-05-17 | ICYMI: Former FDA chief lands adviser job at Google life sciences affiliate Verily https://t.co/SnovfhcpCB #pharma #FDA $GOOGL $GOOG
p113
aV2017-05-17 | RT @statnews: Former FDA head is joining @Google's life sciences spinoff Verily https://t.co/RUFb12sNDv $GOOG
p114
aV2017-05-17 | RT @chamath: TPU is a really big deal. $GOOG is so far ahead of others. But, alternatives may soon be coming...\U0001f60f  https://t.co/MA1wpaXtAd
p115
aV2017-05-17 | RT @ElixiumCrypto: https://t.co/srkfzEecv5   #Trading with #Bitcoin  @elixiumbitcoin #Forex #Stocks $ES $GC $CL $GOOG $AAPL $TSLA $SPY $QQQ\u2026
p116
aV2017-05-17 | Google rolling out arsenal of services, gadgets https://t.co/0goNaqL0eH $GOOG #tech
p117
aV2017-05-17 | $GOOG The best part of Google's conference was a teen who taught himself to code to... https://t.co/un4DrzfXhg
p118
aV2017-05-17 | RT @barronsonline: Calpers Sells the FANG Stocks and #Apple in Q1 https://t.co/0ARlJrD9iS $FB $NFLX $AMZN $GOOGL $GOOG $AAPL https://t.co/O\u2026
p119
aV2017-05-17 | $GOOG:  New Insider Filing on  CEO, Google Inc.  SUNDAR PICHAI:  https://t.co/yk56fBFnSa
p120
aV2017-05-17 | RT @DanCarlson33: Market down? $VUZI closes higher. #augmentedreality is the Next Big Thing. Just ask $FB $GOOG $MSFT $SNAP &amp; $INTC.  https\u2026
p121
aV2017-05-17 | RT @ElixiumCrypto: https://t.co/srkfzEecv5   #Trading with #Bitcoin  @elixiumbitcoin #Forex #Stocks $ES $GC $CL $GOOG $AAPL $TSLA $SPY $QQQ\u2026
p122
aV2017-05-17 | RT @ElixiumCrypto: https://t.co/srkfzEecv5   #Trading with #Bitcoin  @elixiumbitcoin #Forex #Stocks $ES $GC $CL $GOOG $AAPL $TSLA $SPY $QQQ\u2026
p123
aV2017-05-17 | Is Google Gearing Up to Unveil VR Headset at I/O 2017?  https://t.co/P8nIuOetr2 $GOOG $GOOGL
p124
aV2017-05-17 | $GOOG Google Rolling Out Arsenal of Services, Gadgets https://t.co/aGdvjrPhqH
p125
aV2017-05-17 | Have a great day all. Tickers discussed today: $FB $AAPL $AMZN $NFLX $GOOGL $GOOG $CSCO $NQ_F $ES_F $SPY Good night.
p126
aV2017-05-17 | Snapchat: How Many Speculators, How Many Shorts? https://t.co/XazzNVHVUn $FB $GOOGL $GPRO $SNAP $TWTR $GOOG
p127
aV2017-05-17 | @chamath @chamath look forward to when you launch this against $GOOG
p128
aV2017-05-17 | RT @ElixiumCrypto: https://t.co/srkfzEecv5   #Trading with #Bitcoin  @elixiumbitcoin #Forex #Stocks $ES $GC $CL $GOOG $AAPL $TSLA $SPY $QQQ\u2026
p129
aV2017-05-17 | #FakeSocialNetwork #FakeAdTech #AdFraud #Glitch #MoneyMonster $FB $GOOG $TWTR $SNAP https://t.co/J2ufd3h4Rr
p130
aV2017-05-17 | Special Prosector appointed to oversea Russia Probe $SPY $IBB $NVDA $MSFT $AMZN $GOOG
p131
aV2017-05-17 | RT @chamath: TPU is a really big deal. $GOOG is so far ahead of others. But, alternatives may soon be coming...\U0001f60f  https://t.co/MA1wpaXtAd
p132
aV2017-05-17 | Alphabet Gets Average Rating of Buy from Analysts $GOOG https://t.co/3We5IcawOT
p133
aV2017-05-17 | Where will highest tech long term investment ROI come from? $twtr $snap $goog $fb $msft $amzn $nflx $tsla
p134
aV2017-05-17 | RT @biospace: Spotted in the Bay Area: Former FDA Head in Talks to Join Google $GOOG's Verily https://t.co/ZMVWJm30Y7 https://t.co/grJKiV9e\u2026
p135
aV2017-05-17 | Dow Closes Down 372 Points as Markets Lose Confidence in Trump #BEAR #BEARMARKET #TRADER #INVESTOR $FB $SNAP $GOOG\u2026 https://t.co/yAvvUXjhSv
p136
aV2017-05-17 | $GOOG - Google: The Android Everyone's Looking For -- Heard on the Street https://t.co/M3dydYom9l
p137
aV2017-05-17 | Market down? $VUZI closes higher. #augmentedreality is the Next Big Thing. Just ask $FB $GOOG $MSFT $SNAP &amp; $INTC.  https://t.co/zoPODhAg8k
p138
aV2017-05-17 | @asktimothybuck Apple users have high expectations (as they should) are in for a treat and re-balancing of expectat\u2026 https://t.co/44q2sr2tJX
p139
aV2017-05-17 | What is it ahead for US Tech Giants? Check what analysts have to say $GOOG $TWTR $AAPL https://t.co/l3Lv2AAjzE https://t.co/FFgr6TBjdH
p140
aV2017-05-17 | RT @ElixiumCrypto: https://t.co/srkfzEecv5   #Trading with #Bitcoin  @elixiumbitcoin #Forex #Stocks $ES $GC $CL $GOOG $AAPL $TSLA $SPY $QQQ\u2026
p141
aV2017-05-17 | RT @chrissyfarr: Alphabet's Verily confirmed that Califf is joining. https://t.co/AdKGDwFLgr   Our scoop from yesterday: https://t.co/2DyZW\u2026
p142
aV2017-05-17 | RT @chrissyfarr: Alphabet's Verily confirmed that Califf is joining. https://t.co/AdKGDwFLgr   Our scoop from yesterday: https://t.co/2DyZW\u2026
p143
aV2017-05-17 | Why is Day Trading Failure So Common? | Find Out Here: https://t.co/JoYCJpxNf0 $SPY $QQQ $DIA $GOOG $TWTR $GPRO $X https://t.co/qiTLX4HGUl
p144
aV2017-05-17 | RT @statnews: Former FDA head is joining @Google's life sciences spinoff Verily https://t.co/RUFb12sNDv $GOOG
p145
aV2017-05-17 | Android Project Treble: Yellow Brick Road That Leads To A Fully Proprietary Android OS $GOOG https://t.co/i803CRIjnr
p146
aV2017-05-17 | RT @LiuOfWallStreet: $XLK whelp tech got slayed $NFLX $FB $TWTR $AAPL $TSLA $GOOG $AMZN $SNAP LiveStream Trades https://t.co/F4elUFmEyA
p147
aV2017-05-17 | RT @chamath: TPU is a really big deal. $GOOG is so far ahead of others. But, alternatives may soon be coming...\U0001f60f  https://t.co/MA1wpaXtAd
p148
aV2017-05-17 | RT @TeleTraderNews: $GOOG switches to #AI-first world, CEO #Pichai says. https://t.co/0UCcoBO3MC
p149
aV2017-05-17 | $XLK whelp tech got slayed $NFLX $FB $TWTR $AAPL $TSLA $GOOG $AMZN $SNAP LiveStream Trades https://t.co/F4elUFmEyA
p150
aV2017-05-17 | RT @chamath: TPU is a really big deal. $GOOG is so far ahead of others. But, alternatives may soon be coming...\U0001f60f  https://t.co/MA1wpaXtAd
p151
aV2017-05-17 | RT @AlertTrade: The Google iPhone Search Dilemma $AAPL #APPLE $GOOGL $GOOG https://t.co/zQ91DJYjY0 #Investing #Stocks https://t.co/FD6acGYW\u2026
p152
aV2017-05-17 | Lavar Ball Download our FREE #stock alert #app #GooglePlay \U0001f449 https://t.co/Yi8yIcpiQt! #wednesdaywisdom $ELED $AMLH $NSAV $APPL $GOOG $BVTK
p153
aV2017-05-17 | Lavar Ball Download our FREE #stock alert #app the #AppStore \U0001f449 https://t.co/sKxtnGdzxN! #wednesdaywisdom $ELED $AMLH $NSAV $APPL $GOOG $BVTK
p154
aV2017-05-17 | RT @SeekingAlpha: Buy U.S. Stocks Today? Graham Thinks You're Nuts https://t.co/URAzy3QXe9 $TRN $AMZN $XLE $FB $GOOG $GOOGL $SPY $DIA $QQQ\u2026
p155
aV2017-05-17 | SAlphaTrending: Buy U.S. Stocks Today? Graham Thinks You're Nuts https://t.co/1FbKm86tig $TRN $AMZN $XLE $FB $GOOG $GOOGL $SPY $DIA $QQQ $\u2026
p156
aV2017-05-17 | Stay ahead with Nasdaq 100 news, views &amp; analysis $MSFT $AAPL $GOOG https://t.co/W1OB9ZtUgi https://t.co/sfFnUbBmd5
p157
aV2017-05-17 | Buy U.S. Stocks Today? Graham Thinks You're Nuts https://t.co/S6yLSKDJ4c $TRN $AMZN $XLE $FB $GOOG $GOOGL $SPY $DIA $QQQ $IVV $SH
p158
aV2017-05-17 | RT @chamath: TPU is a really big deal. $GOOG is so far ahead of others. But, alternatives may soon be coming...\U0001f60f  https://t.co/MA1wpaXtAd
p159
aV2017-05-17 | The Google iPhone Search Dilemma https://t.co/FD2kVBKrZi $AAPL $GOOGL $GOOG
p160
aV2017-05-17 | Former FDA chief lands adviser job at Google life sciences affiliate Verily https://t.co/SnovfhcpCB #FDA #pharma #biotech $GOOGL $GOOG
p161
aV2017-05-17 | Buy U.S. Stocks Today? Graham Thinks You're Nuts $TRN $AMZN $XLE $FB $GOOG $GOOGL $SPY $DIA $QQQ\u2026\u2026 https://t.co/8jYItIRmps
p162
aV2017-05-17 | Buy U.S. Stocks Today? Graham Thinks You're Nuts https://t.co/UDVRyMQozg $TRN $AMZN $XLE $FB $GOOG $GOOGL $SPY $DIA $QQQ $IVV $SH
p163
aV2017-05-17 | Buy U.S. Stocks Today? Graham Thinks You're Nuts https://t.co/URAzy3QXe9 $TRN $AMZN $XLE $FB $GOOG $GOOGL $SPY $DIA $QQQ $IVV $SH
p164
aV2017-05-17 | RT @SAlphaTech: The Google iPhone Search Dilemma https://t.co/xvDXqLQAca $AAPL #APPLE $GOOGL $GOOG
p165
aV2017-05-17 | TeleTraderNews: $GOOG switches to #AI-first world, CEO #Pichai says. https://t.co/ev3hIZDrBj
p166
aV2017-05-17 | RT @davemcclure: Chart: How Top 5 Tech Giants Make Their Billions https://t.co/DnYCQ7uWRe by @VisualCap $AAPL $GOOG $MSFT $AMZN $FB cc @500\u2026
p167
aV2017-05-17 | RT @ElixiumCrypto: https://t.co/srkfzEecv5   #Trading with #Bitcoin  @elixiumbitcoin #Forex #Stocks $ES $GC $CL $GOOG $AAPL $TSLA $SPY $QQQ\u2026
p168
aV2017-05-17 | $AAPL $GOOGL $GOOG:  A key Apple sales metric may decline during the iPhone \u2018super cycle\u2019:  https://t.co/g2C76Ej3Mn
p169
aV2017-05-17 | $GOOGL $GOOG $TAC:  The Google iPhone Search Dilemma:  https://t.co/ktiVeHtaEG
p170
aV2017-05-17 | The Google iPhone Search Dilemma $AAPL #APPLE $GOOGL $GOOG https://t.co/zQ91DJYjY0 #Investing #Stocks https://t.co/FD6acGYWFB
p171
aV2017-05-17 | On The Fly: Top stock stories for Wednesday $TGT $QCOM $AAPL $CVS $RAD $WBA $AMZN $GOOG $GOOGL $JACK $CL $AEO $AMD https://t.co/BH0GTFdtkm
p172
aV2017-05-17 | $GOOG switches to #AI-first world, CEO #Pichai says. https://t.co/0UCcoBO3MC
p173
aV2017-05-17 | The Google iPhone Search Dilemma https://t.co/xvDXqLQAca $AAPL #APPLE $GOOGL $GOOG
p174
aV2017-05-17 | The Google iPhone Search Dilemma https://t.co/plE05DkGg4 $AAPL #APPLE $GOOGL $GOOG
p175
aV2017-05-17 | RT @chamath: TPU is a really big deal. $GOOG is so far ahead of others. But, alternatives may soon be coming...\U0001f60f  https://t.co/MA1wpaXtAd
p176
aV2017-05-17 | word error rates continue to improve for natural language interfaces.  $GOOG announced today their rate is 4.9% leapfrogging $IBM 5.5%
p177
aV2017-05-17 | RT @Briefingcom: Near-Term Risk Is Elevated https://t.co/kqPllvtJOR #Economy #Markets #Stocks #TheBigPicture $AAPL $AMZN $MSFT $F $NDX $GOO\u2026
p178
aV2017-05-17 | Near-Term Risk Is Elevated https://t.co/kqPllvtJOR #Economy #Markets #Stocks #TheBigPicture $AAPL $AMZN $MSFT $F $NDX $GOOG $SPY $RUT $COMPQ
p179
aV2017-05-17 | Absolutely friggin amazing to watch all the dudes that LOVED FANG and the high flyers all a sudden spit out bearish charts. $FB $AMZN $GOOG
p180
aV2017-05-17 | Where are the Daydream VR phones Google promised? https://t.co/BrM98Kviqw #vr $goog
p181
aV2017-05-17 | RT @ElixiumCrypto: https://t.co/srkfzEecv5   #Trading with #Bitcoin  @elixiumbitcoin #Forex #Stocks $ES $GC $CL $GOOG $AAPL $TSLA $SPY $QQQ\u2026
p182
aV2017-05-17 | $GOOG - Google Gives Artificial Intelligence More Power in its Products https://t.co/EjYmrxFkC8
p183
aV2017-05-17 | COVER $GILD 64.51, SELL $GOOG 919.62, SELL $GS 213.67, SELL $JCI 41.34. More stock tips &amp; details at: https://t.co/jftZqkOWgB
p184
aV2017-05-17 | So $AMZN and $GOOG both have #AI assistants that can see\u2026 your move $AAPL. #techwars
p185
aV2017-05-17 | RT @MattRosoff: One of $GOOG's most important projects has entered its second stage. @novet has the deets: https://t.co/UcPBqUMAI7
p186
aV2017-05-17 | RT @ElixiumCrypto: https://t.co/srkfzEecv5   #Trading with #Bitcoin  @elixiumbitcoin #Forex #Stocks $ES $GC $CL $GOOG $AAPL $TSLA $SPY $QQQ\u2026
p187
aV2017-05-17 | RT @chamath: TPU is a really big deal. $GOOG is so far ahead of others. But, alternatives may soon be coming...\U0001f60f  https://t.co/MA1wpaXtAd
p188
aV2017-05-17 | REPORT: Apple's Iovine says Apple Music team has "lots of ideas" to take users from YouTube: https://t.co/rYAXui7oH4 $AAPL $GOOG
p189
aV2017-05-17 | RT @chamath: TPU is a really big deal. $GOOG is so far ahead of others. But, alternatives may soon be coming...\U0001f60f  https://t.co/MA1wpaXtAd
p190
aV2017-05-17 | Hey, do you know everything while trading #SP500? $GOOG $JNJ $GE https://t.co/Rwpf6Sogpu https://t.co/AiEZJcfs61
p191
aV2017-05-17 | RT @chamath: TPU is a really big deal. $GOOG is so far ahead of others. But, alternatives may soon be coming...\U0001f60f  https://t.co/MA1wpaXtAd
p192
aV2017-05-17 | RT @ElixiumCrypto: https://t.co/srkfzEecv5   #Trading with #Bitcoin  @elixiumbitcoin #Forex #Stocks $ES $GC $CL $GOOG $AAPL $TSLA $SPY $QQQ\u2026
p193
aV2017-05-17 | RT @ElixiumCrypto: https://t.co/srkfzEecv5   #Trading with #Bitcoin  @elixiumbitcoin #Forex #Stocks $ES $GC $CL $GOOG $AAPL $TSLA $SPY $QQQ\u2026
p194
aV2017-05-17 | Top #moneyflow for #sp500 today $AAPL $AMZN $NVDA $GE $AGN $PFE $CVS $BMY $BAC $GOOG ... https://t.co/S59zN0R1wP
p195
aV2017-05-17 | Top #moneyflow for #nasdaq today $AAPL $AMZN $NVDA $GOOG $ORLY $ISRG $CMCSA $EXPE $ATVI $NFLX ... https://t.co/S59zN0R1wP
p196
aV2017-05-17 | @CNBC $SPY $TVIX $VIX $CBOE $TZA $NUGT $JNUG $GDX $UVXY $TVIX $SPXS $SQQQ $SDOW $AAPL $FB $GOOG Bloody Day https://t.co/PCXlYsiG3l
p197
aV2017-05-17 | RT @chamath: TPU is a really big deal. $GOOG is so far ahead of others. But, alternatives may soon be coming...\U0001f60f  https://t.co/MA1wpaXtAd
p198
aV2017-05-17 | RT @chamath: TPU is a really big deal. $GOOG is so far ahead of others. But, alternatives may soon be coming...\U0001f60f  https://t.co/MA1wpaXtAd
p199
aV2017-05-17 | RT @chamath: TPU is a really big deal. $GOOG is so far ahead of others. But, alternatives may soon be coming...\U0001f60f  https://t.co/MA1wpaXtAd
p200
aV2017-05-17 | \u2026\u2026..why not appoint CEO of $INTC, $GOOG $MSFT etc? https://t.co/41k4lPKl2j
p201
aV2017-05-17 | RT @chamath: TPU is a really big deal. $GOOG is so far ahead of others. But, alternatives may soon be coming...\U0001f60f  https://t.co/MA1wpaXtAd
p202
asI2
(lp203
V2017-05-16 | RT @Rock_Health: Scoop from @chrissyfarr: former FDA chief is in talks to join Verily. Here's why that would be a big win for $GOOG: https:\u2026
p204
aV2017-05-16 | RT @OptionsHawk: While no1 was watching $GOOG hitting another record high
p205
aV2017-05-16 | RT @Rock_Health: Scoop from @chrissyfarr: former FDA chief is in talks to join Verily. Here's why that would be a big win for $GOOG: https:\u2026
p206
aV2017-05-16 | Scoop from @chrissyfarr: former FDA chief is in talks to join Verily. Here's why that would be a big win for $GOOG:\u2026 https://t.co/vK34x5AFg8
p207
aV2017-05-16 | https://t.co/VgamejroJw &lt;- Want to make $600,00 In One Year Trading? Check out how this guy did it!  $GOOG $PCLN $VTAE
p208
aV2017-05-16 | RT @innova_scape: https://t.co/SzsLy9b6L1: Are you Bullish or Bearish on #Google? Start #Trading $GOOG with #Bitcoin. 15:1 Leverage. \u2026 http\u2026
p209
aV2017-05-16 | $GOOG - No Googling on Bing: Search Leader Avoids 'Genericide' in Trademark Case https://t.co/CcscVz2WSm
p210
aV2017-05-16 | Benzinga: Biz Stone Is Going Back To Twitter https://t.co/2Go8IwN2pj $TWTR $FB $GOOG
p211
aV2017-05-16 | via @AlertTrade: Snapchat: How Many Speculators, How Many Shorts? $FB $GOOGL $GPRO $SNAP $TWTR $GOOG\u2026 https://t.co/ECGPhYfVYm
p212
aV2017-05-16 | Biz Stone Is Going Back To Twitter https://t.co/GVMDAkUacb $TWTR $FB $GOOG
p213
aV2017-05-16 | RT @ElixiumCapital: #Trading with #Bitcoin  https://t.co/vnJN5IvB3E   @elixiumbitcoin #Forex #Stocks $ES $CL $GC $GOOG $AAPL $TSLA $SPY $QQ\u2026
p214
aV2017-05-16 | RT @Convertbond: Since March 1  FANG Stocks: +$270B Rest of the S&amp;P 500: -$260B  Via @KaiPflughaupt   $FB $AAPL $AMZN $NFLX  $GOOG
p215
aV2017-05-16 | Ya, that $AMZN has no monopoly power huh, kinda like $GOOG and $AAPL no power https://t.co/a2ouBkHr46
p216
aV2017-05-16 | Transaction costs for trading $GOOG with brokers, min: 0.051% max: 0.331% difference: 5.0x https://t.co/L1ytCQyPHN
p217
aV2017-05-16 | $GOOG Ex-Google Ventures CEO Sees Parallels Between Uber, Trump https://t.co/qfk6bNQ5rW
p218
aV2017-05-16 | RT @ElixiumCapital: Are you Bullish or Bearish on #Google? Start #Trading $GOOG with #Bitcoin. 15:1 Leverage. #Stocks #Blockchain #BTC   ht\u2026
p219
aV2017-05-16 | RT @ElixiumCapital: Are you Bullish or Bearish on #Google? Start #Trading $GOOG with #Bitcoin. 15:1 Leverage. #Stocks #Blockchain #BTC   ht\u2026
p220
aV2017-05-16 | Variety: Google to preview stand-alone VR headset https://t.co/ODhiuer27X $GOOG $GOOGL #sitifatimah #malaysia #financialplanning
p221
aV2017-05-16 | Variety: Google to preview stand-alone VR headset https://t.co/ZwPmzDZNu0 $GOOG $GOOGL
p222
aV2017-05-16 | Variety: Google to preview stand-alone VR headset https://t.co/wbawEEe8QX $GOOG $GOOGL
p223
aV2017-05-16 | Variety: Google to preview stand-alone VR headset https://t.co/oh5r8sgUc5 $GOOG $GOOGL
p224
aV2017-05-16 | $GOOG $GOOGL $FCAU:  Why Alphabet\u2019s Waymo Joined Forces With Lyft on Self-Driving Cars:  https://t.co/OEJ6iF2QxI
p225
aV2017-05-16 | $GOOGL $GOOG:  Snapchat: How Many Speculators, How Many Shorts?:  https://t.co/F1vjTmW98H
p226
aV2017-05-16 | Snapchat: How Many Speculators, How Many Shorts? $FB $GOOGL $GPRO $SNAP $TWTR $GOOG https://t.co/f3dvbWXgl2\u2026 https://t.co/dyrSir6IQL
p227
aV2017-05-16 | Snapchat: How Many Speculators, How Many Shorts? https://t.co/gx8mbjugCc $FB $GOOGL $GPRO $SNAP $TWTR $GOOG
p228
aV2017-05-16 | Snapchat: How Many Speculators, How Many Shorts? https://t.co/th4u7EN39v $FB $GOOGL $GPRO $SNAP $TWTR $GOOG
p229
aV2017-05-16 | RT @Convertbond: Since March 1  FANG Stocks: +$270B Rest of the S&amp;P 500: -$260B  Via @KaiPflughaupt   $FB $AAPL $AMZN $NFLX  $GOOG
p230
aV2017-05-16 | RT @Convertbond: Since March 1  FANG Stocks: +$270B Rest of the S&amp;P 500: -$260B  Via @KaiPflughaupt   $FB $AAPL $AMZN $NFLX  $GOOG
p231
aV2017-05-16 | $GOOG Cramer explains the challenges of staying invested in winning stocks https://t.co/zqq2YL2twE
p232
aV2017-05-16 | RT @innova_scape: https://t.co/SzsLy9b6L1: Are you Bullish or Bearish on #Google? Start #Trading $GOOG with #Bitcoin. 15:1 Leverage. \u2026 http\u2026
p233
aV2017-05-16 | RT @innova_scape: https://t.co/SzsLy9b6L1: Are you Bullish or Bearish on #Google? Start #Trading $GOOG with #Bitcoin. 15:1 Leverage. \u2026 http\u2026
p234
aV2017-05-16 | https://t.co/SzsLy9b6L1: Are you Bullish or Bearish on #Google? Start #Trading $GOOG with #Bitcoin. 15:1 Leverage. \u2026 https://t.co/w1LYYHoT03
p235
aV2017-05-16 | TechCrunch Disrupt: Ford open to talks with Waymo https://t.co/dIROThDnzh $F $GOOG $GOOGL
p236
aV2017-05-16 | RT @DanielEran: Google is super angry that its work was stolen by Uber, oblivious to 18 years of $GOOG stealing others work  https://t.co/I\u2026
p237
aV2017-05-16 | RT @KaiPflughaupt: HOLY COW !   $FB $AAPL $AMZN $NFLX $GOOG vs the other 495 $SPX stocks  #MarketBreadth   h/t @TommyThornton https://t.co/\u2026
p238
aV2017-05-16 | RT @ElixiumCapital: Are you Bullish or Bearish on #Google? Start #Trading $GOOG with #Bitcoin. 15:1 Leverage. #Stocks #Blockchain #BTC   ht\u2026
p239
aV2017-05-16 | RT @ElixiumCapital: Are you Bullish or Bearish on #Google? Start #Trading $GOOG with #Bitcoin. 15:1 Leverage. #Stocks #Blockchain #BTC   ht\u2026
p240
aV2017-05-16 | RT @ElixiumCapital: Are you Bullish or Bearish on #Google? Start #Trading $GOOG with #Bitcoin. 15:1 Leverage. #Stocks #Blockchain #BTC   ht\u2026
p241
aV2017-05-16 | RT @ElixiumCapital: Are you Bullish or Bearish on #Google? Start #Trading $GOOG with #Bitcoin. 15:1 Leverage. #Stocks #Blockchain #BTC   ht\u2026
p242
aV2017-05-16 | RT @ElixiumCapital: Are you Bullish or Bearish on #Google? Start #Trading $GOOG with #Bitcoin. 15:1 Leverage. #Stocks #Blockchain #BTC   ht\u2026
p243
aV2017-05-16 | RT @chrissyfarr: This would be a very important hire for Alphabet  https://t.co/2DyZWVfSKH $GOOG
p244
aV2017-05-16 | Are you Bullish or Bearish on #Google? Start #Trading $GOOG with #Bitcoin. 15:1 Leverage. #Stocks #Blockchain #BTC\u2026 https://t.co/ZPw7kcWHeR
p245
aV2017-05-16 | What is it ahead for US Tech Giants? Check what analysts have to say $GOOG $TWTR $AAPL https://t.co/l3Lv2AAjzE https://t.co/L0EFVkmx37
p246
aV2017-05-16 | RT @chrissyfarr: This would be a very important hire for Alphabet  https://t.co/2DyZWVfSKH $GOOG
p247
aV2017-05-16 | RT @MaglanCapital: $GSAT Sum of the Parts Valuation- $10++ Buyers: $T $VZ $S $TMUS $CHTR $CMCSA $AMZN $MSFT $GOOG $AAPL $FB $NFLX   #Spectr\u2026
p248
aV2017-05-16 | $GSAT Sum of the Parts Valuation- $10++ Buyers: $T $VZ $S $TMUS $CHTR $CMCSA $AMZN $MSFT $GOOG $AAPL $FB $NFLX\u2026 https://t.co/AgjjP9UFzo
p249
aV2017-05-16 | Digital Assistants Drive New Meta-Platform Battle $AMZN $FB $GOOG $GOOGL $MSFT $AAPL $SSNLF https://t.co/uNSWk9drqH\u2026 https://t.co/bfwgHGdEMk
p250
aV2017-05-16 | @BalajiSivan The strength in $QQQ $AMZN $AAPL $GOOG $MSFT $FB shows the direction of the market. $SPX going higher.\u2026 https://t.co/ny6xfYvaTe
p251
aV2017-05-16 | RT @forgefirst: $260B rise in mkt caps of $FB $AAPL $GOOG $NFLX &amp; $AMZN ~equal to cap lost by remaining ~495 names in the #SPX during past\u2026
p252
aV2017-05-16 | RT @chrissyfarr: This would be a very important hire for Alphabet  https://t.co/2DyZWVfSKH $GOOG
p253
aV2017-05-16 | This would be a very important hire for Alphabet  https://t.co/2DyZWVfSKH $GOOG
p254
aV2017-05-16 | RT @Convertbond: Since March 1  FANG Stocks: +$270B Rest of the S&amp;P 500: -$260B  Via @KaiPflughaupt   $FB $AAPL $AMZN $NFLX  $GOOG
p255
aV2017-05-16 | $Goog #Cloud now responsible for 20-25% of all internet traffic https://t.co/9brbj39GD8
p256
aV2017-05-16 | $GOOG Obama's former FDA chief is in talks to join Verily, Alphabet's health tech... https://t.co/XITBASBhnK
p257
aV2017-05-16 | RT @MOMOSTOCKTRADES: $VDRM $CNBX $OWCP $AAPL $NFLX $PCLN $GRPN $GWPH $AAPL $FB $GOOG $GS $ZNGA $AEZS $SRPT $AMGN $GLBS $VRX $OCUL $KERX $TS\u2026
p258
aV2017-05-16 | Digital Assistants Drive New Meta-Platform Battle https://t.co/JELcYUl5a7 $AMZN $FB $GOOG $GOOGL $MSFT $AAPL $SSNLF
p259
aV2017-05-16 | Digital Assistants Drive New Meta-Platform Battle https://t.co/VQPWmVKzGA $AMZN $FB $GOOG $GOOGL $MSFT $AAPL $SSNLF
p260
aV2017-05-16 | RT @Convertbond: Since March 1  FANG Stocks: +$270B Rest of the S&amp;P 500: -$260B  Via @KaiPflughaupt   $FB $AAPL $AMZN $NFLX  $GOOG
p261
aV2017-05-16 | RT @Convertbond: Since March 1  FANG Stocks: +$270B Rest of the S&amp;P 500: -$260B  Via @KaiPflughaupt   $FB $AAPL $AMZN $NFLX  $GOOG
p262
aV2017-05-16 | Stay ahead with Nasdaq 100 news, views &amp; analysis $MSFT $AAPL $GOOG https://t.co/W1OB9ZtUgi https://t.co/QYBt499tRZ
p263
aV2017-05-16 | AlphaNet generated a new report for $GOOG @http://aifinetwork.blogspot.com/2017/04/goog.html #tech https://t.co/0nSVorzNT3
p264
aV2017-05-16 | RT @Convertbond: Since March 1  FANG Stocks: +$270B Rest of the S&amp;P 500: -$260B  Via @KaiPflughaupt   $FB $AAPL $AMZN $NFLX  $GOOG
p265
aV2017-05-16 | Biggest threat to the tech titans is some big problem with the internet. big problem with the internet they are done. $FB $AMZN $NFLX $GOOG
p266
aV2017-05-16 | RT @StocksByPaige: Does #Apple and #Google pose a credible threat to #Tesla?  $AAPL $GOOG $TSLA
p267
aV2017-05-16 | RT @StocksByPaige: Does #Apple and #Google pose a credible threat to #Tesla?  $AAPL $GOOG $TSLA
p268
aV2017-05-16 | Starting tomorrow: "7 things to expect from Google I/O this week" $GOOG https://t.co/rg63hDtvV7 via @Verge
p269
aV2017-05-16 | RT @OptionsHawk: While no1 was watching $GOOG hitting another record high
p270
aV2017-05-16 | RT @davemcclure: Chart: How Top 5 Tech Giants Make Their Billions https://t.co/DnYCQ7uWRe by @VisualCap $AAPL $GOOG $MSFT $AMZN $FB cc @500\u2026
p271
aV2017-05-16 | RT @dahowlett: Diane Green is one of the smartest people I see on the circuit. She is shaking things up at $GOOG #SAPPHIRENOW https://t.co/\u2026
p272
aV2017-05-16 | RT @HedgeMind: 10 most popular stocks among hedge funds: $FB $CHTR $BAC $AMZN $MSFT $GOOG $V $BABA $AAPL $TWX https://t.co/bbzdGjKgQX
p273
aV2017-05-16 | Alphabet Inc $GOOG Director L John Doerr Sells 13,355 Shares https://t.co/luLdLEcn9Z
p274
aV2017-05-16 | Alphabet Inc $GOOG Director L John Doerr Sells 13,355 Shares https://t.co/pgOTKPAcwY #acn
p275
aV2017-05-16 | Insider Trading Activity Alphabet Inc (NASDAQ:GOOG) \u2013 Director Sold 13,355 shares of Stock https://t.co/knDaJYa7NS $GOOG
p276
aV2017-05-16 | RT @davemcclure: Chart: How Top 5 Tech Giants Make Their Billions https://t.co/DnYCQ7uWRe by @VisualCap $AAPL $GOOG $MSFT $AMZN $FB cc @500\u2026
p277
aV2017-05-16 | Alphabet Inc $GOOG Director L John Doerr Sells 13,355 Shares https://t.co/6wxo572FK5
p278
aV2017-05-16 | RT @MarketSmith: Google acquires innovative VR gaming company Owlchemy Labs: https://t.co/PxuienxDJA $GOOGL $GOOG
p279
aV2017-05-16 | RT @MarketSmith: Google acquires innovative VR gaming company Owlchemy Labs: https://t.co/PxuienxDJA $GOOGL $GOOG
p280
aV2017-05-16 | RT @TheMrDev: Re RUT $RUT 1030~11am morning window watch $IWM $VIX $NDX $QQQ $NQ_F $ES_F $SPY $SPX $IBM $TF_F $MSFT $GOOG $FB $DJI @cnbc $H\u2026
p281
aV2017-05-16 | RT ElixiumCrypto: Are you Bullish or Bearish on #Google? Start #Trading $GOOG with #Bitcoin. 15:1 Leverage. #Stock\u2026 https://t.co/Tyny5TSMMv
p282
aV2017-05-16 | RT @MarketSmith: Google acquires innovative VR gaming company Owlchemy Labs: https://t.co/PxuienxDJA $GOOGL $GOOG
p283
aV2017-05-16 | RT @EricJhonsa: What to keep an eye on during as $GOOG's I/O conference unfolds. https://t.co/WF2R66N3aH
p284
aV2017-05-16 | RT @forgefirst: $260B rise in mkt caps of $FB $AAPL $GOOG $NFLX &amp; $AMZN ~equal to cap lost by remaining ~495 names in the #SPX during past\u2026
p285
aV2017-05-16 | RT @Convertbond: Since March 1  FANG Stocks: +$270B Rest of the S&amp;P 500: -$260B  Via @KaiPflughaupt   $FB $AAPL $AMZN $NFLX  $GOOG
p286
aV2017-05-16 | RT @TheMrDev: Re RUT $RUT 1030~11am morning window watch $IWM $VIX $NDX $QQQ $NQ_F $ES_F $SPY $SPX $IBM $TF_F $MSFT $GOOG $FB $DJI @cnbc $H\u2026
p287
aV2017-05-16 | RT @TheMrDev: Re RUT $RUT 1030~11am morning window watch $IWM $VIX $NDX $QQQ $NQ_F $ES_F $SPY $SPX $IBM $TF_F $MSFT $GOOG $FB $DJI @cnbc $H\u2026
p288
aV2017-05-16 | Questioning The Structural Profitability Of Snap https://t.co/M9ATKwZpaw $TWTR $GOOG $FB $GOOGL $SNAP
p289
aV2017-05-16 | $GOOG The top iPhone and iPad apps on App Store https://t.co/ZrpaIwkAL5
p290
aV2017-05-16 | RT @EricJhonsa: What to keep an eye on during as $GOOG's I/O conference unfolds. https://t.co/WF2R66N3aH
p291
aV2017-05-16 | What to keep an eye on during as $GOOG's I/O conference unfolds. https://t.co/WF2R66N3aH
p292
aV2017-05-16 | Alphabet Inc $GOOG Director L John Doerr Sells 13,355 Shares https://t.co/I0YTydrIL9
p293
aV2017-05-16 | Alphabet Inc $GOOG Director L John Doerr Sells 13,355 Shares https://t.co/4PIJMOOlZE
p294
aV2017-05-16 | Google to Push #AI Smarts to iPhone, New Photo Books Service https://t.co/B1GuXwTTAj $GOOG #investing
p295
aV2017-05-16 | Hey, do you know everything while trading #SP500? $GOOG $JNJ $GE https://t.co/Rwpf6Sogpu https://t.co/yW28BDCexP
p296
aV2017-05-16 | Are you Bullish or Bearish on #Google? Start #Trading $GOOG with #Bitcoin. 15:1 Leverage. #Stocks #Blockchain #BTC\u2026 https://t.co/e6KJwFP0Fb
p297
aV2017-05-16 | RT @TheMrDev: Plan as Internals = weak bullish state $RUT $IWM $VIX $NDX $QQQ $NQ_F $ES_F $SPY $SPX $IBM $TF_F $MSFT $GOOG $FB $DJI @cnbc $\u2026
p298
aV2017-05-16 | RT @Convertbond: Since March 1  FANG Stocks: +$270B Rest of the S&amp;P 500: -$260B  Via @KaiPflughaupt   $FB $AAPL $AMZN $NFLX  $GOOG
p299
aV2017-05-16 | Plan as Internals = weak bullish state $RUT $IWM $VIX $NDX $QQQ $NQ_F $ES_F $SPY $SPX $IBM $TF_F $MSFT $GOOG $FB\u2026 https://t.co/zSPtOzrOdt
p300
aV2017-05-16 | RT @dahowlett: Diane Green is one of the smartest people I see on the circuit. She is shaking things up at $GOOG #SAPPHIRENOW https://t.co/\u2026
p301
aV2017-05-16 | $GOOG How Google's band of hardware pirates has re-invented itself after its legendary... https://t.co/zsfwHsMU62
p302
asI3
(lp303
V2017-05-15 | #GoogleAssistant coming to #iOS as a standalone app. Would you rather prefer #Siri on #Apple's #iPhone? $AAPL $GOOG  https://t.co/4ljIOxI8dN
p304
aV2017-05-15 | Google unveils new ad policies $GOOG $GOOGL https://t.co/0gTcf78MDg
p305
aV2017-05-15 | $GOOG - Uber Ordered to Return Documents in Self-Driving Fight With Waymo https://t.co/V0c3WPgUA1
p306
aV2017-05-15 | That triple bottom long on $TWTR &lt;3 $NFLX $FB $AAPL $TSLA $GOOG $AMZN $SNAP $FB Todays Trades https://t.co/GCQPBtZZqv
p307
aV2017-05-15 | Interesting stats in an $AMZN Prime shopper survey. Drives home the threat Prime poses to $GOOG's search ad sales.\u2026 https://t.co/xMV9wcE75a
p308
aV2017-05-15 | RT @coinspice: https://t.co/gXYW06qHA8  #Trading with #Bitcoin  @elixiumbitcoin #Forex #Stocks $ES $CL $GC $GOOG $AAPL $TSLA $SPY $QQQ #Blo\u2026
p309
aV2017-05-15 | RT @zerofiltertruth: With decent trends &amp; #KKR now involved - Possible $P upgrades in AM   It's pennies for $FB &amp; they need #AI music like\u2026
p310
aV2017-05-15 | RT @DanielEran: Google is super angry that its work was stolen by Uber, oblivious to 18 years of $GOOG stealing others work  https://t.co/I\u2026
p311
aV2017-05-15 | Amen @RanaForoohar Silicon Valley has too much power https://t.co/gf2pWyfif5 via @FT  $FB $GOOG $AMZN
p312
aV2017-05-15 | RT @davemcclure: Chart: How Top 5 Tech Giants Make Their Billions https://t.co/DnYCQ7uWRe by @VisualCap $AAPL $GOOG $MSFT $AMZN $FB cc @500\u2026
p313
aV2017-05-15 | RT @diggydoy: Man do I love to see this.  Druckenmiller all over $GOOG https://t.co/U7YQH3Wsef
p314
aV2017-05-15 | $AAPL $GOOG $BABA https://t.co/Zv6PcRTwHK
p315
aV2017-05-15 | RT @DanielEran: Google is super angry that its work was stolen by Uber, oblivious to 18 years of $GOOG stealing others work  https://t.co/I\u2026
p316
aV2017-05-15 | Man do I love to see this.  Druckenmiller all over $GOOG https://t.co/U7YQH3Wsef
p317
aV2017-05-15 | @Seventeen_Mile so she slams $FB &amp; $GOOG for grading their own homework, but wants advertisers to accept her in-hou\u2026 https://t.co/2n1YojcJn3
p318
aV2017-05-15 | What is it ahead for US Tech Giants? Check what analysts have to say $GOOG $TWTR $AAPL https://t.co/l3Lv2AAjzE https://t.co/xa4y9Ky54g
p319
aV2017-05-15 | $GOOG and $GOOGL both look great, and still seeing big call buys.  $ISRG also setting up after a stall.  $ULTA not quite ready maybe.
p320
aV2017-05-15 | RT @androsForm: $GOOG $GOOGL I've found the real Russian "hacker"! Plus the info is just given to him. Uber-hack. https://t.co/5cIukeL5rp
p321
aV2017-05-15 | TechCrunch Disrupt: Ford open to talks with Waymo https://t.co/JlMsU42T9k $F $GOOG $GOOGL
p322
aV2017-05-15 | @StrangestTribeX I see, so no legal barriers. But still a grey zone, no? Eg if VA took a stake in $GOOG, imagine pr\u2026 https://t.co/jbyUQUO3mS
p323
aV2017-05-15 | I invested in $GOOGL at the IPO price back in '04, i'm doin' OK  thanks ....it was called $GOOG at the time https://t.co/2Y5GcNVqkQ
p324
aV2017-05-15 | RT @DanielEran: Google is super angry that its work was stolen by Uber, oblivious to 18 years of $GOOG stealing others work  https://t.co/I\u2026
p325
aV2017-05-15 | RT @davemcclure: Chart: How Top 5 Tech Giants Make Their Billions https://t.co/DnYCQ7uWRe by @VisualCap $AAPL $GOOG $MSFT $AMZN $FB cc @500\u2026
p326
aV2017-05-15 | $NTDOY $AAPL $GOOG:  Video Quiz: How Much Do You Know About Nintendo\u2019s \u2018The Legend \u2026:  https://t.co/ZiEw4j5ZMP
p327
aV2017-05-15 | 10 Marketing Ideas For Your New Business On a Tight Budget https://t.co/9rTYpLs76b $FB $GOOG $YELP
p328
aV2017-05-15 | $GOOG:  AWS Will Take Amazon\u2019s Stock Price Past $1000:  https://t.co/vUlD2RrZez
p329
aV2017-05-15 | Stay ahead with Nasdaq 100 news, views &amp; analysis $MSFT $AAPL $GOOG https://t.co/W1OB9ZtUgi https://t.co/9BSX47XBgu
p330
aV2017-05-15 | RT @coinspice: https://t.co/gXYW06qHA8  #Trading with #Bitcoin  @elixiumbitcoin #Forex #Stocks $ES $CL $GC $GOOG $AAPL $TSLA $SPY $QQQ #Blo\u2026
p331
aV2017-05-15 | RT @theflynews: On The Fly: Top stock stories for Monday $PFPT $FEYE $FTNT $CHKP $SYMC $TSLA $AAPL $GOOG $GOOGL $P $KKR $PTHN $TMO\u2026 https:/\u2026
p332
aV2017-05-15 | Google is Tweaking its Ad Blacklist Policy. #AdTech #blacklist $GOOG @acfou https://t.co/FHOQjfmN5h https://t.co/GAIoV4cBQU
p333
aV2017-05-15 | RT @davemcclure: Chart: How Top 5 Tech Giants Make Their Billions https://t.co/DnYCQ7uWRe by @VisualCap $AAPL $GOOG $MSFT $AMZN $FB cc @500\u2026
p334
aV2017-05-15 | RT @davemcclure: Chart: How Top 5 Tech Giants Make Their Billions https://t.co/DnYCQ7uWRe by @VisualCap $AAPL $GOOG $MSFT $AMZN $FB cc @500\u2026
p335
aV2017-05-15 | Tesla Shareholders Have Things To Worry About, But Morgan Stanley's Downgrade Isn't One Of ... https://t.co/VRZYKiQTHy $AAPL $GOOG $GOOGL
p336
aV2017-05-15 | RT @coinspice: https://t.co/gXYW06qHA8  #Trading with #Bitcoin  @elixiumbitcoin #Forex #Stocks $ES $CL $GC $GOOG $AAPL $TSLA $SPY $QQQ #Blo\u2026
p337
aV2017-05-15 | Tesla Shareholders Have Things To Worry About, But Morgan Stanley's Downgrade Isn't One Of ... https://t.co/fdEA8i0ERT $AAPL #APPLE $GOOG
p338
aV2017-05-15 | Hackers can steal your money without breaking a sweat. Here\u2019s how to stop them in their tracks: https://t.co/Fy07sZV0G8 $GOOG $LOGM
p339
aV2017-05-15 | RT @DanielEran: Google is super angry that its work was stolen by Uber, oblivious to 18 years of $GOOG stealing others work  https://t.co/I\u2026
p340
aV2017-05-15 | RT @davemcclure: Chart: How Top 5 Tech Giants Make Their Billions https://t.co/DnYCQ7uWRe by @VisualCap $AAPL $GOOG $MSFT $AMZN $FB cc @500\u2026
p341
aV2017-05-15 | How Google Took Over the Classroom https://t.co/faq5BTYJlS $GOOG $GOOGL
p342
aV2017-05-15 | RT @ProcessISInc: \U0001f575\U0001f3fd\U0001f4ad\U0001f914\U0001f647\U0001f3fd\U0001f633\U0001f644Tesla: Beware Apple &amp; Alphabet? Correlation causation bridge retail shaft enough said \U0001f602$TSLA $GOOG $AAPL https://\u2026
p343
aV2017-05-15 | RT @BK_Stocks: Download our free #stock alert app on #Google \U0001f449 https://t.co/Yi8yIcpiQt or #Apple \U0001f449 https://t.co/sKxtnGdzxN #saturdaymorning\u2026
p344
aV2017-05-15 | RT @BK_Stocks: Download our free #stock alert app on #Google \U0001f449 https://t.co/Yi8yIcpiQt or #Apple \U0001f449 https://t.co/sKxtnGdzxN #saturdaymorning\u2026
p345
aV2017-05-15 | RT @coinspice: https://t.co/gXYW06qHA8  #Trading with #Bitcoin  @elixiumbitcoin #Forex #Stocks $ES $CL $GC $GOOG $AAPL $TSLA $SPY $QQQ #Blo\u2026
p346
aV2017-05-15 | On The Fly: Top stock stories for Monday $PFPT $FEYE $FTNT $CHKP $SYMC $TSLA $AAPL $GOOG $GOOGL $P $KKR $PTHN $TMO\u2026 https://t.co/q3hAugIJr7
p347
aV2017-05-15 | RT @davemcclure: Chart: How Top 5 Tech Giants Make Their Billions https://t.co/DnYCQ7uWRe by @VisualCap $AAPL $GOOG $MSFT $AMZN $FB cc @500\u2026
p348
aV2017-05-15 | RT @payemarkets: $GOOG #Waymo and #Lift sign agreement on self driving cars.   #Google #selfdrivingcar https://t.co/qLIP2mWiw5
p349
aV2017-05-15 | Facebook: If Anything, It's Undervalued https://t.co/kaQpJ1yj2v $GOOG $GOOGL $SNAP $TWTR $FB
p350
aV2017-05-15 | RT @coinspice: https://t.co/gXYW06qHA8  #Trading with #Bitcoin  @elixiumbitcoin #Forex #Stocks $ES $CL $GC $GOOG $AAPL $TSLA $SPY $QQQ #Blo\u2026
p351
aV2017-05-15 | RT @theflynews: Tesla downgraded by former bull worried by Apple, Alphabet competition $TSLA $GOOG $GOOGL $AAPL https://t.co/BymkorBqqi
p352
aV2017-05-15 | RT @theflynews: Tesla downgraded by former bull worried by Apple, Alphabet competition $TSLA $GOOG $GOOGL $AAPL https://t.co/BymkorBqqi
p353
aV2017-05-15 | Top Market News: What Happened In Investing Today $AIG $UBER $GOOG $GOOGL $HACK https://t.co/BvSsHmosVn #Investing\u2026 https://t.co/bh5wespYHL
p354
aV2017-05-15 | Top Market News: What Happened In Investing Today https://t.co/bTEYqCLnQ9 $AIG $UBER $GOOG $GOOGL $HACK $F $GM
p355
aV2017-05-15 | Top Market News: What Happened In Investing Today https://t.co/4w0DjDoDbt $AIG $UBER $GOOG $GOOGL $HACK
p356
aV2017-05-15 | Top Market News: What Happened In Investing Today https://t.co/RflvyXxQBZ $AIG $UBER $GOOG $GOOGL $HACK
p357
aV2017-05-15 | Questioning The Structural Profitability Of Snap $TWTR $GOOG $FB $GOOGL $SNAP https://t.co/opqGJ2tX2v #Investing\u2026 https://t.co/m6Hg92PYJt
p358
aV2017-05-15 | $F has been angling towards ride-sharing to crush $UBER. $GOOG could accelerate $F timeline. Long $F
p359
aV2017-05-15 | How Lyft could fill a hole in $GOOG's self-driving strategy. https://t.co/zzeJbDZZPy
p360
aV2017-05-15 | $F CTO stated they are open to working a mutually beneficial deal with $GOOG
p361
aV2017-05-15 | Questioning The Structural Profitability Of Snap https://t.co/yWNBG8nrP3 $TWTR $GOOG $FB $GOOGL $SNAP
p362
aV2017-05-15 | Questioning The Structural Profitability Of Snap https://t.co/vAmDi5m5QJ $TWTR $GOOG $FB $GOOGL $SNAP
p363
aV2017-05-15 | \U0001f575\U0001f3fd\U0001f4ad\U0001f914\U0001f647\U0001f3fd\U0001f633\U0001f644Tesla: Beware Apple &amp; Alphabet? Correlation causation bridge retail shaft enough said \U0001f602$TSLA $GOOG $AAPL https://t.co/z0rWzTEYjr
p364
aV2017-05-15 | RT @TMFEnergy: Tesla Stock Downgraded: 5 Things You Need to Know @themotleyfool #stocks $AAPL, $GOOGL, $TSLA, $GOOG https://t.co/W1Y7lJ7qY3
p365
aV2017-05-15 | RT @davemcclure: Chart: How Top 5 Tech Giants Make Their Billions https://t.co/DnYCQ7uWRe by @VisualCap $AAPL $GOOG $MSFT $AMZN $FB cc @500\u2026
p366
aV2017-05-15 | Looks like he is properly hedged with large tech....  #norisk $GOOG $GOOGL $AMZN https://t.co/CPGioDRdWD
p367
aV2017-05-15 | AlphaNet generated a new report for $GOOG @http://aifinetwork.blogspot.com/2017/04/goog.html #tech https://t.co/vxm59F6DIZ
p368
aV2017-05-15 | RT @davemcclure: Chart: How Top 5 Tech Giants Make Their Billions https://t.co/DnYCQ7uWRe by @VisualCap $AAPL $GOOG $MSFT $AMZN $FB cc @500\u2026
p369
aV2017-05-15 | Judge tells Uber to return Waymo files taken by engineer $GOOG https://t.co/zGbTEs4ZZO
p370
aV2017-05-15 | Monitor your watchlist of assets for tweets - US Tech Giants https://t.co/J74uV6qAnD $AAPL $GOOG $MSFT $FB
p371
aV2017-05-15 | RT @davemcclure: Chart: How Top 5 Tech Giants Make Their Billions https://t.co/DnYCQ7uWRe by @VisualCap $AAPL $GOOG $MSFT $AMZN $FB cc @500\u2026
p372
aV2017-05-15 | TechCrunch Disrupt: Ford open to talks with Waymo https://t.co/ZYicdpbfHO $F $GOOG $GOOGL #sitifatimah #malaysia #financialplanning
p373
aV2017-05-15 | Amid $GOOG lawsuit, judge orders @Uber exec to stop working on #selfdrivingcars program https://t.co/hOTCQzEJdQ https://t.co/BE6fc8Zw9o
p374
aV2017-05-15 | TechCrunch Disrupt: Ford open to talks with Waymo https://t.co/erJHTgiYVG $F $GOOG $GOOGL
p375
aV2017-05-15 | TechCrunch Disrupt: Ford open to talks with Waymo https://t.co/KlLIeJf0Cg $F $GOOG $GOOGL
p376
aV2017-05-15 | TechCrunch Disrupt: Ford open to talks with Waymo https://t.co/S4uQPd15p5 $F $GOOG $GOOGL
p377
aV2017-05-15 | RT @davemcclure: Chart: How Top 5 Tech Giants Make Their Billions https://t.co/DnYCQ7uWRe by @VisualCap $AAPL $GOOG $MSFT $AMZN $FB cc @500\u2026
p378
aV2017-05-15 | Nice attempt to Save RUT $RUT from its Daily SELL SIGNALS $IWM $VIX $NDX $QQQ $NQ_F $ES_F $SPY $SPX $IBM $TF_F\u2026 https://t.co/zLhk64FxEk
p379
aV2017-05-15 | RT @coinspice: https://t.co/gXYW06qHA8  #Trading with #Bitcoin  @elixiumbitcoin #Forex #Stocks $ES $CL $GC $GOOG $AAPL $TSLA $SPY $QQQ #Blo\u2026
p380
aV2017-05-15 | RT @davemcclure: Chart: How Top 5 Tech Giants Make Their Billions https://t.co/DnYCQ7uWRe by @VisualCap $AAPL $GOOG $MSFT $AMZN $FB cc @500\u2026
p381
aV2017-05-15 | Check out https://t.co/2vmgkAvfOh for $GOOG new social report. #bigdata https://t.co/oWkOgc07Ka
p382
aV2017-05-15 | RT @coinspice: https://t.co/gXYW06qHA8  #Trading with #Bitcoin  @elixiumbitcoin #Forex #Stocks $ES $CL $GC $GOOG $AAPL $TSLA $SPY $QQQ #Blo\u2026
p383
aV2017-05-15 | RT @DanielEran: Google is super angry that its work was stolen by Uber, oblivious to 18 years of $GOOG stealing others work  https://t.co/I\u2026
p384
aV2017-05-15 | Access curated tweets- high relevancy, less spam - US Tech Giants https://t.co/J74uV6qAnD $AAPL $GOOG $MSFT $FB
p385
aV2017-05-15 | Alphabet Inc $GOOG Raised to \u201cHold\u201d at Vetr Inc. https://t.co/wPi3FdnAgv
p386
aV2017-05-15 | Alphabet Inc $GOOG Raised to \u201cHold\u201d at Vetr Inc. https://t.co/05REOHoY3h
p387
aV2017-05-15 | I bet at 819.54 $AZO was "destined to go to $1000 per share"  #HindsightObservations $AMZN $GOOG $GOOGL
p388
aV2017-05-15 | How 5 Tech Giants Make Their Billions $AAPL $GOOG $MSFT $AMZN $FB cc @500Startups @VisualCap  https://t.co/4YuHbuZxqR
p389
aV2017-05-15 | $GOOG super strong and ready to roll to 1000.00
p390
aV2017-05-15 | What's Alphabet Got to Do With Healthcare? https://t.co/LAjqgyYtQI $GOOG $GOOGL $DXCM $MDT
p391
aV2017-05-15 | $SHLD This is bad, right? Bad? #stocks #stockmarket #investing #finance $QQQ $AMZN $GOOG $GOOGL $NFLX $FB $AAPL\u2026 https://t.co/y3QrQVsJie
p392
aV2017-05-15 | RT @davemcclure: Chart: How Top 5 Tech Giants Make Their Billions https://t.co/DnYCQ7uWRe by @VisualCap $AAPL $GOOG $MSFT $AMZN $FB cc @500\u2026
p393
asI4
(lp394
V2017-05-14 | RT @coinspice: https://t.co/gXYW06qHA8  #Trading with #Bitcoin  @elixiumbitcoin #Forex #Stocks $ES $CL $GC $GOOG $AAPL $TSLA $SPY $QQQ #Blo\u2026
p395
aV2017-05-14 | RT @coinspice: https://t.co/gXYW06qHA8  #Trading with #Bitcoin  @elixiumbitcoin #Forex #Stocks $ES $CL $GC $GOOG $AAPL $TSLA $SPY $QQQ #Blo\u2026
p396
aV2017-05-14 | Check out https://t.co/2vmgkAvfOh for $GOOG new social report. #markets https://t.co/OQ267k6x0y
p397
aV2017-05-14 | RT @davemcclure: Chart: How Top 5 Tech Giants Make Their Billions https://t.co/DnYCQ7uWRe by @VisualCap $AAPL $GOOG $MSFT $AMZN $FB cc @500\u2026
p398
aV2017-05-14 | https://t.co/Xz5nLQXDtn Helpful Biotech Stock email updates for FREE? Hell yes! $ALNY $AA $GOOG
p399
aV2017-05-14 | RT @davemcclure: Chart: How Top 5 Tech Giants Make Their Billions https://t.co/DnYCQ7uWRe by @VisualCap $AAPL $GOOG $MSFT $AMZN $FB cc @500\u2026
p400
aV2017-05-14 | RT @coinspice: https://t.co/gXYW06qHA8  #Trading with #Bitcoin  @elixiumbitcoin #Forex #Stocks $ES $CL $GC $GOOG $AAPL $TSLA $SPY $QQQ #Blo\u2026
p401
aV2017-05-14 | RT @davemcclure: Chart: How Top 5 Tech Giants Make Their Billions https://t.co/DnYCQ7uWRe by @VisualCap $AAPL $GOOG $MSFT $AMZN $FB cc @500\u2026
p402
aV2017-05-14 | RT @coinspice: https://t.co/gXYW06qHA8  #Trading with #Bitcoin  @elixiumbitcoin #Forex #Stocks $ES $CL $GC $GOOG $AAPL $TSLA $SPY $QQQ #Blo\u2026
p403
aV2017-05-14 | RT @davemcclure: Chart: How Top 5 Tech Giants Make Their Billions https://t.co/DnYCQ7uWRe by @VisualCap $AAPL $GOOG $MSFT $AMZN $FB cc @500\u2026
p404
aV2017-05-14 | RT @davemcclure: Chart: How Top 5 Tech Giants Make Their Billions https://t.co/DnYCQ7uWRe by @VisualCap $AAPL $GOOG $MSFT $AMZN $FB cc @500\u2026
p405
aV2017-05-14 | RT @davemcclure: Chart: How Top 5 Tech Giants Make Their Billions https://t.co/DnYCQ7uWRe by @VisualCap $AAPL $GOOG $MSFT $AMZN $FB cc @500\u2026
p406
aV2017-05-14 | Monitor your watchlist of assets for tweets - US Tech Giants https://t.co/J74uV6qAnD $AAPL $GOOG $MSFT $FB
p407
aV2017-05-14 | RT @davemcclure: Chart: How Top 5 Tech Giants Make Their Billions https://t.co/DnYCQ7uWRe by @VisualCap $AAPL $GOOG $MSFT $AMZN $FB cc @500\u2026
p408
aV2017-05-14 | RT @davemcclure: Chart: How Top 5 Tech Giants Make Their Billions https://t.co/DnYCQ7uWRe by @VisualCap $AAPL $GOOG $MSFT $AMZN $FB cc @500\u2026
p409
aV2017-05-14 | RT @coinspice: https://t.co/gXYW06qHA8  #Trading with #Bitcoin  @elixiumbitcoin #Forex #Stocks $ES $CL $GC $GOOG $AAPL $TSLA $SPY $QQQ #Blo\u2026
p410
aV2017-05-14 | RT @coinspice: https://t.co/gXYW06qHA8  #Trading with #Bitcoin  @elixiumbitcoin #Forex #Stocks $ES $CL $GC $GOOG $AAPL $TSLA $SPY $QQQ #Blo\u2026
p411
aV2017-05-14 | https://t.co/gXYW06qHA8  #Trading with #Bitcoin  @elixiumbitcoin #Forex #Stocks $ES $CL $GC $GOOG $AAPL $TSLA $SPY\u2026 https://t.co/2i7MS3Ep1k
p412
aV2017-05-14 | RT @davemcclure: Chart: How Top 5 Tech Giants Make Their Billions https://t.co/DnYCQ7uWRe by @VisualCap $AAPL $GOOG $MSFT $AMZN $FB cc @500\u2026
p413
aV2017-05-14 | RT @BQInvstTraining: How 5 Tech Giants Make their Billions  $AAPL $GOOG $MSFT $AMZN $FB @VisualCap https://t.co/SCylmbCk9u
p414
aV2017-05-14 | RT @davemcclure: Chart: How Top 5 Tech Giants Make Their Billions https://t.co/DnYCQ7uWRe by @VisualCap $AAPL $GOOG $MSFT $AMZN $FB cc @500\u2026
p415
aV2017-05-14 | RT @eventdrivennews: #Netneutrality rules are unlikely to be resolved in 2017: https://t.co/kqdgHgTpLk $T $VZ $CHTR $CCV $GOOG $ETSY $FB $E\u2026
p416
aV2017-05-14 | Track curated news and tweets for multiple tickers - US Tech Giants https://t.co/J74uV6qAnD $AAPL $GOOG $MSFT $FB
p417
aV2017-05-14 | RT @ElixiumCrypto: Are you Bullish or Bearish on #Google? Start #Trading $GOOG with #Bitcoin. 15:1 Leverage. #Stocks #Blockchain #BTC   htt\u2026
p418
aV2017-05-14 | Are you Bullish or Bearish on #Google? Start #Trading $GOOG with #Bitcoin. 15:1 Leverage. #Stocks #Blockchain #BTC\u2026 https://t.co/27atVH9r8R
p419
aV2017-05-14 | $GOOG remains in a Bullish posture.  A pull back to fill the Gap is expected.  Can momentum hold? - Google Inc.... https://t.co/AfOQDxLW2q
p420
aV2017-05-14 | $GOOG remains in a Bullish posture.  A pull back to fill the Gap is expected.  Can momentum hold? - Google Inc. https://t.co/s6a51wdZet
p421
aV2017-05-14 | What is it ahead for US Tech Giants? Check what analysts have to say $GOOG $TWTR $AAPL https://t.co/l3Lv2AAjzE https://t.co/gUIWqyVm6v
p422
aV2017-05-14 | RT @davemcclure: Chart: How Top 5 Tech Giants Make Their Billions https://t.co/DnYCQ7uWRe by @VisualCap $AAPL $GOOG $MSFT $AMZN $FB cc @500\u2026
p423
aV2017-05-14 | RT @davemcclure: Chart: How Top 5 Tech Giants Make Their Billions https://t.co/DnYCQ7uWRe by @VisualCap $AAPL $GOOG $MSFT $AMZN $FB cc @500\u2026
p424
aV2017-05-14 | RT @davemcclure: Chart: How Top 5 Tech Giants Make Their Billions https://t.co/DnYCQ7uWRe by @VisualCap $AAPL $GOOG $MSFT $AMZN $FB cc @500\u2026
p425
aV2017-05-14 | RT @davemcclure: Chart: How Top 5 Tech Giants Make Their Billions https://t.co/DnYCQ7uWRe by @VisualCap $AAPL $GOOG $MSFT $AMZN $FB cc @500\u2026
p426
aV2017-05-14 | #Netneutrality rules are unlikely to be resolved in 2017: https://t.co/kqdgHgTpLk $T $VZ $CHTR $CCV $GOOG $ETSY $FB $EBAY $NFLX @ElleBeyoud
p427
aV2017-05-14 | Are you Bullish or Bearish on #Google? Start #Trading $GOOG with #Bitcoin. 15:1 Leverage. #Stocks #Blockchain #BTC\u2026 https://t.co/vn8QmMzAAv
p428
aV2017-05-14 | Stay ahead with Nasdaq 100 news, views &amp; analysis $MSFT $AAPL $GOOG https://t.co/W1OB9ZtUgi https://t.co/VspO4gOit3
p429
aV2017-05-14 | RT @davemcclure: Chart: How Top 5 Tech Giants Make Their Billions https://t.co/DnYCQ7uWRe by @VisualCap $AAPL $GOOG $MSFT $AMZN $FB cc @500\u2026
p430
aV2017-05-14 | The next populist wave:  Weakening media co's vs greedy duopoly of $FB and $GOOG with powerful DC lobbying, robots,\u2026 https://t.co/drBVPK46AE
p431
aV2017-05-14 | Guess Who Comes Up When You Google the President of the United States? https://t.co/CDFg38I4jW via @gizmodo $GOOG
p432
aV2017-05-14 | RT @talkingmoose_: #boycott companies that use #h1b staff Buy 2nd hand hardware privately, with cash $INTC $GOOG $MSFT $IBM $QCOM $NVDA $AA\u2026
p433
aV2017-05-14 | RT @talkingmoose_: #bigTech uses #h1b to displace #Americans for profit, abuse workers &amp; cap growth in R&amp;D costs $INTC $GOOG $MSFT $IBM $QC\u2026
p434
aV2017-05-14 | RT @talkingmoose_: Corps w/#h1b staff are #unAmerican $INTC $DIS $GOOG $MSFT $IBM $QCOM $NVDA $JPM $AAPL $AMZN $ORCL $WFC $GS $BAC $HPE $EB\u2026
p435
aV2017-05-14 | RT @davemcclure: Chart: How Top 5 Tech Giants Make Their Billions https://t.co/DnYCQ7uWRe by @VisualCap $AAPL $GOOG $MSFT $AMZN $FB cc @500\u2026
p436
aV2017-05-14 | RT @davemcclure: Chart: How Top 5 Tech Giants Make Their Billions https://t.co/DnYCQ7uWRe by @VisualCap $AAPL $GOOG $MSFT $AMZN $FB cc @500\u2026
p437
aV2017-05-14 | RT @davemcclure: Chart: How Top 5 Tech Giants Make Their Billions https://t.co/DnYCQ7uWRe by @VisualCap $AAPL $GOOG $MSFT $AMZN $FB cc @500\u2026
p438
aV2017-05-14 | RT @davemcclure: Chart: How Top 5 Tech Giants Make Their Billions https://t.co/DnYCQ7uWRe by @VisualCap $AAPL $GOOG $MSFT $AMZN $FB cc @500\u2026
p439
aV2017-05-14 | RT @davemcclure: Chart: How Top 5 Tech Giants Make Their Billions https://t.co/DnYCQ7uWRe by @VisualCap $AAPL $GOOG $MSFT $AMZN $FB cc @500\u2026
p440
aV2017-05-14 | RT evankirstel: What a difference ten years make.. #tech $AAPL $GOOG $MSFT #digitaltransformation #technology... https://t.co/1dDNwIbR2y
p441
aV2017-05-14 | RT evankirstel: What a difference ten years make.. #tech $AAPL $GOOG $MSFT #digitaltransformation #technology #Sil\u2026 https://t.co/jYsH7t3kxf
p442
aV2017-05-14 | RT @evankirstel: What a difference ten years make.. #tech $AAPL $GOOG $MSFT #digitaltransformation #technology #SiliconValley @JayShettyIW\u2026
p443
aV2017-05-14 | RT @davemcclure: Chart: How Top 5 Tech Giants Make Their Billions https://t.co/DnYCQ7uWRe by @VisualCap $AAPL $GOOG $MSFT $AMZN $FB cc @500\u2026
p444
aV2017-05-14 | RT @evankirstel: What a difference ten years make.. #tech $AAPL $GOOG $MSFT #digitaltransformation #technology #SiliconValley @JayShettyIW\u2026
p445
aV2017-05-14 | RT @davemcclure: Chart: How Top 5 Tech Giants Make Their Billions https://t.co/DnYCQ7uWRe by @VisualCap $AAPL $GOOG $MSFT $AMZN $FB cc @500\u2026
p446
aV2017-05-14 | RT @davemcclure: Chart: How Top 5 Tech Giants Make Their Billions https://t.co/DnYCQ7uWRe by @VisualCap $AAPL $GOOG $MSFT $AMZN $FB cc @500\u2026
p447
aV2017-05-14 | RT @evankirstel: What a difference ten years make.. #tech $AAPL $GOOG $MSFT #digitaltransformation #technology #SiliconValley @JayShettyIW\u2026
p448
aV2017-05-14 | RT @davemcclure: Chart: How Top 5 Tech Giants Make Their Billions https://t.co/DnYCQ7uWRe by @VisualCap $AAPL $GOOG $MSFT $AMZN $FB cc @500\u2026
p449
aV2017-05-14 | RT @davemcclure: Chart: How Top 5 Tech Giants Make Their Billions https://t.co/DnYCQ7uWRe by @VisualCap $AAPL $GOOG $MSFT $AMZN $FB cc @500\u2026
p450
aV2017-05-14 | RT @davemcclure: Chart: How Top 5 Tech Giants Make Their Billions https://t.co/DnYCQ7uWRe by @VisualCap $AAPL $GOOG $MSFT $AMZN $FB cc @500\u2026
p451
aV2017-05-14 | RT @davemcclure: Chart: How Top 5 Tech Giants Make Their Billions https://t.co/DnYCQ7uWRe by @VisualCap $AAPL $GOOG $MSFT $AMZN $FB cc @500\u2026
p452
aV2017-05-14 | RT @evankirstel: What a difference ten years make.. #tech $AAPL $GOOG $MSFT #digitaltransformation #technology #SiliconValley @JayShettyIW\u2026
p453
aV2017-05-14 | RT @evankirstel: What a difference ten years make.. #tech $AAPL $GOOG $MSFT #digitaltransformation #technology #SiliconValley @JayShettyIW\u2026
p454
aV2017-05-14 | RT @evankirstel: What a difference ten years make.. #tech $AAPL $GOOG $MSFT #digitaltransformation #technology #SiliconValley @JayShettyIW\u2026
p455
aV2017-05-14 | RT @evankirstel: What a difference ten years make.. #tech $AAPL $GOOG $MSFT #digitaltransformation #technology #SiliconValley @JayShettyIW\u2026
p456
aV2017-05-14 | RT @evankirstel: What a difference ten years make.. #tech $AAPL $GOOG $MSFT #digitaltransformation #technology #SiliconValley @JayShettyIW\u2026
p457
aV2017-05-14 | RT @evankirstel: What a difference ten years make.. #tech $AAPL $GOOG $MSFT #digitaltransformation #technology #SiliconValley @JayShettyIW\u2026
p458
aV2017-05-14 | $GOOG Another steady gain for shares of Alphabet this week, up over $5. The year's agains are now over 20%. Initi\u2026 https://t.co/x1PiOE5uki
p459
aV2017-05-14 | RT @davemcclure: Chart: How Top 5 Tech Giants Make Their Billions https://t.co/DnYCQ7uWRe by @VisualCap $AAPL $GOOG $MSFT $AMZN $FB cc @500\u2026
p460
aV2017-05-14 | RT @davemcclure: Chart: How Top 5 Tech Giants Make Their Billions https://t.co/DnYCQ7uWRe by @VisualCap $AAPL $GOOG $MSFT $AMZN $FB cc @500\u2026
p461
aV2017-05-14 | RT @davemcclure: Chart: How Top 5 Tech Giants Make Their Billions https://t.co/DnYCQ7uWRe by @VisualCap $AAPL $GOOG $MSFT $AMZN $FB cc @500\u2026
p462
aV2017-05-14 | RT @davemcclure: Chart: How Top 5 Tech Giants Make Their Billions https://t.co/DnYCQ7uWRe by @VisualCap $AAPL $GOOG $MSFT $AMZN $FB cc @500\u2026
p463
aV2017-05-14 | RT @davemcclure: Chart: How Top 5 Tech Giants Make Their Billions https://t.co/DnYCQ7uWRe by @VisualCap $AAPL $GOOG $MSFT $AMZN $FB cc @500\u2026
p464
aV2017-05-14 | RT @davemcclure: Chart: How Top 5 Tech Giants Make Their Billions https://t.co/DnYCQ7uWRe by @VisualCap $AAPL $GOOG $MSFT $AMZN $FB cc @500\u2026
p465
aV2017-05-14 | RT @davemcclure: Chart: How Top 5 Tech Giants Make Their Billions https://t.co/DnYCQ7uWRe by @VisualCap $AAPL $GOOG $MSFT $AMZN $FB cc @500\u2026
p466
aV2017-05-14 | RT @davemcclure: Chart: How Top 5 Tech Giants Make Their Billions https://t.co/DnYCQ7uWRe by @VisualCap $AAPL $GOOG $MSFT $AMZN $FB cc @500\u2026
p467
aV2017-05-14 | RT @davemcclure: Chart: How Top 5 Tech Giants Make Their Billions https://t.co/DnYCQ7uWRe by @VisualCap $AAPL $GOOG $MSFT $AMZN $FB cc @500\u2026
p468
aV2017-05-14 | RT @davemcclure: Chart: How Top 5 Tech Giants Make Their Billions https://t.co/DnYCQ7uWRe by @VisualCap $AAPL $GOOG $MSFT $AMZN $FB cc @500\u2026
p469
aV2017-05-14 | RT @davemcclure: Chart: How Top 5 Tech Giants Make Their Billions https://t.co/DnYCQ7uWRe by @VisualCap $AAPL $GOOG $MSFT $AMZN $FB cc @500\u2026
p470
aV2017-05-14 | RT @davemcclure: Chart: How Top 5 Tech Giants Make Their Billions https://t.co/DnYCQ7uWRe by @VisualCap $AAPL $GOOG $MSFT $AMZN $FB cc @500\u2026
p471
aV2017-05-14 | RT @StockQuotes_Now: \u26a1\ufe0f \u201cQ1 #Earnings 2017\u201d of large-cap #stocks such as $AAPL $MSFT $GOOG $AMZN $NFLX $TSLA $AMD $NVDA $FB $SNAP $TWTR  ht\u2026
p472
aV2017-05-14 | RT @davemcclure: Chart: How Top 5 Tech Giants Make Their Billions https://t.co/DnYCQ7uWRe by @VisualCap $AAPL $GOOG $MSFT $AMZN $FB cc @500\u2026
p473
aV2017-05-14 | RT @davemcclure: Chart: How Top 5 Tech Giants Make Their Billions https://t.co/DnYCQ7uWRe by @VisualCap $AAPL $GOOG $MSFT $AMZN $FB cc @500\u2026
p474
aV2017-05-14 | RT @davemcclure: Chart: How Top 5 Tech Giants Make Their Billions https://t.co/DnYCQ7uWRe by @VisualCap $AAPL $GOOG $MSFT $AMZN $FB cc @500\u2026
p475
aV2017-05-14 | $FB gets F on:  Reputation with publishers Diversity Fake News Ethics Antitrust  A on: D.C. Lobbying Making money M&amp;A Copying  $SNAP $GOOG
p476
aV2017-05-14 | \u26a1\ufe0f \u201cQ1 #Earnings 2017\u201d of large-cap #stocks such as $AAPL $MSFT $GOOG $AMZN $NFLX $TSLA $AMD $NVDA $FB $SNAP $TWTR  https://t.co/F9Nhg2jm0g
p477
aV2017-05-14 | RT @davemcclure: Chart: How Top 5 Tech Giants Make Their Billions https://t.co/DnYCQ7uWRe by @VisualCap $AAPL $GOOG $MSFT $AMZN $FB cc @500\u2026
p478
aV2017-05-14 | RT @davemcclure: Chart: How Top 5 Tech Giants Make Their Billions https://t.co/DnYCQ7uWRe by @VisualCap $AAPL $GOOG $MSFT $AMZN $FB cc @500\u2026
p479
aV2017-05-14 | RT @davemcclure: Chart: How Top 5 Tech Giants Make Their Billions https://t.co/DnYCQ7uWRe by @VisualCap $AAPL $GOOG $MSFT $AMZN $FB cc @500\u2026
p480
aV2017-05-14 | RT @davemcclure: Chart: How Top 5 Tech Giants Make Their Billions https://t.co/DnYCQ7uWRe by @VisualCap $AAPL $GOOG $MSFT $AMZN $FB cc @500\u2026
p481
aV2017-05-14 | RT @coinspice: https://t.co/pZYFHJP5aS   #Trading with #Bitcoin  @elixiumbitcoin #Forex #Stocks $ES $CL $GC $GOOG $AAPL $TSLA $SPY $QQQ #Bl\u2026
p482
aV2017-05-14 | RT @coinspice: https://t.co/pZYFHJP5aS   #Trading with #Bitcoin  @elixiumbitcoin #Forex #Stocks $ES $CL $GC $GOOG $AAPL $TSLA $SPY $QQQ #Bl\u2026
p483
aV2017-05-14 | RT @davemcclure: Chart: How Top 5 Tech Giants Make Their Billions https://t.co/DnYCQ7uWRe by @VisualCap $AAPL $GOOG $MSFT $AMZN $FB cc @500\u2026
p484
aV2017-05-14 | RT @davemcclure: Chart: How Top 5 Tech Giants Make Their Billions https://t.co/DnYCQ7uWRe by @VisualCap $AAPL $GOOG $MSFT $AMZN $FB cc @500\u2026
p485
aV2017-05-14 | RT @davemcclure: Chart: How Top 5 Tech Giants Make Their Billions https://t.co/DnYCQ7uWRe by @VisualCap $AAPL $GOOG $MSFT $AMZN $FB cc @500\u2026
p486
aV2017-05-14 | RT @MaglanCapital: $GSAT Sum of the Parts Valuation- $10++ Buyers: $T $VZ $S $TMUS $CHTR $CMCSA $AMZN $MSFT $GOOG $AAPL $FB $NFLX   #Spectr\u2026
p487
aV2017-05-14 | RT @davemcclure: Chart: How Top 5 Tech Giants Make Their Billions https://t.co/DnYCQ7uWRe by @VisualCap $AAPL $GOOG $MSFT $AMZN $FB cc @500\u2026
p488
aV2017-05-14 | RT @davemcclure: Chart: How Top 5 Tech Giants Make Their Billions https://t.co/DnYCQ7uWRe by @VisualCap $AAPL $GOOG $MSFT $AMZN $FB cc @500\u2026
p489
aV2017-05-14 | RT @davemcclure: Chart: How Top 5 Tech Giants Make Their Billions https://t.co/DnYCQ7uWRe by @VisualCap $AAPL $GOOG $MSFT $AMZN $FB cc @500\u2026
p490
aV2017-05-14 | RT @davemcclure: Chart: How Top 5 Tech Giants Make Their Billions https://t.co/DnYCQ7uWRe by @VisualCap $AAPL $GOOG $MSFT $AMZN $FB cc @500\u2026
p491
aV2017-05-14 | RT @davemcclure: Chart: How Top 5 Tech Giants Make Their Billions https://t.co/DnYCQ7uWRe by @VisualCap $AAPL $GOOG $MSFT $AMZN $FB cc @500\u2026
p492
aV2017-05-14 | RT @davemcclure: Chart: How Top 5 Tech Giants Make Their Billions https://t.co/DnYCQ7uWRe by @VisualCap $AAPL $GOOG $MSFT $AMZN $FB cc @500\u2026
p493
aV2017-05-14 | RT @davemcclure: Chart: How Top 5 Tech Giants Make Their Billions https://t.co/DnYCQ7uWRe by @VisualCap $AAPL $GOOG $MSFT $AMZN $FB cc @500\u2026
p494
asI5
(lp495
sI6
(lp496
sI7
(lp497
sI8
(lp498
sI9
(lp499
sI10
(lp500
sI11
(lp501
sI12
(lp502
sI13
(lp503
sI14
(lp504
sI15
(lp505
sI16
(lp506
sI17
(lp507
sI18
(lp508
s.