(dp0
I0
(lp1
V2017-04-06 | RT @philstockworld: Free Money Thursday - Draghi Says No to Tapering $QQQ $SPX $DIA $SPY $AAPL $AMZN $TSLA $GOOGL https://t.co/DqmpQKMeF8
p2
aV2017-04-06 | RT @philstockworld: Free Money Thursday - Draghi Says No to Tapering $QQQ $SPX $DIA $SPY $AAPL $AMZN $TSLA $GOOGL https://t.co/DqmpQKMeF8
p3
aV2017-04-06 | RT @philstockworld: Free Money Thursday - Draghi Says No to Tapering $QQQ $SPX $DIA $SPY $AAPL $AMZN $TSLA $GOOGL https://t.co/DqmpQKMeF8
p4
aV2017-04-06 | RT @philstockworld: Free Money Thursday - Draghi Says No to Tapering $QQQ $SPX $DIA $SPY $AAPL $AMZN $TSLA $GOOGL https://t.co/DqmpQKMeF8
p5
aV2017-04-06 | RT @philstockworld: Free Money Thursday - Draghi Says No to Tapering $QQQ $SPX $DIA $SPY $AAPL $AMZN $TSLA $GOOGL https://t.co/DqmpQKMeF8
p6
aV2017-04-06 | RT @philstockworld: Free Money Thursday - Draghi Says No to Tapering $QQQ $SPX $DIA $SPY $AAPL $AMZN $TSLA $GOOGL https://t.co/DqmpQKMeF8
p7
aV2017-04-06 | RT @philstockworld: Free Money Thursday - Draghi Says No to Tapering $QQQ $SPX $DIA $SPY $AAPL $AMZN $TSLA $GOOGL https://t.co/DqmpQKMeF8
p8
aV2017-04-06 | RT @philstockworld: Free Money Thursday - Draghi Says No to Tapering $QQQ $SPX $DIA $SPY $AAPL $AMZN $TSLA $GOOGL https://t.co/DqmpQKMeF8
p9
aV2017-04-06 | RT @philstockworld: Free Money Thursday - Draghi Says No to Tapering $QQQ $SPX $DIA $SPY $AAPL $AMZN $TSLA $GOOGL https://t.co/DqmpQKMeF8
p10
aV2017-04-06 | RT @philstockworld: Free Money Thursday - Draghi Says No to Tapering $QQQ $SPX $DIA $SPY $AAPL $AMZN $TSLA $GOOGL https://t.co/DqmpQKMeF8
p11
aV2017-04-06 | @Vuzix I think $aapl @Apple recognizes the long term #AR threat of $vuzi #m3000 &amp; #blade3000. They know good inputs. https://t.co/78zptjCnkK
p12
aV2017-04-06 | RT @philstockworld: Free Money Thursday - Draghi Says No to Tapering $QQQ $SPX $DIA $SPY $AAPL $AMZN $TSLA $GOOGL https://t.co/DqmpQKMeF8
p13
aV2017-04-06 | RT @philstockworld: Free Money Thursday - Draghi Says No to Tapering $QQQ $SPX $DIA $SPY $AAPL $AMZN $TSLA $GOOGL https://t.co/DqmpQKMeF8
p14
aV2017-04-06 | RT @anauburntiger: #WarEagle ! @tim_cook leading $AAPL  #Auburn #auburnfamily #auburnfootball @petenajarian https://t.co/5oPJs0jQOL
p15
aV2017-04-06 | RT @philstockworld: Free Money Thursday - Draghi Says No to Tapering $QQQ $SPX $DIA $SPY $AAPL $AMZN $TSLA $GOOGL https://t.co/DqmpQKMeF8
p16
aV2017-04-06 | #WarEagle ! @tim_cook leading $AAPL  #Auburn #auburnfamily #auburnfootball @petenajarian https://t.co/5oPJs0jQOL
p17
aV2017-04-06 | RT @philstockworld: Free Money Thursday - Draghi Says No to Tapering $QQQ $SPX $DIA $SPY $AAPL $AMZN $TSLA $GOOGL https://t.co/DqmpQKMeF8
p18
aV2017-04-06 | RT @philstockworld: Free Money Thursday - Draghi Says No to Tapering $QQQ $SPX $DIA $SPY $AAPL $AMZN $TSLA $GOOGL https://t.co/DqmpQKMeF8
p19
aV2017-04-06 | RT @philstockworld: Free Money Thursday - Draghi Says No to Tapering $QQQ $SPX $DIA $SPY $AAPL $AMZN $TSLA $GOOGL https://t.co/DqmpQKMeF8
p20
aV2017-04-06 | RT @philstockworld: Free Money Thursday - Draghi Says No to Tapering $QQQ $SPX $DIA $SPY $AAPL $AMZN $TSLA $GOOGL https://t.co/DqmpQKMeF8
p21
aV2017-04-06 | RT @philstockworld: Free Money Thursday - Draghi Says No to Tapering $QQQ $SPX $DIA $SPY $AAPL $AMZN $TSLA $GOOGL https://t.co/DqmpQKMeF8
p22
aV2017-04-06 | RT @philstockworld: Free Money Thursday - Draghi Says No to Tapering $QQQ $SPX $DIA $SPY $AAPL $AMZN $TSLA $GOOGL https://t.co/DqmpQKMeF8
p23
aV2017-04-06 | RT @philstockworld: Free Money Thursday - Draghi Says No to Tapering $QQQ $SPX $DIA $SPY $AAPL $AMZN $TSLA $GOOGL https://t.co/DqmpQKMeF8
p24
aV2017-04-06 | RT @philstockworld: Free Money Thursday - Draghi Says No to Tapering $QQQ $SPX $DIA $SPY $AAPL $AMZN $TSLA $GOOGL https://t.co/DqmpQKMeF8
p25
aV2017-04-06 | RT @philstockworld: Free Money Thursday - Draghi Says No to Tapering $QQQ $SPX $DIA $SPY $AAPL $AMZN $TSLA $GOOGL https://t.co/DqmpQKMeF8
p26
aV2017-04-06 | RT @philstockworld: Free Money Thursday - Draghi Says No to Tapering $QQQ $SPX $DIA $SPY $AAPL $AMZN $TSLA $GOOGL https://t.co/DqmpQKMeF8
p27
aV2017-04-06 | RT @WallStJesus: \U0001f525 TODAY'S ACTIVE FLOW &gt;&gt; $AMD $AAPL $AMZN $TSLA $FB $NVDA $JPM $CMCSA $TWTR $KMX $CHK $MU $CHK $MSFT $MBI $RAD $X $C $BABA\u2026
p28
aV2017-04-06 | RT @philstockworld: Free Money Thursday - Draghi Says No to Tapering $QQQ $SPX $DIA $SPY $AAPL $AMZN $TSLA $GOOGL https://t.co/DqmpQKMeF8
p29
aV2017-04-06 | RT @philstockworld: Free Money Thursday - Draghi Says No to Tapering $QQQ $SPX $DIA $SPY $AAPL $AMZN $TSLA $GOOGL https://t.co/DqmpQKMeF8
p30
aV2017-04-06 | RT @philstockworld: Free Money Thursday - Draghi Says No to Tapering $QQQ $SPX $DIA $SPY $AAPL $AMZN $TSLA $GOOGL https://t.co/DqmpQKMeF8
p31
aV2017-04-06 | RT @philstockworld: Free Money Thursday - Draghi Says No to Tapering $QQQ $SPX $DIA $SPY $AAPL $AMZN $TSLA $GOOGL https://t.co/DqmpQKMeF8
p32
aV2017-04-06 | RT @philstockworld: Free Money Thursday - Draghi Says No to Tapering $QQQ $SPX $DIA $SPY $AAPL $AMZN $TSLA $GOOGL https://t.co/DqmpQKMeF8
p33
aV2017-04-06 | RT @philstockworld: Free Money Thursday - Draghi Says No to Tapering $QQQ $SPX $DIA $SPY $AAPL $AMZN $TSLA $GOOGL https://t.co/DqmpQKMeF8
p34
aV2017-04-06 | RT @philstockworld: Free Money Thursday - Draghi Says No to Tapering $QQQ $SPX $DIA $SPY $AAPL $AMZN $TSLA $GOOGL https://t.co/DqmpQKMeF8
p35
aV2017-04-06 | Trading Tip of the Week 4/5/17 https://t.co/UOzw4HvsyP #Trading #Stocks #Options #Success $AAPL $FB $AMZN $TWTR $BIDU $GM $GS $DUST $GUSH
p36
aV2017-04-06 | RT @philstockworld: Free Money Thursday - Draghi Says No to Tapering $QQQ $SPX $DIA $SPY $AAPL $AMZN $TSLA $GOOGL https://t.co/DqmpQKMeF8
p37
aV2017-04-06 | RT @philstockworld: Free Money Thursday - Draghi Says No to Tapering $QQQ $SPX $DIA $SPY $AAPL $AMZN $TSLA $GOOGL https://t.co/DqmpQKMeF8
p38
aV2017-04-06 | RT @philstockworld: Free Money Thursday - Draghi Says No to Tapering $QQQ $SPX $DIA $SPY $AAPL $AMZN $TSLA $GOOGL https://t.co/DqmpQKMeF8
p39
aV2017-04-06 | RT @MacHashNews: Malwarebytes: New iOS \u2018malvertising' pushes \u2018free' VPN app https://t.co/yMXrLQiA6I #AppleWorldToday $AAPL https://t.co/AQR\u2026
p40
aV2017-04-06 | RT @philstockworld: Free Money Thursday - Draghi Says No to Tapering $QQQ $SPX $DIA $SPY $AAPL $AMZN $TSLA $GOOGL https://t.co/DqmpQKMeF8
p41
aV2017-04-06 | Malwarebytes: New iOS \u2018malvertising' pushes \u2018free' VPN app https://t.co/yMXrLQiA6I #AppleWorldToday $AAPL https://t.co/AQRpOsXI3N
p42
aV2017-04-06 | RT @philstockworld: Free Money Thursday - Draghi Says No to Tapering $QQQ $SPX $DIA $SPY $AAPL $AMZN $TSLA $GOOGL https://t.co/DqmpQKMeF8
p43
aV2017-04-06 | RT @Ascend_Trading: #PreMarket Live is on!  https://t.co/XPOUXYUC5I $FB $TWTR $AAPL $AMZN $SPY $SCON  $TENX $NVFY streaming with Restream.io
p44
aV2017-04-06 | RT @philstockworld: Free Money Thursday - Draghi Says No to Tapering $QQQ $SPX $DIA $SPY $AAPL $AMZN $TSLA $GOOGL https://t.co/DqmpQKMeF8
p45
aV2017-04-06 | RT @philstockworld: Free Money Thursday - Draghi Says No to Tapering $QQQ $SPX $DIA $SPY $AAPL $AMZN $TSLA $GOOGL https://t.co/DqmpQKMeF8
p46
aV2017-04-06 | RT @BarrySchwartzBW: Apple has reduced its share count by 20% in just four years. So far all those buybacks have created value. $AAPL
p47
aV2017-04-06 | RT @philstockworld: Free Money Thursday - Draghi Says No to Tapering $QQQ $SPX $DIA $SPY $AAPL $AMZN $TSLA $GOOGL https://t.co/DqmpQKMeF8
p48
aV2017-04-06 | RT @philstockworld: Free Money Thursday - Draghi Says No to Tapering $QQQ $SPX $DIA $SPY $AAPL $AMZN $TSLA $GOOGL https://t.co/DqmpQKMeF8
p49
aV2017-04-06 | RT @philstockworld: Free Money Thursday - Draghi Says No to Tapering $QQQ $SPX $DIA $SPY $AAPL $AMZN $TSLA $GOOGL https://t.co/DqmpQKMeF8
p50
aV2017-04-06 | RT @philstockworld: Free Money Thursday - Draghi Says No to Tapering $QQQ $SPX $DIA $SPY $AAPL $AMZN $TSLA $GOOGL https://t.co/DqmpQKMeF8
p51
aV2017-04-06 | RT @philstockworld: Free Money Thursday - Draghi Says No to Tapering $QQQ $SPX $DIA $SPY $AAPL $AMZN $TSLA $GOOGL https://t.co/DqmpQKMeF8
p52
aV2017-04-06 | RT @philstockworld: Free Money Thursday - Draghi Says No to Tapering $QQQ $SPX $DIA $SPY $AAPL $AMZN $TSLA $GOOGL https://t.co/DqmpQKMeF8
p53
aV2017-04-06 | RT @philstockworld: Free Money Thursday - Draghi Says No to Tapering $QQQ $SPX $DIA $SPY $AAPL $AMZN $TSLA $GOOGL https://t.co/DqmpQKMeF8
p54
aV2017-04-06 | @jimcramer Sounds like you are comparing these two to $AAPL #owndonttrade
p55
aV2017-04-06 | RT @MacHashNews: Is this the graphics card for the future Mac Pro? https://t.co/PurpogyUuc #Macworld $AAPL https://t.co/kvoiP1kARA
p56
aV2017-04-06 | RT @philstockworld: Free Money Thursday - Draghi Says No to Tapering $QQQ $SPX $DIA $SPY $AAPL $AMZN $TSLA $GOOGL https://t.co/DqmpQKMeF8
p57
aV2017-04-06 | RT @philstockworld: Free Money Thursday - Draghi Says No to Tapering $QQQ $SPX $DIA $SPY $AAPL $AMZN $TSLA $GOOGL https://t.co/DqmpQKMeF8
p58
aV2017-04-06 | RT @philstockworld: Free Money Thursday - Draghi Says No to Tapering $QQQ $SPX $DIA $SPY $AAPL $AMZN $TSLA $GOOGL https://t.co/DqmpQKMeF8
p59
aV2017-04-06 | RT @philstockworld: Free Money Thursday - Draghi Says No to Tapering $QQQ $SPX $DIA $SPY $AAPL $AMZN $TSLA $GOOGL https://t.co/DqmpQKMeF8
p60
aV2017-04-06 | RT @philstockworld: Free Money Thursday - Draghi Says No to Tapering $QQQ $SPX $DIA $SPY $AAPL $AMZN $TSLA $GOOGL https://t.co/DqmpQKMeF8
p61
aV2017-04-06 | RT @philstockworld: Free Money Thursday - Draghi Says No to Tapering $QQQ $SPX $DIA $SPY $AAPL $AMZN $TSLA $GOOGL https://t.co/DqmpQKMeF8
p62
aV2017-04-06 | RT @philstockworld: Free Money Thursday - Draghi Says No to Tapering $QQQ $SPX $DIA $SPY $AAPL $AMZN $TSLA $GOOGL https://t.co/DqmpQKMeF8
p63
aV2017-04-06 | RT @theflynews: REPORT: Apple develops video app in response to social media competitors: https://t.co/ykwcXWtbd9 $AAPL $FB $SNAP
p64
aV2017-04-06 | RT @racernic: Update on this wk's 8Iron condors: 7.5/8wins 4mmbrs (1ccs -.08/-.1 but noted to close flat yest $SPX $RUT $SPY $QQQ $IWM $AAP\u2026
p65
aV2017-04-06 | https://t.co/B24oQV42ds 4 FREE #txt &amp; email #stock alerts! $TWTR $SPY $AMZN $ICNB $PLUG $BTC $TSLA $AAPL $QQQ $MMEX\u2026 https://t.co/cFO0gWSvAg
p66
aV2017-04-06 | RT @Investing_Books: Options Trading For Beginners: How To Get Rich With Stock Options Trading: https://t.co/YvhmFGWIBg #trading #options $\u2026
p67
aV2017-04-06 | RT @TheStreet: The release would be the tech titan's Apple Watch Series 3 https://t.co/ePfwNOafWV $AAPL
p68
aV2017-04-06 | RT @philstockworld: Free Money Thursday - Draghi Says No to Tapering $QQQ $SPX $DIA $SPY $AAPL $AMZN $TSLA $GOOGL https://t.co/DqmpQKMeF8
p69
aV2017-04-06 | RT @philstockworld: Free Money Thursday - Draghi Says No to Tapering $QQQ $SPX $DIA $SPY $AAPL $AMZN $TSLA $GOOGL https://t.co/DqmpQKMeF8
p70
aV2017-04-06 | RT @barronsonline: Tech Today: Debating Nvidia, #iPhone Delays? Arista's Good News https://t.co/qY9JKVMpMk $NVDA $NOK $AMD $AAPL $ANET $CSC\u2026
p71
aV2017-04-06 | RT @philstockworld: Free Money Thursday - Draghi Says No to Tapering $QQQ $SPX $DIA $SPY $AAPL $AMZN $TSLA $GOOGL https://t.co/DqmpQKMeF8
p72
aV2017-04-06 | RT @philstockworld: Free Money Thursday - Draghi Says No to Tapering $QQQ $SPX $DIA $SPY $AAPL $AMZN $TSLA $GOOGL https://t.co/DqmpQKMeF8
p73
aV2017-04-06 | iPhone user base expected to be over 1.1B this year. That's double what it was in 2014. $AAPL
p74
aV2017-04-06 | RT @philstockworld: Free Money Thursday - Draghi Says No to Tapering $QQQ $SPX $DIA $SPY $AAPL $AMZN $TSLA $GOOGL https://t.co/DqmpQKMeF8
p75
aV2017-04-06 | RT @philstockworld: Free Money Thursday - Draghi Says No to Tapering $QQQ $SPX $DIA $SPY $AAPL $AMZN $TSLA $GOOGL https://t.co/DqmpQKMeF8
p76
aV2017-04-06 | RT @philstockworld: Free Money Thursday - Draghi Says No to Tapering $QQQ $SPX $DIA $SPY $AAPL $AMZN $TSLA $GOOGL https://t.co/DqmpQKMeF8
p77
aV2017-04-06 | RT @philstockworld: Free Money Thursday - Draghi Says No to Tapering $QQQ $SPX $DIA $SPY $AAPL $AMZN $TSLA $GOOGL https://t.co/DqmpQKMeF8
p78
aV2017-04-06 | Options Trading For Beginners: How To Get Rich With Stock Options Trading: https://t.co/YvhmFGWIBg #trading #options $SPY $VIX $SPX $AAPL
p79
aV2017-04-06 | RT @philstockworld: Free Money Thursday - Draghi Says No to Tapering $QQQ $SPX $DIA $SPY $AAPL $AMZN $TSLA $GOOGL https://t.co/DqmpQKMeF8
p80
aV2017-04-06 | Stocks UP, Gold &amp; Bonds DOWN! https://t.co/JtVBGn0N1C #stocks #business #investing #finance #stockmarket #wallstreet #nyse $qqq #cnbc $aapl
p81
aV2017-04-06 | RT @philstockworld: Free Money Thursday - Draghi Says No to Tapering $QQQ $SPX $DIA $SPY $AAPL $AMZN $TSLA $GOOGL https://t.co/DqmpQKMeF8
p82
aV2017-04-06 | RT @philstockworld: Free Money Thursday - Draghi Says No to Tapering $QQQ $SPX $DIA $SPY $AAPL $AMZN $TSLA $GOOGL https://t.co/DqmpQKMeF8
p83
aV2017-04-06 | Is this the graphics card for the future Mac Pro? https://t.co/PurpogyUuc #Macworld $AAPL https://t.co/kvoiP1kARA
p84
aV2017-04-06 | RT @philstockworld: Free Money Thursday - Draghi Says No to Tapering $QQQ $SPX $DIA $SPY $AAPL $AMZN $TSLA $GOOGL https://t.co/DqmpQKMeF8
p85
aV2017-04-06 | RT @scalpthatstock: T3 Live Daily Recap - Markets Steady Despite Trump-Xi Summit Worries  https://t.co/ijY4easxoZ  $SPY $IWM $AMZN $AAPL $F\u2026
p86
aV2017-04-06 | RT @philstockworld: Free Money Thursday - Draghi Says No to Tapering $QQQ $SPX $DIA $SPY $AAPL $AMZN $TSLA $GOOGL https://t.co/DqmpQKMeF8
p87
aV2017-04-06 | RT @philstockworld: Free Money Thursday - Draghi Says No to Tapering $QQQ $SPX $DIA $SPY $AAPL $AMZN $TSLA $GOOGL https://t.co/DqmpQKMeF8
p88
aV2017-04-06 | Does Evan Duffield own too much $dash https://t.co/0Q3420Ah6D? Do these people argue this point about @finkd and $FB? Jobs and $AAPL? #dash
p89
aV2017-04-06 | Apple has reduced its share count by 20% in just four years. So far all those buybacks have created value. $AAPL
p90
aV2017-04-06 | RT @philstockworld: Free Money Thursday - Draghi Says No to Tapering $QQQ $SPX $DIA $SPY $AAPL $AMZN $TSLA $GOOGL https://t.co/DqmpQKMeF8
p91
aV2017-04-06 | RT @philstockworld: Free Money Thursday - Draghi Says No to Tapering $QQQ $SPX $DIA $SPY $AAPL $AMZN $TSLA $GOOGL https://t.co/DqmpQKMeF8
p92
aV2017-04-06 | RT @philstockworld: Free Money Thursday - Draghi Says No to Tapering $QQQ $SPX $DIA $SPY $AAPL $AMZN $TSLA $GOOGL https://t.co/DqmpQKMeF8
p93
aV2017-04-06 | $GOOGL $AMZN $ FB $AAPL $TSLA $NFLX $NKE $BIDU $BABA  WAITING for $VIX to pass 20 again BUY when others are fearful! https://t.co/4D5yBS4Jr9
p94
aV2017-04-06 | RT @philstockworld: Free Money Thursday - Draghi Says No to Tapering $QQQ $SPX $DIA $SPY $AAPL $AMZN $TSLA $GOOGL https://t.co/DqmpQKMeF8
p95
aV2017-04-06 | RT @philstockworld: Free Money Thursday - Draghi Says No to Tapering $QQQ $SPX $DIA $SPY $AAPL $AMZN $TSLA $GOOGL https://t.co/DqmpQKMeF8
p96
aV2017-04-06 | RT @philstockworld: Free Money Thursday - Draghi Says No to Tapering $QQQ $SPX $DIA $SPY $AAPL $AMZN $TSLA $GOOGL https://t.co/DqmpQKMeF8
p97
aV2017-04-06 | RT @philstockworld: Free Money Thursday - Draghi Says No to Tapering $QQQ $SPX $DIA $SPY $AAPL $AMZN $TSLA $GOOGL https://t.co/DqmpQKMeF8
p98
aV2017-04-06 | RT @philstockworld: Free Money Thursday - Draghi Says No to Tapering $QQQ $SPX $DIA $SPY $AAPL $AMZN $TSLA $GOOGL https://t.co/DqmpQKMeF8
p99
aV2017-04-06 | RT @philstockworld: Free Money Thursday - Draghi Says No to Tapering $QQQ $SPX $DIA $SPY $AAPL $AMZN $TSLA $GOOGL https://t.co/DqmpQKMeF8
p100
aV2017-04-06 | RT @philstockworld: Free Money Thursday - Draghi Says No to Tapering $QQQ $SPX $DIA $SPY $AAPL $AMZN $TSLA $GOOGL https://t.co/DqmpQKMeF8
p101
asI1
(lp102
V2017-04-05 | RT @JPDesloges: #Apple  Tested the Resistance of a Daily Trading Range (red) but Uneable to break it yet $AAPL #Trading #investing #markets\u2026
p103
aV2017-04-05 | RT @philstockworld: Will We Hold It Wednesday - High Hopes at 5,440 (Again) $QQQ $SPX $DIA $TASR Also $AAPL https://t.co/6XHV2TPbtt
p104
aV2017-04-05 | #Options #maxpain chart for $AAPL. Free options app https://t.co/VCJp7MA06J https://t.co/QxR0fUqgS2
p105
aV2017-04-05 | RT @philstockworld: Will We Hold It Wednesday - High Hopes at 5,440 (Again) $QQQ $SPX $DIA $TASR Also $AAPL https://t.co/6XHV2TPbtt
p106
aV2017-04-05 | RT @philstockworld: Will We Hold It Wednesday - High Hopes at 5,440 (Again) $QQQ $SPX $DIA $TASR Also $AAPL https://t.co/6XHV2TPbtt
p107
aV2017-04-05 | RT @philstockworld: Will We Hold It Wednesday - High Hopes at 5,440 (Again) $QQQ $SPX $DIA $TASR Also $AAPL https://t.co/6XHV2TPbtt
p108
aV2017-04-05 | Xiaomi Chases Value, Dumps Apple Approach https://t.co/ETz6ViSrjc $AAPL #APPLE $XI
p109
aV2017-04-05 | RT @philstockworld: Will We Hold It Wednesday - High Hopes at 5,440 (Again) $QQQ $SPX $DIA $TASR Also $AAPL https://t.co/6XHV2TPbtt
p110
aV2017-04-05 | RT @philstockworld: Will We Hold It Wednesday - High Hopes at 5,440 (Again) $QQQ $SPX $DIA $TASR Also $AAPL https://t.co/6XHV2TPbtt
p111
aV2017-04-05 | RT @philstockworld: Will We Hold It Wednesday - High Hopes at 5,440 (Again) $QQQ $SPX $DIA $TASR Also $AAPL https://t.co/6XHV2TPbtt
p112
aV2017-04-05 | RT @philstockworld: Will We Hold It Wednesday - High Hopes at 5,440 (Again) $QQQ $SPX $DIA $TASR Also $AAPL https://t.co/6XHV2TPbtt
p113
aV2017-04-05 | $AAPL $COST:  Xiaomi Chases Value, Dumps Apple Approach:  https://t.co/hxibTJwf7O
p114
aV2017-04-05 | RT @philstockworld: Will We Hold It Wednesday - High Hopes at 5,440 (Again) $QQQ $SPX $DIA $TASR Also $AAPL https://t.co/6XHV2TPbtt
p115
aV2017-04-05 | RT @whotrades: Report: Apple Inc.'s Premium OLED iPhone 8 Could Be Delayed https://t.co/P44sOKy9HA $AAPL https://t.co/P96sBZ9jmm
p116
aV2017-04-05 | RT @HedgeStrategy: Our previously tweeted Q2 timeframe trades (for transparency):  $TSLA -301 Apr05 $IBM -174 Apr03 $AAPL -144 Mar28 $AMD +\u2026
p117
aV2017-04-05 | #Apple  Tested the Resistance of a Daily Trading Range (red) but Uneable to break it yet $AAPL #Trading #investing\u2026 https://t.co/wZ40UG1GRY
p118
aV2017-04-05 | RT @philstockworld: Will We Hold It Wednesday - High Hopes at 5,440 (Again) $QQQ $SPX $DIA $TASR Also $AAPL https://t.co/6XHV2TPbtt
p119
aV2017-04-05 | Xiaomi Chases Value, Dumps Apple Approach $AAPL #APPLE $XI https://t.co/sDYwt2oiFQ #Investing #Stocks
p120
aV2017-04-05 | Xiaomi Chases Value, Dumps Apple Approach $AAPL #APPLE $XI https://t.co/4nIjT83CLk #Investing #Stocks
p121
aV2017-04-05 | RT @philstockworld: Will We Hold It Wednesday - High Hopes at 5,440 (Again) $QQQ $SPX $DIA $TASR Also $AAPL https://t.co/6XHV2TPbtt
p122
aV2017-04-05 | Xiaomi Chases Value, Dumps Apple Approach https://t.co/sbYPBwifv0 $AAPL #APPLE $XI
p123
aV2017-04-05 | Xiaomi Chases Value, Dumps Apple Approach https://t.co/tzqYUyJ1zn $AAPL #APPLE $XI
p124
aV2017-04-05 | RT @philstockworld: Will We Hold It Wednesday - High Hopes at 5,440 (Again) $QQQ $SPX $DIA $TASR Also $AAPL https://t.co/6XHV2TPbtt
p125
aV2017-04-05 | RT @philstockworld: Will We Hold It Wednesday - High Hopes at 5,440 (Again) $QQQ $SPX $DIA $TASR Also $AAPL https://t.co/6XHV2TPbtt
p126
aV2017-04-05 | RT @EXPstocktrader: A replay of today in the #StockMarket:  $SPY $AAPL $NVDA $AMZN $TSLA $IBB $XBI #MAGA https://t.co/HTewqZOVLQ
p127
aV2017-04-05 | RT @philstockworld: Will We Hold It Wednesday - High Hopes at 5,440 (Again) $QQQ $SPX $DIA $TASR Also $AAPL https://t.co/6XHV2TPbtt
p128
aV2017-04-05 | Report: Apple Inc.s Premium OLED iPhone 8 Could Be Delayed --  The Motley Fool $AAPL #wlst https://t.co/Xd1wb0r52s https://t.co/QwlAt1LydU
p129
aV2017-04-05 | RT @philstockworld: Will We Hold It Wednesday - High Hopes at 5,440 (Again) $QQQ $SPX $DIA $TASR Also $AAPL https://t.co/6XHV2TPbtt
p130
aV2017-04-05 | RT @philstockworld: Will We Hold It Wednesday - High Hopes at 5,440 (Again) $QQQ $SPX $DIA $TASR Also $AAPL https://t.co/6XHV2TPbtt
p131
aV2017-04-05 | RT @philstockworld: Will We Hold It Wednesday - High Hopes at 5,440 (Again) $QQQ $SPX $DIA $TASR Also $AAPL https://t.co/6XHV2TPbtt
p132
aV2017-04-05 | RT @philstockworld: Will We Hold It Wednesday - High Hopes at 5,440 (Again) $QQQ $SPX $DIA $TASR Also $AAPL https://t.co/6XHV2TPbtt
p133
aV2017-04-05 | RT @philstockworld: Will We Hold It Wednesday - High Hopes at 5,440 (Again) $QQQ $SPX $DIA $TASR Also $AAPL https://t.co/6XHV2TPbtt
p134
aV2017-04-05 | $AAPL is trending! Here's some analysis https://t.co/fNkN4sAio9 #BloombergBold #NationalWalkingDay https://t.co/Uah1f45OgW
p135
aV2017-04-05 | RT @philstockworld: Will We Hold It Wednesday - High Hopes at 5,440 (Again) $QQQ $SPX $DIA $TASR Also $AAPL https://t.co/6XHV2TPbtt
p136
aV2017-04-05 | $AAPL #Options OI chart. Free stocks app https://t.co/cnRpv2hkbQ https://t.co/RLcUGkDjaK
p137
aV2017-04-05 | RT @Sam_L_Shead: Analysts say the next iPhone probably won't cost $1,000 $AAPL https://t.co/sewyZZUpAW https://t.co/oG4UfpdY8s
p138
aV2017-04-05 | RT @philstockworld: Will We Hold It Wednesday - High Hopes at 5,440 (Again) $QQQ $SPX $DIA $TASR Also $AAPL https://t.co/6XHV2TPbtt
p139
aV2017-04-05 | RT @theflynews: Data center infrastructure stocks continue multi-day slide $FFIV $FNSR $CIEN $AMZN $MSFT $GOOG $GOOGL $FB $AAPL\u2026 https://t.\u2026
p140
aV2017-04-05 | RT @philstockworld: Will We Hold It Wednesday - High Hopes at 5,440 (Again) $QQQ $SPX $DIA $TASR Also $AAPL https://t.co/6XHV2TPbtt
p141
aV2017-04-05 | RT @philstockworld: Will We Hold It Wednesday - High Hopes at 5,440 (Again) $QQQ $SPX $DIA $TASR Also $AAPL https://t.co/6XHV2TPbtt
p142
aV2017-04-05 | RT @philstockworld: Will We Hold It Wednesday - High Hopes at 5,440 (Again) $QQQ $SPX $DIA $TASR Also $AAPL https://t.co/6XHV2TPbtt
p143
aV2017-04-05 | Report: Apple Inc.'s Premium OLED iPhone 8 Could Be Delayed https://t.co/P44sOKy9HA $AAPL https://t.co/P96sBZ9jmm
p144
aV2017-04-05 | RT @philstockworld: Will We Hold It Wednesday - High Hopes at 5,440 (Again) $QQQ $SPX $DIA $TASR Also $AAPL https://t.co/6XHV2TPbtt
p145
aV2017-04-05 | RT @philstockworld: Will We Hold It Wednesday - High Hopes at 5,440 (Again) $QQQ $SPX $DIA $TASR Also $AAPL https://t.co/6XHV2TPbtt
p146
aV2017-04-05 | RT @philstockworld: Will We Hold It Wednesday - High Hopes at 5,440 (Again) $QQQ $SPX $DIA $TASR Also $AAPL https://t.co/6XHV2TPbtt
p147
aV2017-04-05 | RT @philstockworld: Will We Hold It Wednesday - High Hopes at 5,440 (Again) $QQQ $SPX $DIA $TASR Also $AAPL https://t.co/6XHV2TPbtt
p148
aV2017-04-05 | RT @philstockworld: Will We Hold It Wednesday - High Hopes at 5,440 (Again) $QQQ $SPX $DIA $TASR Also $AAPL https://t.co/6XHV2TPbtt
p149
aV2017-04-05 | RT @philstockworld: Will We Hold It Wednesday - High Hopes at 5,440 (Again) $QQQ $SPX $DIA $TASR Also $AAPL https://t.co/6XHV2TPbtt
p150
aV2017-04-05 | RT @philstockworld: Will We Hold It Wednesday - High Hopes at 5,440 (Again) $QQQ $SPX $DIA $TASR Also $AAPL https://t.co/6XHV2TPbtt
p151
aV2017-04-05 | RT @philstockworld: Will We Hold It Wednesday - High Hopes at 5,440 (Again) $QQQ $SPX $DIA $TASR Also $AAPL https://t.co/6XHV2TPbtt
p152
aV2017-04-05 | Our previously tweeted Q2 timeframe trades (for transparency):  $TSLA -301 Apr05 $IBM -174 Apr03 $AAPL -144 Mar28 $AMD +14, $TWTR +15 Mar30
p153
aV2017-04-05 | RT @MacHashNews: Microsoft releases \u2018Who's In' iMessage app for event planning with friends https://t.co/oM5Mvj5nVx #9to5Mac $AAPL https://\u2026
p154
aV2017-04-05 | StockNews Dow Down 41. $AAPL $SNAP $AMZN $TWTR $FB $TSLA https://t.co/kVGqmABxh3
p155
aV2017-04-05 | RT @philstockworld: Will We Hold It Wednesday - High Hopes at 5,440 (Again) $QQQ $SPX $DIA $TASR Also $AAPL https://t.co/6XHV2TPbtt
p156
aV2017-04-05 | Microsoft releases \u2018Who's In' iMessage app for event planning with friends https://t.co/oM5Mvj5nVx #9to5Mac $AAPL https://t.co/o0ANQF5OhT
p157
aV2017-04-05 | RT @philstockworld: Will We Hold It Wednesday - High Hopes at 5,440 (Again) $QQQ $SPX $DIA $TASR Also $AAPL https://t.co/6XHV2TPbtt
p158
aV2017-04-05 | RT @philstockworld: Will We Hold It Wednesday - High Hopes at 5,440 (Again) $QQQ $SPX $DIA $TASR Also $AAPL https://t.co/6XHV2TPbtt
p159
aV2017-04-05 | RT @philstockworld: Will We Hold It Wednesday - High Hopes at 5,440 (Again) $QQQ $SPX $DIA $TASR Also $AAPL https://t.co/6XHV2TPbtt
p160
aV2017-04-05 | $AAPL:  Report: Apple Inc.\u2019s Premium OLED iPhone 8 Could Be Delayed:  https://t.co/TXJ97FqcJE
p161
aV2017-04-05 | RT @philstockworld: Will We Hold It Wednesday - High Hopes at 5,440 (Again) $QQQ $SPX $DIA $TASR Also $AAPL https://t.co/6XHV2TPbtt
p162
aV2017-04-05 | Dow reverses 150 points and closes down 41 as Fed minutes show worry about valuations. $AMZN $TSLA $AAPL hit highs https://t.co/oVfBaxDycg
p163
aV2017-04-05 | Apple, Inc. Earnings: Can the Tech Giant Live Up to a Higher Stock Price?  https://t.co/KAY2Lxen8g $AAPL https://t.co/PBoPQETIOF
p164
aV2017-04-05 | RT @philstockworld: Will We Hold It Wednesday - High Hopes at 5,440 (Again) $QQQ $SPX $DIA $TASR Also $AAPL https://t.co/6XHV2TPbtt
p165
aV2017-04-05 | RT @appleinsider: Microsoft's new iOS 10 iMessage App "Who's In" lets groups collaborate on plans $AAPL $MSFT https://t.co/UIkVYxFYbt https\u2026
p166
aV2017-04-05 | RT @philstockworld: Will We Hold It Wednesday - High Hopes at 5,440 (Again) $QQQ $SPX $DIA $TASR Also $AAPL https://t.co/6XHV2TPbtt
p167
aV2017-04-05 | $AAPL $144.02 (-0.52%) is a top mover.  Try our #sentiment analysis tool free: https://t.co/GvMdw1aUkZ  #trading
p168
aV2017-04-05 | RT @philstockworld: Will We Hold It Wednesday - High Hopes at 5,440 (Again) $QQQ $SPX $DIA $TASR Also $AAPL https://t.co/6XHV2TPbtt
p169
aV2017-04-05 | RT @philstockworld: Will We Hold It Wednesday - High Hopes at 5,440 (Again) $QQQ $SPX $DIA $TASR Also $AAPL https://t.co/6XHV2TPbtt
p170
aV2017-04-05 | RT @philstockworld: Will We Hold It Wednesday - High Hopes at 5,440 (Again) $QQQ $SPX $DIA $TASR Also $AAPL https://t.co/6XHV2TPbtt
p171
aV2017-04-05 | RT @philstockworld: Will We Hold It Wednesday - High Hopes at 5,440 (Again) $QQQ $SPX $DIA $TASR Also $AAPL https://t.co/6XHV2TPbtt
p172
aV2017-04-05 | RT @philstockworld: Will We Hold It Wednesday - High Hopes at 5,440 (Again) $QQQ $SPX $DIA $TASR Also $AAPL https://t.co/6XHV2TPbtt
p173
aV2017-04-05 | RT @philstockworld: Will We Hold It Wednesday - High Hopes at 5,440 (Again) $QQQ $SPX $DIA $TASR Also $AAPL https://t.co/6XHV2TPbtt
p174
aV2017-04-05 | RT @theflynews: Data center infrastructure stocks continue multi-day slide $FFIV $FNSR $CIEN $AMZN $MSFT $GOOG $GOOGL $FB $AAPL\u2026 https://t.\u2026
p175
aV2017-04-05 | RT @philstockworld: Will We Hold It Wednesday - High Hopes at 5,440 (Again) $QQQ $SPX $DIA $TASR Also $AAPL https://t.co/6XHV2TPbtt
p176
aV2017-04-05 | $AAPL Apple Stock Analysis And Predictions For 2017: https://t.co/cRn1OYsY1b https://t.co/ZhYPROcHmE
p177
aV2017-04-05 | RT @philstockworld: Will We Hold It Wednesday - High Hopes at 5,440 (Again) $QQQ $SPX $DIA $TASR Also $AAPL https://t.co/6XHV2TPbtt
p178
aV2017-04-05 | RT @philstockworld: Will We Hold It Wednesday - High Hopes at 5,440 (Again) $QQQ $SPX $DIA $TASR Also $AAPL https://t.co/6XHV2TPbtt
p179
aV2017-04-05 | RT @philstockworld: Will We Hold It Wednesday - High Hopes at 5,440 (Again) $QQQ $SPX $DIA $TASR Also $AAPL https://t.co/6XHV2TPbtt
p180
aV2017-04-05 | RT @MarketRealist: Consumer Tech Stocks: New Life after 1Q17? https://t.co/LdxrfaHBdH $AAPL $FIT $GPRO $BBRY
p181
aV2017-04-05 | RT @philstockworld: Will We Hold It Wednesday - High Hopes at 5,440 (Again) $QQQ $SPX $DIA $TASR Also $AAPL https://t.co/6XHV2TPbtt
p182
aV2017-04-05 | If $AAPL had a Bezos/Musk like CEO..stock would be double the price it is now. Cook is a good guy but he is a game manager..a la Alex Smith
p183
aV2017-04-05 | RT @philstockworld: Will We Hold It Wednesday - High Hopes at 5,440 (Again) $QQQ $SPX $DIA $TASR Also $AAPL https://t.co/6XHV2TPbtt
p184
aV2017-04-05 | RT @philstockworld: Will We Hold It Wednesday - High Hopes at 5,440 (Again) $QQQ $SPX $DIA $TASR Also $AAPL https://t.co/6XHV2TPbtt
p185
aV2017-04-05 | RT @philstockworld: Will We Hold It Wednesday - High Hopes at 5,440 (Again) $QQQ $SPX $DIA $TASR Also $AAPL https://t.co/6XHV2TPbtt
p186
aV2017-04-05 | RT @philstockworld: Will We Hold It Wednesday - High Hopes at 5,440 (Again) $QQQ $SPX $DIA $TASR Also $AAPL https://t.co/6XHV2TPbtt
p187
aV2017-04-05 | RT @philstockworld: Will We Hold It Wednesday - High Hopes at 5,440 (Again) $QQQ $SPX $DIA $TASR Also $AAPL https://t.co/6XHV2TPbtt
p188
aV2017-04-05 | 12 Great Books on Options Trading https://t.co/u69ZnBdmhA #options #trading $SPY $AAPL $VIX $VXX $RUT $DIA $QQQ
p189
aV2017-04-05 | RT @philstockworld: Will We Hold It Wednesday - High Hopes at 5,440 (Again) $QQQ $SPX $DIA $TASR Also $AAPL https://t.co/6XHV2TPbtt
p190
aV2017-04-05 | RT @philstockworld: Will We Hold It Wednesday - High Hopes at 5,440 (Again) $QQQ $SPX $DIA $TASR Also $AAPL https://t.co/6XHV2TPbtt
p191
aV2017-04-05 | RT @appleinsider: Microsoft's new iOS 10 iMessage App "Who's In" lets groups collaborate on plans $AAPL $MSFT https://t.co/UIkVYxFYbt https\u2026
p192
aV2017-04-05 | RT @philstockworld: Will We Hold It Wednesday - High Hopes at 5,440 (Again) $QQQ $SPX $DIA $TASR Also $AAPL https://t.co/6XHV2TPbtt
p193
aV2017-04-05 | RT @MacHashNews: Why iOS 10.3.1 is a "must-install" update https://t.co/6VChltb3Qa #AppleWorldToday $AAPL https://t.co/AoX704RqFL
p194
aV2017-04-05 | RT @philstockworld: Will We Hold It Wednesday - High Hopes at 5,440 (Again) $QQQ $SPX $DIA $TASR Also $AAPL https://t.co/6XHV2TPbtt
p195
aV2017-04-05 | RT @philstockworld: Will We Hold It Wednesday - High Hopes at 5,440 (Again) $QQQ $SPX $DIA $TASR Also $AAPL https://t.co/6XHV2TPbtt
p196
aV2017-04-05 | RT @philstockworld: Will We Hold It Wednesday - High Hopes at 5,440 (Again) $QQQ $SPX $DIA $TASR Also $AAPL https://t.co/6XHV2TPbtt
p197
asI2
(lp198
V2017-04-04 | RT @appleinsider: Why Apple's new GPU efforts are a major disruptive threat to Nvidia $AAPL $NVDA  https://t.co/Kt7fubyL5Q https://t.co/Oq9\u2026
p199
aV2017-04-04 | RT @FoxBusiness: Apple admits to Mac Pro design flaws, promises new model coming $AAPL  https://t.co/eRqZRM6PzH
p200
aV2017-04-04 | RT @commander10: $AAPL breaking above yet another bull flag on daily chart to new all-time highs. Very #bullish. https://t.co/ANza8RiVX0
p201
aV2017-04-04 | I love bull call spreads for that specific fact I can risk just a $1 per option or $100 to own 100 shares of $AMZN $GOOG $AAPL
p202
aV2017-04-04 | RT @NewsToDesk: $AAPL:  Bullish on Apple Inc? You\u2019ll Love These 3 Stocks:  https://t.co/xlQwVZ4O8e
p203
aV2017-04-04 | Ready to invest? $AAPL is definitely worth checking out today! https://t.co/3xizRKvcdM #SusanRice #3d
p204
aV2017-04-04 | $AAPL silicon ambition MT Why Apple's new GPU efforts are a major disruptive threat to $NVDA ($AMD 2) https://t.co/wpuLmh4r6o @AppleInsider
p205
aV2017-04-04 | RT @appleinsider: Why Apple's new GPU efforts are a major disruptive threat to Nvidia $AAPL $NVDA  https://t.co/Kt7fubyL5Q https://t.co/Oq9\u2026
p206
aV2017-04-04 | RT @option_snipper: $AAPL NO need to draw anything on this beautiful chart. Just look at it clean. STRONG price actions expected next few d\u2026
p207
aV2017-04-04 | Dubai News Reveals another Apple Store under Construction that will have a Spectacular View of\u2026\u2026 https://t.co/Yun9JHztpE
p208
aV2017-04-04 | RT @lisahopeking: Had great time w @Gartenberg @reneritchie on AppleTalk. Listen now: What $AAPL needs to do to beat #S8, DeX &amp; more https:\u2026
p209
aV2017-04-04 | It's a stock-pickers market again. Recent winners include $NFLX $FB $AAPL $TSLA $NVDA $BABA  Free Trials, hitting swing winners since 2006.
p210
aV2017-04-04 | RT @ExactOptionPick: FREE DAILY OPTION TRADE. Sign up for our DAILY FREE TRADE at   https://t.co/78FVQDKYyw   $AAPL $AMZN $GOOGL $GS $FB $N\u2026
p211
aV2017-04-04 | RT @ExactOptionPick: FREE DAILY OPTION TRADE. Sign up for our DAILY FREE TRADE at   https://t.co/78FVQDKYyw   $AAPL $AMZN $GOOGL $GS $FB $N\u2026
p212
aV2017-04-04 | FREE DAILY OPTION TRADE. Sign up for our DAILY FREE TRADE at   https://t.co/78FVQDKYyw   $AAPL $AMZN $GOOGL $GS $FB $NVDA $TSLA $PNRA $AMD
p213
aV2017-04-04 | $AAPL #patent 9,613,393: Closed loop CPU performance control https://t.co/a6sMEOvR6O #tech #IP https://t.co/HIoJWAZzJ2
p214
aV2017-04-04 | Why Apple's new GPU efforts are a major disruptive threat to Nvidia $AAPL $NVDA  https://t.co/9sI8n5hMjF https://t.co/pqrslTpgVl
p215
aV2017-04-04 | Why Apple's new GPU efforts are a major disruptive threat to Nvidia $AAPL $NVDA  https://t.co/RwpMmTv0Q8 https://t.co/O0AInDWqFK
p216
aV2017-04-04 | appleinsider: Why Apple's new GPU efforts are a major disruptive threat to Nvidia $AAPL $NVDA  \u2026 https://t.co/qObYlQmRgc
p217
aV2017-04-04 | RT @appleinsider: Why Apple's new GPU efforts are a major disruptive threat to Nvidia $AAPL $NVDA  https://t.co/Kt7fubyL5Q https://t.co/Oq9\u2026
p218
aV2017-04-04 | RT @appleinsider: Why Apple's new GPU efforts are a major disruptive threat to Nvidia $AAPL $NVDA  https://t.co/Kt7fubyL5Q https://t.co/Oq9\u2026
p219
aV2017-04-04 | RT @appleinsider: Why Apple's new GPU efforts are a major disruptive threat to Nvidia $AAPL $NVDA  https://t.co/Kt7fubyL5Q https://t.co/Oq9\u2026
p220
aV2017-04-04 | RT @appleinsider: Why Apple's new GPU efforts are a major disruptive threat to Nvidia $AAPL $NVDA  https://t.co/Kt7fubyL5Q https://t.co/Oq9\u2026
p221
aV2017-04-04 | Why Apple's new GPU efforts are a major disruptive threat to Nvidia $AAPL $NVDA  https://t.co/Kt7fubyL5Q https://t.co/Oq91rMepxG
p222
aV2017-04-04 | RT @DayTradersGroup: $AAPL Remember this chart from Monday? http://t.co/snblISku09 $fcx $nem $gGLD $GDX $AMZN $vxx $aig $TBT #OPTIONS
p223
aV2017-04-04 | @Recode $twtr @jack @anthonynoto @kayvz @omidkordestani @btaylor @jimcramer tough compition.expected. $amzn redefin\u2026 https://t.co/nBZtfXQscq
p224
aV2017-04-04 | I don't like #APPLE products (poorly made but wrapped nicely; "#APPLE gone with Jobs"), but better remove some from $NVDA to buy $AAPL.
p225
aV2017-04-04 | $AAPL:  Bullish on Apple Inc? You\u2019ll Love These 3 Stocks:  https://t.co/xlQwVZ4O8e
p226
aV2017-04-04 | RT @option_snipper: Watchlist for Wednesday, April 5:  $AAPL $TSLA $GOOGL $X
p227
aV2017-04-04 | @Ghost_ridder_ yeah all options. $AAPL multistrikes $TSLA JAN2019 350C MAR31 275C &amp; APR 300C
p228
aV2017-04-04 | RT @MacHashNews: Apple Patent Reveals a New Security Feature Coming to Siri https://t.co/UuCjM2UdCq #PatentlyApple $AAPL https://t.co/6cuj1\u2026
p229
aV2017-04-04 | $AAPL on the launch pad right before the close.
p230
aV2017-04-04 | $AAPL NO need to draw anything on this beautiful chart. Just look at it clean. STRONG price actions expected next f\u2026 https://t.co/M5Tp2ypHlo
p231
aV2017-04-04 | Watchlist for Wednesday, April 5:  $AAPL $TSLA $GOOGL $X
p232
aV2017-04-04 | The Compound Effect by Darren Hardy: https://t.co/czGhVZckbQ #investing #compunding $SPY $AAPL $MSFT $GE $KO $MSFT $AMZN
p233
aV2017-04-04 | RT @farzyness: $GM is the Nokia of the car world. $F has the potential to be the Samsung of the car world. $TSLA is the $AAPL of the car wo\u2026
p234
aV2017-04-04 | @stevesi The top up on memory costs $20-40, and $AAPL is selling at $100 more. Never shy of money raining there....
p235
aV2017-04-04 | $AAPL:  Samsung to ride soaring chip profits in first quarter, Galaxy S8 aura \u2026:  https://t.co/YSNcZlI3YX
p236
aV2017-04-04 | $AAPL #patent 9,613,249: Finger sensor including encapsulating layer over sensi... https://t.co/GPnpWDjsRN #tech #IP https://t.co/YF5eL16T3E
p237
aV2017-04-04 | Breadth is really thinning - $aapl $amzn $tsla only a handful bearing this mkt
p238
aV2017-04-04 | Apple Patent Reveals a New Security Feature Coming to Siri https://t.co/UuCjM2UdCq #PatentlyApple $AAPL https://t.co/6cuj1dKNKY
p239
aV2017-04-04 | RT @WallStJesus: TODAY'S  $AAPL SENTIMENT: https://t.co/ZJTb1skKYj
p240
aV2017-04-04 | RT @theinformation: The latest defection on the Apple design team. $AAPL https://t.co/nsJXGeCgAT
p241
aV2017-04-04 | RT @optionslisa: $aapl tough one here ..probably going sideways in tight range here may pull back a buck or up a bit but no trade here for\u2026
p242
aV2017-04-04 | RT @kiwitrader24: $SPX the final week of April looks like the motherland reports: $AAPL $TWTR $FB $AMZN $GOOGL
p243
aV2017-04-04 | $aapl tough one here ..probably going sideways in tight range here may pull back a buck or up a bit but no trade here for me
p244
aV2017-04-04 | $SPX the final week of April looks like the motherland reports: $AAPL $TWTR $FB $AMZN $GOOGL
p245
aV2017-04-04 | RT @andrewbusey: I really wish @Apple would add a way for me to plug an iPad into my Mac as both an input device and second screen. $AAPL
p246
aV2017-04-04 | RT @_steve3_: \U0001f49bTuesday April 4th, '17 \U0001f49a+ Call Buy $AAPL $AMZN $FB $MU $ORCL $TSLA $TWTR  \u2665\ufe0f - &lt;none&gt; \U0001f499#TrumpIndex $FREE  #JAlert -&gt; @Cramer\u2026
p247
aV2017-04-04 | RT @bennyrich11: Apple patents shock absorbers for iPhone that pop out when device is dropped, and allow flotation $AAPL https://t.co/MJy0u\u2026
p248
aV2017-04-04 | These companies are on sale. If deal is passed, huge returns! $M, $PNRA, $SPLS $XLNX by $AVGO? $TOSYY by $AVGO,\u2026 https://t.co/64OjwX0GUU
p249
aV2017-04-04 | $AAPL sum put vol=45,106 sum call vol=85,623 PutCallRatio=0.53 expiration 04/07/2017 . https://t.co/2B64q6wt4V https://t.co/2xtHttgMO3
p250
aV2017-04-04 | Millionaire trading student https://t.co/GSuqF6B8WI made millions learning to trade from https://t.co/ui9ZEGne2A $AAPL $CNAT $ICPT
p251
aV2017-04-04 | @falafeldiaper1 @Bryce_Martel They are hiding just running up $AAPL, $AMZN and $TSLA here
p252
aV2017-04-04 | Can Foreign Individuals Trade in the US Markets? https://t.co/rYrmYqZWe9 #Trading #Stocks #Options $AAPL $FB $AMZN $TWTR $GS $GM $F $DUST
p253
aV2017-04-04 | $AAPL New ATH off the 8D, 150c's being bought. Grinding higher into earnings @Bryce_Martel  https://t.co/4pZnCLLv80
p254
aV2017-04-04 | Needham &amp; Co. on Apple: We love this stock $AAPL https://t.co/S6DviHMrfm https://t.co/2e0KNo0Am6 https://t.co/rzAecNNblS
p255
aV2017-04-04 | Needham &amp; Co. on Apple: We love this stock $AAPL https://t.co/OOupXDOuBe
p256
aV2017-04-04 | Apple patents shock absorbers for iPhone that pop out when device is dropped, and allow flotation $AAPL https://t.co/MJy0utQEy1
p257
aV2017-04-04 | RT @WallStJesus: TODAY'S  $AAPL SENTIMENT: https://t.co/ZJTb1skKYj
p258
aV2017-04-04 | RT @SeekingAlpha: The Cheapest Way To Diversify Among Large-Cap Companies https://t.co/xo6XGK2Bmr $AAPL #APPLE $AMZN $FB $GE $GIS $JNJ $JPM\u2026
p259
aV2017-04-04 | RT @SeekingAlpha: The Cheapest Way To Diversify Among Large-Cap Companies https://t.co/xo6XGK2Bmr $AAPL #APPLE $AMZN $FB $GE $GIS $JNJ $JPM\u2026
p260
aV2017-04-04 | The Little Book of Stock Market Profits: The Best Strategies of All Time Made Even Better: https://t.co/Txl0ckYyiH $AAPL $SPY $DIA $IBM
p261
aV2017-04-04 | RT @treabase: $AAPL #patent 9,613,246: Multiple scan element array ultrasonic biometric scanner https://t.co/hTuvSjRrPz #tech #IP https://t\u2026
p262
aV2017-04-04 | Yet #markets are at record highs...all we need is $AMZN $FB $AAPL &amp; $GOOGL,the rest?Optional. That's not a healty\u2026 https://t.co/LQsU8e8NAC
p263
aV2017-04-04 | RT @WallStJesus: TODAY'S  $AAPL SENTIMENT: https://t.co/ZJTb1skKYj
p264
aV2017-04-04 | TODAY'S  $AAPL SENTIMENT: https://t.co/ZJTb1skKYj
p265
aV2017-04-04 | RT @FoxBusiness: Apple admits to Mac Pro design flaws, promises new model coming $AAPL  https://t.co/eRqZRM6PzH
p266
aV2017-04-04 | RT @AlertTrade: The Cheapest Way To Diversify Among Large-Cap Companies $AAPL #APPLE $AMZN $FB $GE $GIS $JNJ\u2026 https://t.co/lC79hen8bd #Inve\u2026
p267
aV2017-04-04 | RT @AlertTrade: The Cheapest Way To Diversify Among Large-Cap Companies $AAPL #APPLE $AMZN $FB $GE $GIS $JNJ\u2026 https://t.co/lC79hen8bd #Inve\u2026
p268
aV2017-04-04 | $AAPL #patent 9,613,246: Multiple scan element array ultrasonic biometric scanner https://t.co/hTuvSjRrPz #tech #IP https://t.co/2fW5WI7Hwl
p269
aV2017-04-04 | RT @TradewiseApp: Apple is sorry about the Mac Pro, vows to relaunch it in 2018 https://t.co/p2O4r2M5Sx $AAPL
p270
aV2017-04-04 | Apple is sorry about the Mac Pro, vows to relaunch it in 2018 https://t.co/p2O4r2M5Sx $AAPL
p271
aV2017-04-04 | $AAPL - Statement of Changes in Beneficial Ownership (4) https://t.co/YwEgflksOP
p272
aV2017-04-04 | $AAPL - Statement of Changes in Beneficial Ownership (4) https://t.co/oyKmsPlfZC
p273
aV2017-04-04 | $AAPL - Statement of Changes in Beneficial Ownership (4) https://t.co/TDbSVpoBHv
p274
aV2017-04-04 | $AAPL - Statement of Changes in Beneficial Ownership (4) https://t.co/D2YXm5SSwC
p275
aV2017-04-04 | $AAPL - Statement of Changes in Beneficial Ownership (4) https://t.co/YWnCYbx5sH
p276
aV2017-04-04 | $AAPL - Statement of Changes in Beneficial Ownership (4) https://t.co/5iQDq3nHWu
p277
aV2017-04-04 | $AAPL - Statement of Changes in Beneficial Ownership (4) https://t.co/uoSLNAdAni
p278
aV2017-04-04 | $AAPL - Statement of Changes in Beneficial Ownership (4) https://t.co/QMIOikp5Oj
p279
aV2017-04-04 | $AAPL - Statement of Changes in Beneficial Ownership (4) https://t.co/SLGo8fXYSq
p280
aV2017-04-04 | $AAPL - Statement of Changes in Beneficial Ownership (4) https://t.co/kyTlLohIEE
p281
aV2017-04-04 | $AAPL - Statement of Changes in Beneficial Ownership (4) https://t.co/5bQzd2ycIs
p282
aV2017-04-04 | $AAPL - Statement of Changes in Beneficial Ownership (4) https://t.co/em5smIKeru
p283
aV2017-04-04 | Apple warns iCloud users some services accidentally reactivated with iOS 10.3 https://t.co/1BlJ3fTBvd #AppleInsider\u2026 https://t.co/7n8UFT4d2R
p284
aV2017-04-04 | $AAPL:  New Insider Filing on  Senior Vice President  PHILIP W SCHILLER:  https://t.co/Ogoekkz4Wa
p285
aV2017-04-04 | $AAPL - Statement of Changes in Beneficial Ownership (4) https://t.co/EL64bjE5NK
p286
aV2017-04-04 | $AAPL - Statement of Changes in Beneficial Ownership (4) https://t.co/1gNPkSICiR
p287
aV2017-04-04 | $AAPL - Statement of Changes in Beneficial Ownership (4) https://t.co/VATwPAiq8q
p288
aV2017-04-04 | $AAPL - Statement of Changes in Beneficial Ownership (4) https://t.co/IRQmlmnhSz
p289
aV2017-04-04 | $AAPL - Statement of Changes in Beneficial Ownership (4) https://t.co/qIwiQH8hP4
p290
aV2017-04-04 | $AAPL - Statement of Changes in Beneficial Ownership (4) https://t.co/griC5Xsnsu
p291
aV2017-04-04 | $AAPL - Statement of Changes in Beneficial Ownership (4) https://t.co/xebqKeHvK8
p292
aV2017-04-04 | $AAPL - Statement of Changes in Beneficial Ownership (4) https://t.co/O2pQEv7avg
p293
aV2017-04-04 | $AAPL - Statement of Changes in Beneficial Ownership (4) https://t.co/nqPitnIkqq
p294
aV2017-04-04 | $AAPL - Statement of Changes in Beneficial Ownership (4) https://t.co/iFGcmrkeoL
p295
asI3
(lp296
V2017-04-03 | $AAPL goes big for #iPhone8   #Apple #Stocks #StockMarket  https://t.co/xNGMsLf84a
p297
aV2017-04-03 | Why You Shouldn't Be Surprised That Apple Is Ditching Imagination Technologies @themotleyfool #stocks $AAPL https://t.co/B7oTCdfi7r
p298
aV2017-04-03 | #BREAKING Android Passes Windows As Top Internet OS.  $GOOGL $MSFT $AAPL https://t.co/6ouK844U3H https://t.co/jSICPN9ZOg
p299
aV2017-04-03 | @Bamabroker in addition to $TLT it went to the safety $amzn $aapl $fb $GOOG
p300
aV2017-04-03 | RT @treabase: $AAPL #patent 20170094391: Magnetic retention of earbud within cavity https://t.co/UuAj5tubLo #tech #IP https://t.co/yVYiJpYP\u2026
p301
aV2017-04-03 | Apple ordering 70 million Samsung OLED panels for 'iPhone 8' - report https://t.co/3a45W5Ocd6 #AppleInsider $AAPL https://t.co/iZnEsBELbJ
p302
aV2017-04-03 | RT @treabase: $AAPL #patent 20170094391: Magnetic retention of earbud within cavity https://t.co/UuAj5tubLo #tech #IP https://t.co/yVYiJpYP\u2026
p303
aV2017-04-03 | $AAPL #patent 20170094391: Magnetic retention of earbud within cavity https://t.co/UuAj5tubLo #tech #IP https://t.co/yVYiJpYPLI
p304
aV2017-04-03 | IndieGameDevBot RT RyanKairer: Posted a new review of the Koogeek HomeKit Compatible Smart Plug Cool gadget. https://t.co/Oknpq2lRcD $AAPL\u2026
p305
aV2017-04-03 | only watching and focusing on $GOOGL $NVDA $TSLA $AMD $LULU this week and $AAPL for run up into ER
p306
aV2017-04-03 | RT @DomainMondo: Tech Review UPDATE: #Android now world\u2019s most popular OS for internet use, Goodbye @Windows https://t.co/IqkGmvpequ $MSFT\u2026
p307
aV2017-04-03 | RT @DomainMondo: Tech Review UPDATE: #Android now world\u2019s most popular OS for internet use, Goodbye @Windows https://t.co/IqkGmvpequ $MSFT\u2026
p308
aV2017-04-03 | RT @DomainMondo: Tech Review UPDATE: #Android now world\u2019s most popular OS for internet use, Goodbye @Windows https://t.co/IqkGmvpequ $MSFT\u2026
p309
aV2017-04-03 | RT @RyanKairer: Posted a new review of the Koogeek HomeKit Compatible Smart Plug  Cool gadget. https://t.co/XxIyQ64FFj $AAPL #iosdev #gadge\u2026
p310
aV2017-04-03 | RT @DomainMondo: Tech Review UPDATE: #Android now world\u2019s most popular OS for internet use, Goodbye @Windows https://t.co/IqkGmvpequ $MSFT\u2026
p311
aV2017-04-03 | RT @Flower_Power_67: $AAPL is going to $160. \u2014 Pete Najarian, Fast Money #TradersEdge
p312
aV2017-04-03 | RT @optioncharts: $AAPL maturity 04/07/2017 Vol PutCallRatio of 0.73 puts=45,643 calls=62,105 . https://t.co/2B64q6wt4V https://t.co/jesah7\u2026
p313
aV2017-04-03 | $AAPL is going to $160. \u2014 Pete Najarian, Fast Money #TradersEdge
p314
aV2017-04-03 | RT @DomainMondo: Tech Review UPDATE: #Android now world\u2019s most popular OS for internet use, Goodbye @Windows https://t.co/IqkGmvpequ $MSFT\u2026
p315
aV2017-04-03 | Should have held on to these stocks I owned in thousands once: $FB $22 $AAPL $55 $TSLA $35 $PCLN $3 #Facebook #Apple #Tesla #Priceline
p316
aV2017-04-03 | RT @DomainMondo: Tech Review UPDATE: #Android now world\u2019s most popular OS for internet use, Goodbye @Windows https://t.co/IqkGmvpequ $MSFT\u2026
p317
aV2017-04-03 | RT @DomainMondo: Tech Review UPDATE: #Android now world\u2019s most popular OS for internet use, Goodbye @Windows https://t.co/IqkGmvpequ $MSFT\u2026
p318
aV2017-04-03 | RT @DomainMondo: Tech Review UPDATE: #Android now world\u2019s most popular OS for internet use, Goodbye @Windows https://t.co/IqkGmvpequ $MSFT\u2026
p319
aV2017-04-03 | RT @DomainMondo: Tech Review UPDATE: #Android now world\u2019s most popular OS for internet use, Goodbye @Windows https://t.co/IqkGmvpequ $MSFT\u2026
p320
aV2017-04-03 | RT @DomainMondo: Tech Review UPDATE: #Android now world\u2019s most popular OS for internet use, Goodbye @Windows https://t.co/IqkGmvpequ $MSFT\u2026
p321
aV2017-04-03 | $AAPL maturity 04/07/2017 Vol PutCallRatio of 0.73 puts=45,643 calls=62,105 . https://t.co/2B64q6wt4V https://t.co/jesah7XxBO
p322
aV2017-04-03 | RT @RyanKairer: Posted a new review of the Koogeek HomeKit Compatible Smart Plug  Cool gadget. https://t.co/XxIyQ64FFj $AAPL #iosdev #gadge\u2026
p323
aV2017-04-03 | @ZenTrends 1) At $110 on $AAPL you were bullish I wasn't you were right. Well done brither. 2) Northy is a fraud &amp;\u2026 https://t.co/fzGo7nw2YI
p324
aV2017-04-03 | Building Winning Algorithmic Trading Systems by Kevin Davey: https://t.co/HUE3O9mOJ6 #algotrading #trading $SPY $VIX $AAPL $MCD
p325
aV2017-04-03 | RT @DomainMondo: Tech Review UPDATE: #Android now world\u2019s most popular OS for internet use, Goodbye @Windows https://t.co/IqkGmvpequ $MSFT\u2026
p326
aV2017-04-03 | RT @DomainMondo: Tech Review UPDATE: #Android now world\u2019s most popular OS for internet use, Goodbye @Windows https://t.co/IqkGmvpequ $MSFT\u2026
p327
aV2017-04-03 | RT @seeitmarket: $AAPL - Apple monthly chart.  Getting overbought... but notice the classic breakout --&gt; retest --&gt; and go pattern. https:/\u2026
p328
aV2017-04-03 | Stocks DOWN, Bonds &amp; Gold UP! https://t.co/TOkUAEWbrb #nasdaq #bloomberg #foxbusiness #cnbc #nytimes $spy $gld $aapl @iTunesPodcasts #money
p329
aV2017-04-03 | RT @DomainMondo: Tech Review UPDATE: #Android now world\u2019s most popular OS for internet use, Goodbye @Windows https://t.co/IqkGmvpequ $MSFT\u2026
p330
aV2017-04-03 | RT @treabase: $AAPL #patent 20170094390: Earbuds with acoustic insert https://t.co/2gBh4RpgBC #tech #IP https://t.co/T2nnHPp6LW
p331
aV2017-04-03 | Remember when GTAT went bankrupt when $AAPL ended their relationship? Pepperage Farm &amp; now $IMG remembers...https://t.co/uYl0646VHO
p332
aV2017-04-03 | $AAPL #patent 20170094390: Earbuds with acoustic insert https://t.co/2gBh4RpgBC #tech #IP https://t.co/T2nnHPp6LW
p333
aV2017-04-03 | Veteran designer Christopher Stringer leaves Apple after 21 years https://t.co/s3353i3iam #AppleInsider $AAPL https://t.co/VxSSqY0w2o
p334
aV2017-04-03 | RT @DomainMondo: Tech Review UPDATE: #Android now world\u2019s most popular OS for internet use, Goodbye @Windows https://t.co/IqkGmvpequ $MSFT\u2026
p335
aV2017-04-03 | $AAPL flagging on daily
p336
aV2017-04-03 | RT @WallStJesus: \U0001f525TODAY'S ACTIVE FLOW: $BAC $AAPL $TSLA $JPM $CSCO $AMZN $MU $NVDA $MON $AMD $MSFT $KMX $T $DB $X $GOOGL $EBAY $VRX $TWTR $\u2026
p337
aV2017-04-03 | RT @WallStJesus: \U0001f525TODAY'S ACTIVE FLOW: $BAC $AAPL $TSLA $JPM $CSCO $AMZN $MU $NVDA $MON $AMD $MSFT $KMX $T $DB $X $GOOGL $EBAY $VRX $TWTR $\u2026
p338
aV2017-04-03 | RT @DomainMondo: Tech Review UPDATE: #Android now world\u2019s most popular OS for internet use, Goodbye @Windows https://t.co/IqkGmvpequ $MSFT\u2026
p339
aV2017-04-03 | RT @XGemTrader: 1000% agree with @petenajarian that $AAPL is going to 160 @GuyAdami @timseymour @MelissaLeeCNBC @RiskReversal https://t.co/\u2026
p340
aV2017-04-03 | RT @DomainMondo: Tech Review UPDATE: #Android now world\u2019s most popular OS for internet use, Goodbye @Windows https://t.co/IqkGmvpequ $MSFT\u2026
p341
aV2017-04-03 | Tech Review UPDATE: #Android now world\u2019s most popular OS for internet use, Goodbye @Windows https://t.co/IqkGmvpequ\u2026 https://t.co/CYCbD2CGny
p342
aV2017-04-03 | Posted a new review of the Koogeek HomeKit Compatible Smart Plug  Cool gadget. https://t.co/XxIyQ64FFj $AAPL #iosdev #gadget #review
p343
aV2017-04-03 | RT @scalpthatstock: T3 Live Daily Recap - Let The Q2 Stock Fishing Begin  https://t.co/RKLTelhCRY  $SPX $IWM $XLF $BAC $TSLA $GOOGL $AMZN $\u2026
p344
aV2017-04-03 | RT @OphirGottlieb: https://t.co/BPfK6XyysS The Secret\u2019s Out: Apple Gets Dead Serious About India via @YahooFinance - $AAPL
p345
aV2017-04-03 | $AAPL holding strong in a weak-ish tape today, just tapping the 8ema &amp; stayed above https://t.co/beoEK4xOTP
p346
aV2017-04-03 | $STUDY $SPY current holdings.  Sold the larger $TSLA position for a nice gain, rolled down &amp; in to the wkly $aapl\u2026 https://t.co/Au3Aehmbgk
p347
aV2017-04-03 | RT @option_snipper: Any company that is in the process of fundamentally changing people's ways of living deserves high valuation. $AAPL $TS\u2026
p348
aV2017-04-03 | Den of Thieves by James B. Stewart: https://t.co/tgSWH2PXGZ $SPY $AAPL $AMZN $VIX
p349
aV2017-04-03 | The Secret\u2019s Out: Apple Gets Dead Serious About India $AAPL https://t.co/S6DviHMrfm https://t.co/RVHz2nvC9B
p350
aV2017-04-03 | https://t.co/BPfK6XyysS The Secret\u2019s Out: Apple Gets Dead Serious About India via @YahooFinance - $AAPL
p351
aV2017-04-03 | T3 Live Daily Recap - Let The Q2 Stock Fishing Begin  https://t.co/RKLTelhCRY  $SPX $IWM $XLF $BAC $TSLA $GOOGL $AMZN $NVDA $SPY $BABA $AAPL
p352
aV2017-04-03 | RT @treabase: $AAPL #patent 20170094389: Wireless ear buds with proximity sensors https://t.co/MgrTFHzY3z #tech #IP https://t.co/jfw48Zxk9g
p353
aV2017-04-03 | RT @MacHashNews: iOS 10.3.1 includes bug fixes and improves the security of your iPhone or iPad https://t.co/Fz2JuvY1B3 #ArsTechnica $AAPL\u2026
p354
aV2017-04-03 | $AAPL #patent 20170094389: Wireless ear buds with proximity sensors https://t.co/MgrTFHzY3z #tech #IP https://t.co/jfw48Zxk9g
p355
aV2017-04-03 | iOS 10.3.1 includes bug fixes and improves the security of your iPhone or iPad https://t.co/Fz2JuvY1B3 #ArsTechnica\u2026 https://t.co/NNGYl4lltX
p356
aV2017-04-03 | #Apple  Into a Daily Trading Range (red) and +24.0% above the 200 DMA (Day Moving Avg-green line) $AAPL #Trading\u2026 https://t.co/sTACfXqDiK
p357
aV2017-04-03 | RT @PrivateCapBlog: How Soon Will India Replace China For Apple? $AAPL https://t.co/KGaVsuembH
p358
aV2017-04-03 | RT @AAPLTree: On the later side, IIRC.  Mark your calendars. $AAPL  https://t.co/tP461E8gkx
p359
aV2017-04-03 | The Neatest Little Guide to Stock Market Investing: https://t.co/pgTRFzPHuJ #stocks #investing $SPY $AAPL $TSLA $AMZN
p360
aV2017-04-03 | RT @ElixiumJupiter: #Trading with #Bitcoin  https://t.co/7CK2LpRMRN  @ElixiumBitcoin #Blockchain #Crypto #Cryptocurrency $GOOG $AAPL $TSLA\u2026
p361
aV2017-04-03 | How Soon Will India Replace China For Apple? $AAPL https://t.co/KGaVsuembH
p362
aV2017-04-03 | How to Overcome Big Trading Losses https://t.co/YilpW05nhl #Trading #Stocks #Options #Success #Investing $AAPL $FB $AMAN $TWTR $GS $GM $F
p363
aV2017-04-03 | RT @AAPLTree: On the later side, IIRC.  Mark your calendars. $AAPL  https://t.co/tP461E8gkx
p364
aV2017-04-03 | RT @whotrades: Apple Set For Biggest Quarter in Five Years, But is It Poised for a Massive 2017? https://t.co/sUVJ6JCfEz $AAPL
p365
aV2017-04-03 | On the later side, IIRC.  Mark your calendars. $AAPL  https://t.co/tP461E8gkx
p366
aV2017-04-03 | RT @option_snipper: Any company that is in the process of fundamentally changing people's ways of living deserves high valuation. $AAPL $TS\u2026
p367
aV2017-04-03 | $AAPL closes second day in a row with true doji and is forms small bull flag https://t.co/6SdRLWGrDU
p368
aV2017-04-03 | A Beginner's Guide to Day Trading Online: https://t.co/8daaWMMQbV #daytrading #trading $SPY $ES_F $AAPL
p369
aV2017-04-03 | Top stocks you should consider buying this week! https://t.co/yiPHmsvR3K $GE $FB $AAPL
p370
aV2017-04-03 | RT @theinformation: Apple industrial designer who was at Apple for 21 years and involved in the first iPhones and iPads departs. $AAPL http\u2026
p371
aV2017-04-03 | RT @ebcapital: 5 Best Core Growth Stocks For Your Portfolio @themotleyfool #stocks #invest $AAPL, $AMZN, $GOOGL, $FB, $CELG, $GOOG https://\u2026
p372
aV2017-04-03 | #Instant #Apple Unlocking $0.99 Cent All #iPhone FOR 3GS 4 4S 5 5C 5S 6 6+ #unlockfusion #icloud #freeunlock #factoryunlock $AAPL #unlock
p373
aV2017-04-03 | And it will, right before a historic 2018 crash no one will ever see coming. $AAPL yearly and biyearly puts. Number\u2026 https://t.co/QIhZ25SbwI
p374
aV2017-04-03 | \U0001f525TODAY'S ACTIVE FLOW: $BAC $AAPL $TSLA $JPM $CSCO $AMZN $MU $NVDA $MON $AMD $MSFT $KMX $T $DB $X $GOOGL $EBAY $VRX\u2026 https://t.co/yBeT8RxvDJ
p375
aV2017-04-03 | RT @andreascseh: Who pays for Eating, Drinking and Warmongering for Free? Sheeple Americans &amp; Europeans for Sure Not Big Cock Offshore Tim\u2026
p376
aV2017-04-03 | Report suggests $SNE #SONY is developing a 150-megapixel backlit sensor https://t.co/4rcZJqBEgk  #nikkei $AAPL\u2026 https://t.co/UxleKmV6jB
p377
aV2017-04-03 | RT @XGemTrader: 1000% agree with @petenajarian that $AAPL is going to 160 @GuyAdami @timseymour @MelissaLeeCNBC @RiskReversal https://t.co/\u2026
p378
aV2017-04-03 | $AAPL #patent 20170094388: Headphone eartips with internal support componen... https://t.co/wGuwR8mgFt #tech #IP https://t.co/LbfzM0OuqZ
p379
aV2017-04-03 | RT @XGemTrader: 1000% agree with @petenajarian that $AAPL is going to 160 @GuyAdami @timseymour @MelissaLeeCNBC @RiskReversal https://t.co/\u2026
p380
aV2017-04-03 | RT @XGemTrader: 1000% agree with @petenajarian that $AAPL is going to 160 @GuyAdami @timseymour @MelissaLeeCNBC @RiskReversal https://t.co/\u2026
p381
aV2017-04-03 | MUST READ: Up today on news. Short squeeze coming: https://t.co/0TuhB37PYv $AAPL $DIA $CSX $EWZ $ADP $WPZ $SAVE $CP $NTES $ONCS
p382
aV2017-04-03 | Koogeek Smart Plug Review https://t.co/CObyYuLOSA #MacHash $AAPL https://t.co/qChWmr7JHV
p383
aV2017-04-03 | RT @ElixiumJupiter: #Trading with #Bitcoin  https://t.co/7CK2LpRMRN  @ElixiumBitcoin #Blockchain #Crypto #Cryptocurrency $GOOG $AAPL $TSLA\u2026
p384
aV2017-04-03 | Next iPhone would be amazing because of one simple feature https://t.co/aP79uYoHpZ $AAPL
p385
aV2017-04-03 | @EatSleepNTrade @elonmusk People don't realize the vision of this Company. Investors believe in vision, not just to\u2026 https://t.co/WDpx8KRN4Z
p386
aV2017-04-03 | Apple Set For Biggest Quarter in Five Years, But is It Poised for a Massive 2017? https://t.co/sUVJ6JCfEz $AAPL
p387
aV2017-04-03 | RT @itzstockchartz: $QQQ $AAPL Divergences https://t.co/VbybeHrqRP
p388
aV2017-04-03 | RT @ElixiumJupiter: #Trading with #Bitcoin  https://t.co/7CK2LpRMRN  @ElixiumBitcoin #Blockchain #Crypto #Cryptocurrency $GOOG $AAPL $TSLA\u2026
p389
aV2017-04-03 | IGNMF got hurt, what can happen if giant doesn't want to acquire you https://t.co/6qcq7Ly0k2 $AAPL $IGNMF
p390
aV2017-04-03 | Apple industrial designer who was at Apple for 21 years and involved in the first iPhones and iPads departs. $AAPL https://t.co/nsJXGeTRZt
p391
aV2017-04-03 | How Soon Will India Replace China For Apple?... https://t.co/J5zufhWkV7 $AAPL
p392
aV2017-04-03 | $aapl is buying back Warren Buffett s load, how about that? https://t.co/SK8vD7DDl0
p393
asI4
(lp394
V2017-04-02 | RT @finzine: $AAPL Is It Time to Upgrade Your iPad? Probably Not https://t.co/WXlkQ0yvge
p395
aV2017-04-02 | RT @ElixiumCrypto: #Trading with #Bitcoin  https://t.co/O2OJksMa3p   @ElixiumBitcoin #Blockchain #Crypto #Cryptocurrency $GOOG $AAPL $TSLA\u2026
p396
aV2017-04-02 | $AAPL Is It Time to Upgrade Your iPad? Probably Not https://t.co/WXlkQ0yvge
p397
aV2017-04-02 | RT @ElixiumNeptune: #Trading with #Bitcoin  https://t.co/Fbjg0jCHj7  @ElixiumBitcoin #Blockchain #Crypto #Cryptocurrency $GOOG $AAPL $TSLA\u2026
p398
aV2017-04-02 | RT @ElixiumNeptune: #Trading with #Bitcoin  https://t.co/Fbjg0jCHj7  @ElixiumBitcoin #Blockchain #Crypto #Cryptocurrency $GOOG $AAPL $TSLA\u2026
p399
aV2017-04-02 | RT @projectedranges: PROJECTED Stock Quarterly Ranges for Q2 2017: $AAPL (145.38 YRLY target)  $AGN $AMZN $FB $GOOG $GILD $NFLX $NVDA $TSLA\u2026
p400
aV2017-04-02 | RT @treabase: $AAPL #patent 20170093107: Rotating contact ring with legs extending at an... https://t.co/5smiy86LAm #tech #IP https://t.co/\u2026
p401
aV2017-04-02 | RT @ElixiumCrypto: #Trading with #Bitcoin  https://t.co/O2OJksMa3p   @ElixiumBitcoin #Blockchain #Crypto #Cryptocurrency $GOOG $AAPL $TSLA\u2026
p402
aV2017-04-02 | RT @ElixiumNeptune: #Trading with #Bitcoin  https://t.co/Fbjg0jCHj7  @ElixiumBitcoin #Blockchain #Crypto #Cryptocurrency $GOOG $AAPL $TSLA\u2026
p403
aV2017-04-02 | $AAPL #patent 20170093107: Rotating contact ring with legs extending at an... https://t.co/5smiy86LAm #tech #IP https://t.co/9vn6Ek1FL5
p404
aV2017-04-02 | got my watch ready for the week $AMD $TSLA $GOOGL $AMZN $AAPL $NVDA - and stocks $NSPR $RXII $ARGS $ANTH
p405
aV2017-04-02 | RT @jedimarkus77: $AAPL $MSFT $AMZN $FB $GOOG $GOOGL $CMCSA $INTC $CSCO $AMGN https://t.co/GHdSdUKYpL
p406
aV2017-04-02 | $AAPL $MSFT $AMZN $FB $GOOG $GOOGL $CMCSA $INTC $CSCO $AMGN https://t.co/GHdSdUKYpL
p407
aV2017-04-02 | RT @ElixiumCrypto: #Trading with #Bitcoin  https://t.co/O2OJksMa3p  @ElixiumBitcoin #Blockchain #Crypto #Cryptocurrency $GOOG $AAPL $TSLA $\u2026
p408
aV2017-04-02 | PROJECTED Stock Monthly Ranges for April: $AAPL (145.38 YRLY target)  $AGN $AMZN $FB $GOOG $GILD $NFLX $NVDA $TSLA\u2026 https://t.co/kuDOGOtydH
p409
aV2017-04-02 | @Bamabroker @GreenMonsterah Big Boy Tech holding up the whole mess  $AAPL $AMZN $GOOG $GOOGL  Question as earnings\u2026 https://t.co/ne9p0r34M7
p410
aV2017-04-02 | PROJECTED Stock Quarterly Ranges for Q2 2017: $AAPL (145.38 YRLY target)  $AGN $AMZN $FB $GOOG $GILD $NFLX $NVDA\u2026 https://t.co/nMZLULPg5y
p411
aV2017-04-02 | RT @TedatACA: #Apple wants to sell @HBO, Showtime and Starz in a single bundle https://t.co/jlRfPoM4Go $AAPL $CBS @Recode @pkafka https://t\u2026
p412
aV2017-04-02 | $AAPL sum put vol=45,240 sum call vol=50,566 PutCallRatio=0.89 expiration 04/07/2017 . https://t.co/2B64q6wt4V https://t.co/CJ7E3Zegtq
p413
aV2017-04-02 | Many of you young bucks prolly dont even remember when $BBRY was on top of the world - they let $AAPL come in and eat their lunch 1/2
p414
aV2017-04-02 | RT @TedatACA: #Apple wants to sell @HBO, Showtime and Starz in a single bundle https://t.co/jlRfPoM4Go $AAPL $CBS @Recode @pkafka https://t\u2026
p415
aV2017-04-02 | RT @TedatACA: #Apple wants to sell @HBO, Showtime and Starz in a single bundle https://t.co/jlRfPoM4Go $AAPL $CBS @Recode @pkafka https://t\u2026
p416
aV2017-04-02 | RT @ElixiumNeptune: #Trading with #Bitcoin  https://t.co/Fbjg0jCHj7  @ElixiumBitcoin #Blockchain #Crypto #Cryptocurrency $GOOG $AAPL $TSLA\u2026
p417
aV2017-04-02 | #Apple wants to sell @HBO, Showtime and Starz in a single bundle https://t.co/jlRfPoM4Go $AAPL $CBS @Recode @pkafka https://t.co/mbQ6ruxT1q
p418
aV2017-04-02 | Apple reportedly working to offer \u2018premium TV' streaming bundle https://t.co/nr4AoLTvxG #9to5Mac $AAPL https://t.co/ZRB3BrMBWt
p419
aV2017-04-02 | RT @Benzinga: Benzinga Stocks Of The Week: GE, Facebook, Apple And More https://t.co/CJm440RuIR $AA $AAPL $AVGO $EXTR $GE $BBRY $FB
p420
aV2017-04-02 | RT @Benzinga: Benzinga Stocks Of The Week: GE, Facebook, Apple And More https://t.co/CJm440RuIR $AA $AAPL $AVGO $EXTR $GE $BBRY $FB
p421
aV2017-04-02 | RT @ElixiumNeptune: #Trading with #Bitcoin  https://t.co/Fbjg0jCHj7  @ElixiumBitcoin #Blockchain #Crypto #Cryptocurrency $GOOG $AAPL $TSLA\u2026
p422
aV2017-04-02 | RT @stocknewsdotcom: $AAPL Company wants to sell HBO, Showtime and Starz in a single bundle https://t.co/DzH30vyiwr
p423
aV2017-04-02 | $AAPL Company wants to sell HBO, Showtime and Starz in a single bundle https://t.co/DzH30vyiwr
p424
aV2017-04-02 | Benzinga: Benzinga Stocks Of The Week: GE, Facebook, Apple And More https://t.co/zhNjGSLNss $AA $AAPL $AVGO $EXTR $GE $BBRY $FB
p425
aV2017-04-02 | DUI checkpoints for the first time since buying $AAPL in summer 2014 I am in you.
p426
aV2017-04-02 | \u201cAmateurs want to be right. Professionals want to make money.\u201d  $AAPL $GS $TSLA $NFLX $WYNN $AMZN $GOOGL $BABA $FB $NVDA $PCLN $AMD $BIDU
p427
aV2017-04-02 | $SPY This is what happens when #MiserableBear loses all his money #PhonyTrader #StockLoser $AAPL $IWM $QQQ $XLF\u2026 https://t.co/BP1itMYf7l
p428
aV2017-04-02 | Benzinga Stocks Of The Week: GE, Facebook, Apple And More https://t.co/CJm440RuIR $AA $AAPL $AVGO $EXTR $GE $BBRY $FB
p429
aV2017-04-02 | RT @option_snipper: My biased APRIL prediction based on charts: $TSLA to 306, $NVDA to 124, $AMD to 16, $GOOGL to 897, $MU to 34, $AAPL to\u2026
p430
aV2017-04-02 | RT @OptionsMaestro: My next 3 trades in focus are $TSLA $NFLX $AAPL. Looks like $TSLA will gap up at the open tomorrow with news catalyst
p431
aV2017-04-02 | My next 3 trades in focus are $TSLA $NFLX $AAPL. Looks like $TSLA will gap up at the open tomorrow with news catalyst
p432
aV2017-04-02 | RT @treabase: $AAPL #patent 20170093099: Interconnect devices https://t.co/Wc64VodPjf #tech #IP https://t.co/V5oGLbRQKW
p433
aV2017-04-02 | RT @treabase: $AAPL #patent 20170093099: Interconnect devices https://t.co/Wc64VodPjf #tech #IP https://t.co/V5oGLbRQKW
p434
aV2017-04-02 | RT @treabase: $AAPL #patent 20170093099: Interconnect devices https://t.co/Wc64VodPjf #tech #IP https://t.co/V5oGLbRQKW
p435
aV2017-04-02 | RT @treabase: $AAPL #patent 20170093099: Interconnect devices https://t.co/Wc64VodPjf #tech #IP https://t.co/V5oGLbRQKW
p436
aV2017-04-02 | RT @marketexclusive: Next To Exxon, Apple Looks Like A World Beater https://t.co/ZiIdi0PhAj $aapl $xom #stocks #value
p437
aV2017-04-02 | The Manual of Ideas: The Proven Framework for Finding the Best Value Investments: https://t.co/KqvP31P6kW $AAPL $IBM $CSCO $INTC $COST
p438
aV2017-04-02 | RT @treabase: $AAPL #patent 20170093099: Interconnect devices https://t.co/Wc64VodPjf #tech #IP https://t.co/V5oGLbRQKW
p439
aV2017-04-02 | Apple May Offer HBO, Showtime, and Starz Channels as Single TV Package https://t.co/iLH9erbBS6 #MacRumors $AAPL https://t.co/4i8DcJCQfz
p440
aV2017-04-02 | RT @ElixiumNeptune: #Trading with #Bitcoin  https://t.co/Fbjg0jCHj7  @ElixiumBitcoin #Blockchain #Crypto #Cryptocurrency $GOOG $AAPL $TSLA\u2026
p441
aV2017-04-02 | $AAPL #patent 20170093099: Interconnect devices https://t.co/Wc64VodPjf #tech #IP https://t.co/V5oGLbRQKW
p442
aV2017-04-02 | RT @_steve3_: wow -&gt; that's F/in material Jim -&gt; @jimcramer   #RaiseItUp $AAPL  AGAIN  Tim Tim Tim  @tim_cook - what are we going to do wit\u2026
p443
aV2017-04-02 | RT @Investing_Books: The Vulture Investors by Hilary Rosenberg: https://t.co/GbzqAHDN0e $AAPL $SPY $SPX $VIX $DIA $QQQ
p444
aV2017-04-02 | Are you Bullish or Bearish on #Apple? Start #Trading $AAPL with #Bitcoin. 15:1 Leverage. #Cool #Gif #Stocks\u2026 https://t.co/hjIk7gG9Yf
p445
aV2017-04-02 | wow -&gt; that's F/in material Jim -&gt; @jimcramer   #RaiseItUp $AAPL  AGAIN  Tim Tim Tim  @tim_cook - what are we going\u2026 https://t.co/F0GPsdLKHU
p446
aV2017-04-02 | RT @marketexclusive: Next To Exxon, Apple Looks Like A World Beater https://t.co/ZiIdi0PhAj $aapl $xom #stocks #value
p447
aV2017-04-02 | RT @andreascseh: David de Rothschild's Braeburn Capital is #Investing Tax Free Cash Apple has Amassed in Corruption $AAPL https://t.co/uYmZ\u2026
p448
aV2017-04-02 | RT @OphirGottlieb: Apple wants to sell HBO, Showtime and Starz in a single bundle https://t.co/u8Mz3VrDWb via @Recode - $AAPL Here they com\u2026
p449
aV2017-04-02 | RT @treabase: $AAPL #patent 20170093087: Magnetic surface contacts https://t.co/el7Mw53c7y #tech #IP https://t.co/Npo3GwJ4Gd
p450
aV2017-04-02 | Proven Option Spread Trading Strategies by Billy Williams: https://t.co/d6EJGf2OEl #options #trading $AAPL $IBM $JNJ $PG $MCD
p451
aV2017-04-02 | RT @Investing_Books: The Vulture Investors by Hilary Rosenberg: https://t.co/GbzqAHDN0e $AAPL $SPY $SPX $VIX $DIA $QQQ
p452
aV2017-04-02 | @TommyThornton @Ev_Investor @elonmusk Every electronics co had a smart phone 1 year after $AAPL. how that work out for them
p453
aV2017-04-02 | $AAPL #patent 20170093087: Magnetic surface contacts https://t.co/el7Mw53c7y #tech #IP https://t.co/Npo3GwJ4Gd
p454
aV2017-04-02 | RT @learnstocks101: Free video w/setups for April 3 "Trade Signals" $AAPL $TSLA $MU $HPQ $AMZN https://t.co/y9NICg3GCi
p455
aV2017-04-02 | Options For Monday + Ranges https://t.co/knMU0bGLN6 $AAPL $SPY
p456
aV2017-04-02 | RT @option_snipper: My biased 2017 prediction based on CHARTS:  $TSLA 355, $AMZN 1019, $AAPL 176, $NFLX 197, $BABA 158, $MU 46, $AMD 24, $G\u2026
p457
aV2017-04-02 | RT @Investing_Books: The Vulture Investors by Hilary Rosenberg: https://t.co/GbzqAHDN0e $AAPL $SPY $SPX $VIX $DIA $QQQ
p458
aV2017-04-02 | The Vulture Investors by Hilary Rosenberg: https://t.co/GbzqAHDN0e $AAPL $SPY $SPX $VIX $DIA $QQQ
p459
aV2017-04-02 | RT @OphirGottlieb: Apple wants to sell HBO, Showtime and Starz in a single bundle https://t.co/u8Mz3VrDWb via @Recode - $AAPL Here they com\u2026
p460
aV2017-04-02 | RT @OphirGottlieb: Apple wants to sell HBO, Showtime and Starz in a single bundle https://t.co/u8Mz3VrDWb via @Recode - $AAPL Here they com\u2026
p461
aV2017-04-02 | Tech shares rally hard for the quarter led by Apple and Facebook https://t.co/rCYBadJs0I via @FT: #technology #tech #stocks $AAPL $FB
p462
aV2017-04-02 | Free video w/setups for April 3 "Trade Signals" $AAPL $TSLA $MU $HPQ $AMZN https://t.co/y9NICg3GCi
p463
aV2017-04-02 | Almost Everyone Will Start Paying U.S. Sales Tax on Amazon--Tech Roundup $AMZN $AAPL $EBAY https://t.co/CSqxObBaos via @TheStreet
p464
aV2017-04-02 | Apple wants to sell HBO, Showtime and Starz in a single bundle https://t.co/u8Mz3VrDWb via @Recode - $AAPL Here they come, all areas.
p465
aV2017-04-02 | RT @SharePlanner: Dedication &amp; focus and an eye for risk management. Find it in the Splash Zone today! $CHK $AAPL #stocks $FB $ADBE https:/\u2026
p466
aV2017-04-02 | RT @marketexclusive: Next To Exxon, Apple Looks Like A World Beater https://t.co/ZiIdi0PhAj $aapl $xom #stocks #value
p467
aV2017-04-02 | RT @ElixiumNeptune: #Trading with #Bitcoin  https://t.co/Fbjg0jCHj7  @ElixiumBitcoin #Blockchain #Crypto #Cryptocurrency $GOOG $AAPL $TSLA\u2026
p468
aV2017-04-02 | simple MACD test $AAPL https://t.co/Tzizlk6pk0 TV_TradingIdeas
p469
aV2017-04-02 | RT @Investor_tj0o: Should I transition my strategy over to $AAPL for a week? I wonder how it will perform with stocks since they can have h\u2026
p470
aV2017-04-02 | $AAPL #patent 20170093085: Concealed apparatus for communicating with an el... https://t.co/oDyQpibiC6 #tech #IP https://t.co/QoHv7x1ASF
p471
aV2017-04-02 | simple MACD test $AAPL https://t.co/BZo8kwdjVa
p472
aV2017-04-02 | Should I transition my strategy over to $AAPL for a week? I wonder how it will perform with stocks since they can have higher returns.
p473
aV2017-04-02 | RT @ElixiumNeptune: #Trading with #Bitcoin  https://t.co/Fbjg0jCHj7  @ElixiumBitcoin #Blockchain #Crypto #Cryptocurrency $GOOG $AAPL $TSLA\u2026
p474
aV2017-04-02 | Set up your FREE #DayTrading journal | $AKTX $CNAT $DRNA $CBIO $AUPH $SNAP $MRNS $AAPL $FB $SPY #stocks #livestream https://t.co/0b0iPYAfIX
p475
aV2017-04-02 | $AAPL hires former $GOOG YouTube &amp; Spotify exec Shiva Rajaraman to "strengthen its position in video" against rivals like $NFLX &amp; $AMZN
p476
aV2017-04-02 | RT @ExactOptionPick: Stop trading the wrong options and start trading the winners!!   https://t.co/78FVQDKYyw $AAPL $NFLX $AMZN $GOOGL $BAB\u2026
p477
aV2017-04-02 | $SPX Hello it's me @Adele Monday! Let the trading begin $AAPL $VIX $FB $XOM @MadMoneyOnCNBC @CNBCFastMoney @WSJ\u2026 https://t.co/2pvSTBanl4
p478
aV2017-04-02 | RT @marketexclusive: Next To Exxon, Apple Looks Like A World Beater https://t.co/ZiIdi0PhAj $aapl $xom #stocks #value
p479
aV2017-04-02 | $AAPL APPLE: SELL Now &amp; Thank Warren Buffett Later https://t.co/kXybumwUlw https://t.co/uZRBsVsgKU
p480
aV2017-04-02 | $AAPL #patent 20170093079: Waterproof receptacle connector https://t.co/U4EdnilYgX #tech #IP https://t.co/G1JHArvvF0
p481
aV2017-04-02 | RT @ExactOptionPick: Stop trading the wrong options and start trading the winners!!   https://t.co/78FVQDKYyw $AAPL $NFLX $AMZN $GOOGL $BAB\u2026
p482
aV2017-04-02 | RT @ExactOptionPick: Stop trading the wrong options and start trading the winners!!   https://t.co/78FVQDKYyw $AAPL $NFLX $AMZN $GOOGL $BAB\u2026
p483
aV2017-04-02 | #Apple Record High $144.50\U0001f60dDouble Number $AAPL MONTHLY Price Pattern Coordinates Chart Monthly Time Price 6UA Area\u2026 https://t.co/KOsJ215DHu
p484
aV2017-04-02 | Stop trading the wrong options and start trading the winners!!   https://t.co/78FVQDKYyw $AAPL $NFLX $AMZN $GOOGL $BABA  $WYNN $NVDA $PCLN
p485
aV2017-04-02 | RT @Benzinga: Where You Can Stream Music For Less Than $10/Month https://t.co/O1J0sU6vuh $AAPL $AMZN $BBRY $GOOG
p486
aV2017-04-02 | Sell $AAPL it is nt going anywhere #90sPagerMessages
p487
aV2017-04-02 | Logic Pros (101): Tips to supercharge your recording, editing, &amp; workflow https://t.co/CMVSlaSblg #9to5Mac $AAPL https://t.co/9CvS3cb0ID
p488
aV2017-04-02 | RT @YahooFinance: Apple CEO Tim Cook took a look at secretive billion-dollar startup Magic Leap https://t.co/fpfp97Xex0 $AAPL https://t.co/\u2026
p489
aV2017-04-02 | RT @jonsteinberg: Video content is more of a battleground and need for tech companies than I ever could have imagined.  Even $AAPL https://\u2026
p490
aV2017-04-02 | $mu $aapl @option_snipper bidding war for Toshiba NAND memory business may give $mu a boost tomorrow
p491
aV2017-04-02 | Benzinga: Where You Can Stream Music For Less Than $10/Month https://t.co/ciBrdakqiI $AAPL $AMZN $BBRY $GOOG
p492
aV2017-04-02 | RT @ClayTrader25: "How" and "Where" I Learned to Trade - https://t.co/W5Vt23v2Z2 $AAPL $SPY $DRYS $OWCP $USRM $MYDX $MMEX $SNAP $TSLA $NFLX\u2026
p493
aV2017-04-02 | Where You Can Stream Music For Less Than $10/Month https://t.co/O1J0sU6vuh $AAPL $AMZN $BBRY $GOOG
p494
asI5
(lp495
sI6
(lp496
sI7
(lp497
sI8
(lp498
sI9
(lp499
sI10
(lp500
sI11
(lp501
sI12
(lp502
sI13
(lp503
sI14
(lp504
sI15
(lp505
sI16
(lp506
sI17
(lp507
sI18
(lp508
s.