(dp0
I0
(lp1
V2017-04-06 | RT @philstockworld: Free Money Thursday - Draghi Says No to Tapering $QQQ $SPX $DIA $SPY $AAPL $AMZN $TSLA $GOOGL https://t.co/DqmpQKMeF8
p2
aV2017-04-06 | RT @philstockworld: Free Money Thursday - Draghi Says No to Tapering $QQQ $SPX $DIA $SPY $AAPL $AMZN $TSLA $GOOGL https://t.co/DqmpQKMeF8
p3
aV2017-04-06 | RT @philstockworld: Free Money Thursday - Draghi Says No to Tapering $QQQ $SPX $DIA $SPY $AAPL $AMZN $TSLA $GOOGL https://t.co/DqmpQKMeF8
p4
aV2017-04-06 | RT @philstockworld: Free Money Thursday - Draghi Says No to Tapering $QQQ $SPX $DIA $SPY $AAPL $AMZN $TSLA $GOOGL https://t.co/DqmpQKMeF8
p5
aV2017-04-06 | RT @philstockworld: Free Money Thursday - Draghi Says No to Tapering $QQQ $SPX $DIA $SPY $AAPL $AMZN $TSLA $GOOGL https://t.co/DqmpQKMeF8
p6
aV2017-04-06 | RT @philstockworld: Free Money Thursday - Draghi Says No to Tapering $QQQ $SPX $DIA $SPY $AAPL $AMZN $TSLA $GOOGL https://t.co/DqmpQKMeF8
p7
aV2017-04-06 | RT @philstockworld: Free Money Thursday - Draghi Says No to Tapering $QQQ $SPX $DIA $SPY $AAPL $AMZN $TSLA $GOOGL https://t.co/DqmpQKMeF8
p8
aV2017-04-06 | RT @philstockworld: Free Money Thursday - Draghi Says No to Tapering $QQQ $SPX $DIA $SPY $AAPL $AMZN $TSLA $GOOGL https://t.co/DqmpQKMeF8
p9
aV2017-04-06 | RT @philstockworld: Free Money Thursday - Draghi Says No to Tapering $QQQ $SPX $DIA $SPY $AAPL $AMZN $TSLA $GOOGL https://t.co/DqmpQKMeF8
p10
aV2017-04-06 | RT @philstockworld: Free Money Thursday - Draghi Says No to Tapering $QQQ $SPX $DIA $SPY $AAPL $AMZN $TSLA $GOOGL https://t.co/DqmpQKMeF8
p11
aV2017-04-06 | @Vuzix I think $aapl @Apple recognizes the long term #AR threat of $vuzi #m3000 &amp; #blade3000. They know good inputs. https://t.co/78zptjCnkK
p12
aV2017-04-06 | RT @philstockworld: Free Money Thursday - Draghi Says No to Tapering $QQQ $SPX $DIA $SPY $AAPL $AMZN $TSLA $GOOGL https://t.co/DqmpQKMeF8
p13
aV2017-04-06 | RT @philstockworld: Free Money Thursday - Draghi Says No to Tapering $QQQ $SPX $DIA $SPY $AAPL $AMZN $TSLA $GOOGL https://t.co/DqmpQKMeF8
p14
aV2017-04-06 | RT @anauburntiger: #WarEagle ! @tim_cook leading $AAPL  #Auburn #auburnfamily #auburnfootball @petenajarian https://t.co/5oPJs0jQOL
p15
aV2017-04-06 | RT @philstockworld: Free Money Thursday - Draghi Says No to Tapering $QQQ $SPX $DIA $SPY $AAPL $AMZN $TSLA $GOOGL https://t.co/DqmpQKMeF8
p16
aV2017-04-06 | #WarEagle ! @tim_cook leading $AAPL  #Auburn #auburnfamily #auburnfootball @petenajarian https://t.co/5oPJs0jQOL
p17
aV2017-04-06 | RT @philstockworld: Free Money Thursday - Draghi Says No to Tapering $QQQ $SPX $DIA $SPY $AAPL $AMZN $TSLA $GOOGL https://t.co/DqmpQKMeF8
p18
aV2017-04-06 | RT @philstockworld: Free Money Thursday - Draghi Says No to Tapering $QQQ $SPX $DIA $SPY $AAPL $AMZN $TSLA $GOOGL https://t.co/DqmpQKMeF8
p19
aV2017-04-06 | RT @philstockworld: Free Money Thursday - Draghi Says No to Tapering $QQQ $SPX $DIA $SPY $AAPL $AMZN $TSLA $GOOGL https://t.co/DqmpQKMeF8
p20
aV2017-04-06 | RT @philstockworld: Free Money Thursday - Draghi Says No to Tapering $QQQ $SPX $DIA $SPY $AAPL $AMZN $TSLA $GOOGL https://t.co/DqmpQKMeF8
p21
aV2017-04-06 | RT @philstockworld: Free Money Thursday - Draghi Says No to Tapering $QQQ $SPX $DIA $SPY $AAPL $AMZN $TSLA $GOOGL https://t.co/DqmpQKMeF8
p22
aV2017-04-06 | RT @philstockworld: Free Money Thursday - Draghi Says No to Tapering $QQQ $SPX $DIA $SPY $AAPL $AMZN $TSLA $GOOGL https://t.co/DqmpQKMeF8
p23
aV2017-04-06 | RT @philstockworld: Free Money Thursday - Draghi Says No to Tapering $QQQ $SPX $DIA $SPY $AAPL $AMZN $TSLA $GOOGL https://t.co/DqmpQKMeF8
p24
aV2017-04-06 | RT @philstockworld: Free Money Thursday - Draghi Says No to Tapering $QQQ $SPX $DIA $SPY $AAPL $AMZN $TSLA $GOOGL https://t.co/DqmpQKMeF8
p25
aV2017-04-06 | RT @philstockworld: Free Money Thursday - Draghi Says No to Tapering $QQQ $SPX $DIA $SPY $AAPL $AMZN $TSLA $GOOGL https://t.co/DqmpQKMeF8
p26
aV2017-04-06 | RT @philstockworld: Free Money Thursday - Draghi Says No to Tapering $QQQ $SPX $DIA $SPY $AAPL $AMZN $TSLA $GOOGL https://t.co/DqmpQKMeF8
p27
aV2017-04-06 | RT @WallStJesus: \U0001f525 TODAY'S ACTIVE FLOW &gt;&gt; $AMD $AAPL $AMZN $TSLA $FB $NVDA $JPM $CMCSA $TWTR $KMX $CHK $MU $CHK $MSFT $MBI $RAD $X $C $BABA\u2026
p28
aV2017-04-06 | RT @philstockworld: Free Money Thursday - Draghi Says No to Tapering $QQQ $SPX $DIA $SPY $AAPL $AMZN $TSLA $GOOGL https://t.co/DqmpQKMeF8
p29
aV2017-04-06 | RT @philstockworld: Free Money Thursday - Draghi Says No to Tapering $QQQ $SPX $DIA $SPY $AAPL $AMZN $TSLA $GOOGL https://t.co/DqmpQKMeF8
p30
aV2017-04-06 | RT @philstockworld: Free Money Thursday - Draghi Says No to Tapering $QQQ $SPX $DIA $SPY $AAPL $AMZN $TSLA $GOOGL https://t.co/DqmpQKMeF8
p31
aV2017-04-06 | RT @philstockworld: Free Money Thursday - Draghi Says No to Tapering $QQQ $SPX $DIA $SPY $AAPL $AMZN $TSLA $GOOGL https://t.co/DqmpQKMeF8
p32
aV2017-04-06 | RT @philstockworld: Free Money Thursday - Draghi Says No to Tapering $QQQ $SPX $DIA $SPY $AAPL $AMZN $TSLA $GOOGL https://t.co/DqmpQKMeF8
p33
aV2017-04-06 | RT @philstockworld: Free Money Thursday - Draghi Says No to Tapering $QQQ $SPX $DIA $SPY $AAPL $AMZN $TSLA $GOOGL https://t.co/DqmpQKMeF8
p34
aV2017-04-06 | RT @philstockworld: Free Money Thursday - Draghi Says No to Tapering $QQQ $SPX $DIA $SPY $AAPL $AMZN $TSLA $GOOGL https://t.co/DqmpQKMeF8
p35
aV2017-04-06 | Trading Tip of the Week 4/5/17 https://t.co/UOzw4HvsyP #Trading #Stocks #Options #Success $AAPL $FB $AMZN $TWTR $BIDU $GM $GS $DUST $GUSH
p36
aV2017-04-06 | RT @philstockworld: Free Money Thursday - Draghi Says No to Tapering $QQQ $SPX $DIA $SPY $AAPL $AMZN $TSLA $GOOGL https://t.co/DqmpQKMeF8
p37
aV2017-04-06 | RT @philstockworld: Free Money Thursday - Draghi Says No to Tapering $QQQ $SPX $DIA $SPY $AAPL $AMZN $TSLA $GOOGL https://t.co/DqmpQKMeF8
p38
aV2017-04-06 | RT @philstockworld: Free Money Thursday - Draghi Says No to Tapering $QQQ $SPX $DIA $SPY $AAPL $AMZN $TSLA $GOOGL https://t.co/DqmpQKMeF8
p39
aV2017-04-06 | RT @MacHashNews: Malwarebytes: New iOS \u2018malvertising' pushes \u2018free' VPN app https://t.co/yMXrLQiA6I #AppleWorldToday $AAPL https://t.co/AQR\u2026
p40
aV2017-04-06 | RT @philstockworld: Free Money Thursday - Draghi Says No to Tapering $QQQ $SPX $DIA $SPY $AAPL $AMZN $TSLA $GOOGL https://t.co/DqmpQKMeF8
p41
aV2017-04-06 | RT @philstockworld: Free Money Thursday - Draghi Says No to Tapering $QQQ $SPX $DIA $SPY $AAPL $AMZN $TSLA $GOOGL https://t.co/DqmpQKMeF8
p42
aV2017-04-06 | Malwarebytes: New iOS \u2018malvertising' pushes \u2018free' VPN app https://t.co/yMXrLQiA6I #AppleWorldToday $AAPL https://t.co/AQRpOsXI3N
p43
aV2017-04-06 | RT @philstockworld: Free Money Thursday - Draghi Says No to Tapering $QQQ $SPX $DIA $SPY $AAPL $AMZN $TSLA $GOOGL https://t.co/DqmpQKMeF8
p44
aV2017-04-06 | RT @Ascend_Trading: #PreMarket Live is on!  https://t.co/XPOUXYUC5I $FB $TWTR $AAPL $AMZN $SPY $SCON  $TENX $NVFY streaming with Restream.io
p45
aV2017-04-06 | RT @philstockworld: Free Money Thursday - Draghi Says No to Tapering $QQQ $SPX $DIA $SPY $AAPL $AMZN $TSLA $GOOGL https://t.co/DqmpQKMeF8
p46
aV2017-04-06 | RT @philstockworld: Free Money Thursday - Draghi Says No to Tapering $QQQ $SPX $DIA $SPY $AAPL $AMZN $TSLA $GOOGL https://t.co/DqmpQKMeF8
p47
aV2017-04-06 | RT @BarrySchwartzBW: Apple has reduced its share count by 20% in just four years. So far all those buybacks have created value. $AAPL
p48
aV2017-04-06 | RT @philstockworld: Free Money Thursday - Draghi Says No to Tapering $QQQ $SPX $DIA $SPY $AAPL $AMZN $TSLA $GOOGL https://t.co/DqmpQKMeF8
p49
aV2017-04-06 | RT @philstockworld: Free Money Thursday - Draghi Says No to Tapering $QQQ $SPX $DIA $SPY $AAPL $AMZN $TSLA $GOOGL https://t.co/DqmpQKMeF8
p50
aV2017-04-06 | RT @philstockworld: Free Money Thursday - Draghi Says No to Tapering $QQQ $SPX $DIA $SPY $AAPL $AMZN $TSLA $GOOGL https://t.co/DqmpQKMeF8
p51
aV2017-04-06 | RT @philstockworld: Free Money Thursday - Draghi Says No to Tapering $QQQ $SPX $DIA $SPY $AAPL $AMZN $TSLA $GOOGL https://t.co/DqmpQKMeF8
p52
aV2017-04-06 | RT @philstockworld: Free Money Thursday - Draghi Says No to Tapering $QQQ $SPX $DIA $SPY $AAPL $AMZN $TSLA $GOOGL https://t.co/DqmpQKMeF8
p53
aV2017-04-06 | RT @philstockworld: Free Money Thursday - Draghi Says No to Tapering $QQQ $SPX $DIA $SPY $AAPL $AMZN $TSLA $GOOGL https://t.co/DqmpQKMeF8
p54
aV2017-04-06 | RT @philstockworld: Free Money Thursday - Draghi Says No to Tapering $QQQ $SPX $DIA $SPY $AAPL $AMZN $TSLA $GOOGL https://t.co/DqmpQKMeF8
p55
aV2017-04-06 | @jimcramer Sounds like you are comparing these two to $AAPL #owndonttrade
p56
aV2017-04-06 | RT @MacHashNews: Is this the graphics card for the future Mac Pro? https://t.co/PurpogyUuc #Macworld $AAPL https://t.co/kvoiP1kARA
p57
aV2017-04-06 | RT @philstockworld: Free Money Thursday - Draghi Says No to Tapering $QQQ $SPX $DIA $SPY $AAPL $AMZN $TSLA $GOOGL https://t.co/DqmpQKMeF8
p58
aV2017-04-06 | RT @philstockworld: Free Money Thursday - Draghi Says No to Tapering $QQQ $SPX $DIA $SPY $AAPL $AMZN $TSLA $GOOGL https://t.co/DqmpQKMeF8
p59
aV2017-04-06 | RT @philstockworld: Free Money Thursday - Draghi Says No to Tapering $QQQ $SPX $DIA $SPY $AAPL $AMZN $TSLA $GOOGL https://t.co/DqmpQKMeF8
p60
aV2017-04-06 | RT @philstockworld: Free Money Thursday - Draghi Says No to Tapering $QQQ $SPX $DIA $SPY $AAPL $AMZN $TSLA $GOOGL https://t.co/DqmpQKMeF8
p61
aV2017-04-06 | RT @philstockworld: Free Money Thursday - Draghi Says No to Tapering $QQQ $SPX $DIA $SPY $AAPL $AMZN $TSLA $GOOGL https://t.co/DqmpQKMeF8
p62
aV2017-04-06 | RT @philstockworld: Free Money Thursday - Draghi Says No to Tapering $QQQ $SPX $DIA $SPY $AAPL $AMZN $TSLA $GOOGL https://t.co/DqmpQKMeF8
p63
aV2017-04-06 | RT @philstockworld: Free Money Thursday - Draghi Says No to Tapering $QQQ $SPX $DIA $SPY $AAPL $AMZN $TSLA $GOOGL https://t.co/DqmpQKMeF8
p64
aV2017-04-06 | RT @theflynews: REPORT: Apple develops video app in response to social media competitors: https://t.co/ykwcXWtbd9 $AAPL $FB $SNAP
p65
aV2017-04-06 | RT @racernic: Update on this wk's 8Iron condors: 7.5/8wins 4mmbrs (1ccs -.08/-.1 but noted to close flat yest $SPX $RUT $SPY $QQQ $IWM $AAP\u2026
p66
aV2017-04-06 | https://t.co/B24oQV42ds 4 FREE #txt &amp; email #stock alerts! $TWTR $SPY $AMZN $ICNB $PLUG $BTC $TSLA $AAPL $QQQ $MMEX\u2026 https://t.co/cFO0gWSvAg
p67
aV2017-04-06 | RT @Investing_Books: Options Trading For Beginners: How To Get Rich With Stock Options Trading: https://t.co/YvhmFGWIBg #trading #options $\u2026
p68
aV2017-04-06 | RT @TheStreet: The release would be the tech titan's Apple Watch Series 3 https://t.co/ePfwNOafWV $AAPL
p69
aV2017-04-06 | RT @philstockworld: Free Money Thursday - Draghi Says No to Tapering $QQQ $SPX $DIA $SPY $AAPL $AMZN $TSLA $GOOGL https://t.co/DqmpQKMeF8
p70
aV2017-04-06 | RT @philstockworld: Free Money Thursday - Draghi Says No to Tapering $QQQ $SPX $DIA $SPY $AAPL $AMZN $TSLA $GOOGL https://t.co/DqmpQKMeF8
p71
aV2017-04-06 | RT @philstockworld: Free Money Thursday - Draghi Says No to Tapering $QQQ $SPX $DIA $SPY $AAPL $AMZN $TSLA $GOOGL https://t.co/DqmpQKMeF8
p72
aV2017-04-06 | RT @barronsonline: Tech Today: Debating Nvidia, #iPhone Delays? Arista's Good News https://t.co/qY9JKVMpMk $NVDA $NOK $AMD $AAPL $ANET $CSC\u2026
p73
aV2017-04-06 | RT @philstockworld: Free Money Thursday - Draghi Says No to Tapering $QQQ $SPX $DIA $SPY $AAPL $AMZN $TSLA $GOOGL https://t.co/DqmpQKMeF8
p74
aV2017-04-06 | RT @philstockworld: Free Money Thursday - Draghi Says No to Tapering $QQQ $SPX $DIA $SPY $AAPL $AMZN $TSLA $GOOGL https://t.co/DqmpQKMeF8
p75
aV2017-04-06 | iPhone user base expected to be over 1.1B this year. That's double what it was in 2014. $AAPL
p76
aV2017-04-06 | RT @philstockworld: Free Money Thursday - Draghi Says No to Tapering $QQQ $SPX $DIA $SPY $AAPL $AMZN $TSLA $GOOGL https://t.co/DqmpQKMeF8
p77
aV2017-04-06 | RT @philstockworld: Free Money Thursday - Draghi Says No to Tapering $QQQ $SPX $DIA $SPY $AAPL $AMZN $TSLA $GOOGL https://t.co/DqmpQKMeF8
p78
aV2017-04-06 | RT @philstockworld: Free Money Thursday - Draghi Says No to Tapering $QQQ $SPX $DIA $SPY $AAPL $AMZN $TSLA $GOOGL https://t.co/DqmpQKMeF8
p79
aV2017-04-06 | RT @philstockworld: Free Money Thursday - Draghi Says No to Tapering $QQQ $SPX $DIA $SPY $AAPL $AMZN $TSLA $GOOGL https://t.co/DqmpQKMeF8
p80
aV2017-04-06 | Options Trading For Beginners: How To Get Rich With Stock Options Trading: https://t.co/YvhmFGWIBg #trading #options $SPY $VIX $SPX $AAPL
p81
aV2017-04-06 | RT @philstockworld: Free Money Thursday - Draghi Says No to Tapering $QQQ $SPX $DIA $SPY $AAPL $AMZN $TSLA $GOOGL https://t.co/DqmpQKMeF8
p82
aV2017-04-06 | Stocks UP, Gold &amp; Bonds DOWN! https://t.co/JtVBGn0N1C #stocks #business #investing #finance #stockmarket #wallstreet #nyse $qqq #cnbc $aapl
p83
aV2017-04-06 | RT @philstockworld: Free Money Thursday - Draghi Says No to Tapering $QQQ $SPX $DIA $SPY $AAPL $AMZN $TSLA $GOOGL https://t.co/DqmpQKMeF8
p84
aV2017-04-06 | Is this the graphics card for the future Mac Pro? https://t.co/PurpogyUuc #Macworld $AAPL https://t.co/kvoiP1kARA
p85
aV2017-04-06 | RT @philstockworld: Free Money Thursday - Draghi Says No to Tapering $QQQ $SPX $DIA $SPY $AAPL $AMZN $TSLA $GOOGL https://t.co/DqmpQKMeF8
p86
aV2017-04-06 | RT @philstockworld: Free Money Thursday - Draghi Says No to Tapering $QQQ $SPX $DIA $SPY $AAPL $AMZN $TSLA $GOOGL https://t.co/DqmpQKMeF8
p87
aV2017-04-06 | RT @scalpthatstock: T3 Live Daily Recap - Markets Steady Despite Trump-Xi Summit Worries  https://t.co/ijY4easxoZ  $SPY $IWM $AMZN $AAPL $F\u2026
p88
aV2017-04-06 | RT @philstockworld: Free Money Thursday - Draghi Says No to Tapering $QQQ $SPX $DIA $SPY $AAPL $AMZN $TSLA $GOOGL https://t.co/DqmpQKMeF8
p89
aV2017-04-06 | RT @philstockworld: Free Money Thursday - Draghi Says No to Tapering $QQQ $SPX $DIA $SPY $AAPL $AMZN $TSLA $GOOGL https://t.co/DqmpQKMeF8
p90
aV2017-04-06 | Does Evan Duffield own too much $dash https://t.co/0Q3420Ah6D? Do these people argue this point about @finkd and $FB? Jobs and $AAPL? #dash
p91
aV2017-04-06 | Apple has reduced its share count by 20% in just four years. So far all those buybacks have created value. $AAPL
p92
aV2017-04-06 | RT @philstockworld: Free Money Thursday - Draghi Says No to Tapering $QQQ $SPX $DIA $SPY $AAPL $AMZN $TSLA $GOOGL https://t.co/DqmpQKMeF8
p93
aV2017-04-06 | RT @philstockworld: Free Money Thursday - Draghi Says No to Tapering $QQQ $SPX $DIA $SPY $AAPL $AMZN $TSLA $GOOGL https://t.co/DqmpQKMeF8
p94
aV2017-04-06 | RT @philstockworld: Free Money Thursday - Draghi Says No to Tapering $QQQ $SPX $DIA $SPY $AAPL $AMZN $TSLA $GOOGL https://t.co/DqmpQKMeF8
p95
aV2017-04-06 | RT @philstockworld: Free Money Thursday - Draghi Says No to Tapering $QQQ $SPX $DIA $SPY $AAPL $AMZN $TSLA $GOOGL https://t.co/DqmpQKMeF8
p96
aV2017-04-06 | $GOOGL $AMZN $ FB $AAPL $TSLA $NFLX $NKE $BIDU $BABA  WAITING for $VIX to pass 20 again BUY when others are fearful! https://t.co/4D5yBS4Jr9
p97
aV2017-04-06 | RT @philstockworld: Free Money Thursday - Draghi Says No to Tapering $QQQ $SPX $DIA $SPY $AAPL $AMZN $TSLA $GOOGL https://t.co/DqmpQKMeF8
p98
aV2017-04-06 | RT @philstockworld: Free Money Thursday - Draghi Says No to Tapering $QQQ $SPX $DIA $SPY $AAPL $AMZN $TSLA $GOOGL https://t.co/DqmpQKMeF8
p99
aV2017-04-06 | RT @philstockworld: Free Money Thursday - Draghi Says No to Tapering $QQQ $SPX $DIA $SPY $AAPL $AMZN $TSLA $GOOGL https://t.co/DqmpQKMeF8
p100
aV2017-04-06 | RT @philstockworld: Free Money Thursday - Draghi Says No to Tapering $QQQ $SPX $DIA $SPY $AAPL $AMZN $TSLA $GOOGL https://t.co/DqmpQKMeF8
p101
asI1
(lp102
V2017-04-05 | RT @JPDesloges: #Apple  Tested the Resistance of a Daily Trading Range (red) but Uneable to break it yet $AAPL #Trading #investing #markets\u2026
p103
aV2017-04-05 | RT @philstockworld: Will We Hold It Wednesday - High Hopes at 5,440 (Again) $QQQ $SPX $DIA $TASR Also $AAPL https://t.co/6XHV2TPbtt
p104
aV2017-04-05 | #Options #maxpain chart for $AAPL. Free options app https://t.co/VCJp7MA06J https://t.co/QxR0fUqgS2
p105
aV2017-04-05 | RT @philstockworld: Will We Hold It Wednesday - High Hopes at 5,440 (Again) $QQQ $SPX $DIA $TASR Also $AAPL https://t.co/6XHV2TPbtt
p106
aV2017-04-05 | RT @philstockworld: Will We Hold It Wednesday - High Hopes at 5,440 (Again) $QQQ $SPX $DIA $TASR Also $AAPL https://t.co/6XHV2TPbtt
p107
aV2017-04-05 | RT @philstockworld: Will We Hold It Wednesday - High Hopes at 5,440 (Again) $QQQ $SPX $DIA $TASR Also $AAPL https://t.co/6XHV2TPbtt
p108
aV2017-04-05 | Xiaomi Chases Value, Dumps Apple Approach https://t.co/ETz6ViSrjc $AAPL #APPLE $XI
p109
aV2017-04-05 | RT @philstockworld: Will We Hold It Wednesday - High Hopes at 5,440 (Again) $QQQ $SPX $DIA $TASR Also $AAPL https://t.co/6XHV2TPbtt
p110
aV2017-04-05 | RT @philstockworld: Will We Hold It Wednesday - High Hopes at 5,440 (Again) $QQQ $SPX $DIA $TASR Also $AAPL https://t.co/6XHV2TPbtt
p111
aV2017-04-05 | RT @philstockworld: Will We Hold It Wednesday - High Hopes at 5,440 (Again) $QQQ $SPX $DIA $TASR Also $AAPL https://t.co/6XHV2TPbtt
p112
aV2017-04-05 | RT @philstockworld: Will We Hold It Wednesday - High Hopes at 5,440 (Again) $QQQ $SPX $DIA $TASR Also $AAPL https://t.co/6XHV2TPbtt
p113
aV2017-04-05 | $AAPL $COST:  Xiaomi Chases Value, Dumps Apple Approach:  https://t.co/hxibTJwf7O
p114
aV2017-04-05 | RT @philstockworld: Will We Hold It Wednesday - High Hopes at 5,440 (Again) $QQQ $SPX $DIA $TASR Also $AAPL https://t.co/6XHV2TPbtt
p115
aV2017-04-05 | RT @whotrades: Report: Apple Inc.'s Premium OLED iPhone 8 Could Be Delayed https://t.co/P44sOKy9HA $AAPL https://t.co/P96sBZ9jmm
p116
aV2017-04-05 | RT @HedgeStrategy: Our previously tweeted Q2 timeframe trades (for transparency):  $TSLA -301 Apr05 $IBM -174 Apr03 $AAPL -144 Mar28 $AMD +\u2026
p117
aV2017-04-05 | #Apple  Tested the Resistance of a Daily Trading Range (red) but Uneable to break it yet $AAPL #Trading #investing\u2026 https://t.co/wZ40UG1GRY
p118
aV2017-04-05 | RT @philstockworld: Will We Hold It Wednesday - High Hopes at 5,440 (Again) $QQQ $SPX $DIA $TASR Also $AAPL https://t.co/6XHV2TPbtt
p119
aV2017-04-05 | Xiaomi Chases Value, Dumps Apple Approach $AAPL #APPLE $XI https://t.co/4nIjT83CLk #Investing #Stocks
p120
aV2017-04-05 | RT @philstockworld: Will We Hold It Wednesday - High Hopes at 5,440 (Again) $QQQ $SPX $DIA $TASR Also $AAPL https://t.co/6XHV2TPbtt
p121
aV2017-04-05 | Xiaomi Chases Value, Dumps Apple Approach https://t.co/sbYPBwifv0 $AAPL #APPLE $XI
p122
aV2017-04-05 | Xiaomi Chases Value, Dumps Apple Approach https://t.co/tzqYUyJ1zn $AAPL #APPLE $XI
p123
aV2017-04-05 | RT @philstockworld: Will We Hold It Wednesday - High Hopes at 5,440 (Again) $QQQ $SPX $DIA $TASR Also $AAPL https://t.co/6XHV2TPbtt
p124
aV2017-04-05 | RT @philstockworld: Will We Hold It Wednesday - High Hopes at 5,440 (Again) $QQQ $SPX $DIA $TASR Also $AAPL https://t.co/6XHV2TPbtt
p125
aV2017-04-05 | RT @EXPstocktrader: A replay of today in the #StockMarket:  $SPY $AAPL $NVDA $AMZN $TSLA $IBB $XBI #MAGA https://t.co/HTewqZOVLQ
p126
aV2017-04-05 | RT @philstockworld: Will We Hold It Wednesday - High Hopes at 5,440 (Again) $QQQ $SPX $DIA $TASR Also $AAPL https://t.co/6XHV2TPbtt
p127
aV2017-04-05 | RT @philstockworld: Will We Hold It Wednesday - High Hopes at 5,440 (Again) $QQQ $SPX $DIA $TASR Also $AAPL https://t.co/6XHV2TPbtt
p128
aV2017-04-05 | RT @philstockworld: Will We Hold It Wednesday - High Hopes at 5,440 (Again) $QQQ $SPX $DIA $TASR Also $AAPL https://t.co/6XHV2TPbtt
p129
aV2017-04-05 | RT @philstockworld: Will We Hold It Wednesday - High Hopes at 5,440 (Again) $QQQ $SPX $DIA $TASR Also $AAPL https://t.co/6XHV2TPbtt
p130
aV2017-04-05 | RT @philstockworld: Will We Hold It Wednesday - High Hopes at 5,440 (Again) $QQQ $SPX $DIA $TASR Also $AAPL https://t.co/6XHV2TPbtt
p131
aV2017-04-05 | RT @philstockworld: Will We Hold It Wednesday - High Hopes at 5,440 (Again) $QQQ $SPX $DIA $TASR Also $AAPL https://t.co/6XHV2TPbtt
p132
aV2017-04-05 | $AAPL is trending! Here's some analysis https://t.co/fNkN4sAio9 #BloombergBold #NationalWalkingDay https://t.co/Uah1f45OgW
p133
aV2017-04-05 | RT @philstockworld: Will We Hold It Wednesday - High Hopes at 5,440 (Again) $QQQ $SPX $DIA $TASR Also $AAPL https://t.co/6XHV2TPbtt
p134
aV2017-04-05 | $AAPL #Options OI chart. Free stocks app https://t.co/cnRpv2hkbQ https://t.co/RLcUGkDjaK
p135
aV2017-04-05 | RT @Sam_L_Shead: Analysts say the next iPhone probably won't cost $1,000 $AAPL https://t.co/sewyZZUpAW https://t.co/oG4UfpdY8s
p136
aV2017-04-05 | RT @philstockworld: Will We Hold It Wednesday - High Hopes at 5,440 (Again) $QQQ $SPX $DIA $TASR Also $AAPL https://t.co/6XHV2TPbtt
p137
aV2017-04-05 | RT @theflynews: Data center infrastructure stocks continue multi-day slide $FFIV $FNSR $CIEN $AMZN $MSFT $GOOG $GOOGL $FB $AAPL\u2026 https://t.\u2026
p138
aV2017-04-05 | RT @philstockworld: Will We Hold It Wednesday - High Hopes at 5,440 (Again) $QQQ $SPX $DIA $TASR Also $AAPL https://t.co/6XHV2TPbtt
p139
aV2017-04-05 | RT @philstockworld: Will We Hold It Wednesday - High Hopes at 5,440 (Again) $QQQ $SPX $DIA $TASR Also $AAPL https://t.co/6XHV2TPbtt
p140
aV2017-04-05 | RT @philstockworld: Will We Hold It Wednesday - High Hopes at 5,440 (Again) $QQQ $SPX $DIA $TASR Also $AAPL https://t.co/6XHV2TPbtt
p141
aV2017-04-05 | Report: Apple Inc.'s Premium OLED iPhone 8 Could Be Delayed https://t.co/P44sOKy9HA $AAPL https://t.co/P96sBZ9jmm
p142
aV2017-04-05 | RT @philstockworld: Will We Hold It Wednesday - High Hopes at 5,440 (Again) $QQQ $SPX $DIA $TASR Also $AAPL https://t.co/6XHV2TPbtt
p143
aV2017-04-05 | RT @philstockworld: Will We Hold It Wednesday - High Hopes at 5,440 (Again) $QQQ $SPX $DIA $TASR Also $AAPL https://t.co/6XHV2TPbtt
p144
aV2017-04-05 | RT @philstockworld: Will We Hold It Wednesday - High Hopes at 5,440 (Again) $QQQ $SPX $DIA $TASR Also $AAPL https://t.co/6XHV2TPbtt
p145
aV2017-04-05 | RT @philstockworld: Will We Hold It Wednesday - High Hopes at 5,440 (Again) $QQQ $SPX $DIA $TASR Also $AAPL https://t.co/6XHV2TPbtt
p146
aV2017-04-05 | RT @philstockworld: Will We Hold It Wednesday - High Hopes at 5,440 (Again) $QQQ $SPX $DIA $TASR Also $AAPL https://t.co/6XHV2TPbtt
p147
aV2017-04-05 | RT @philstockworld: Will We Hold It Wednesday - High Hopes at 5,440 (Again) $QQQ $SPX $DIA $TASR Also $AAPL https://t.co/6XHV2TPbtt
p148
aV2017-04-05 | RT @philstockworld: Will We Hold It Wednesday - High Hopes at 5,440 (Again) $QQQ $SPX $DIA $TASR Also $AAPL https://t.co/6XHV2TPbtt
p149
aV2017-04-05 | RT @philstockworld: Will We Hold It Wednesday - High Hopes at 5,440 (Again) $QQQ $SPX $DIA $TASR Also $AAPL https://t.co/6XHV2TPbtt
p150
aV2017-04-05 | RT @MacHashNews: Microsoft releases \u2018Who's In' iMessage app for event planning with friends https://t.co/oM5Mvj5nVx #9to5Mac $AAPL https://\u2026
p151
aV2017-04-05 | StockNews Dow Down 41. $AAPL $SNAP $AMZN $TWTR $FB $TSLA https://t.co/kVGqmABxh3
p152
aV2017-04-05 | RT @philstockworld: Will We Hold It Wednesday - High Hopes at 5,440 (Again) $QQQ $SPX $DIA $TASR Also $AAPL https://t.co/6XHV2TPbtt
p153
aV2017-04-05 | Microsoft releases \u2018Who's In' iMessage app for event planning with friends https://t.co/oM5Mvj5nVx #9to5Mac $AAPL https://t.co/o0ANQF5OhT
p154
aV2017-04-05 | RT @philstockworld: Will We Hold It Wednesday - High Hopes at 5,440 (Again) $QQQ $SPX $DIA $TASR Also $AAPL https://t.co/6XHV2TPbtt
p155
aV2017-04-05 | RT @philstockworld: Will We Hold It Wednesday - High Hopes at 5,440 (Again) $QQQ $SPX $DIA $TASR Also $AAPL https://t.co/6XHV2TPbtt
p156
aV2017-04-05 | RT @philstockworld: Will We Hold It Wednesday - High Hopes at 5,440 (Again) $QQQ $SPX $DIA $TASR Also $AAPL https://t.co/6XHV2TPbtt
p157
aV2017-04-05 | $AAPL:  Report: Apple Inc.\u2019s Premium OLED iPhone 8 Could Be Delayed:  https://t.co/TXJ97FqcJE
p158
aV2017-04-05 | RT @philstockworld: Will We Hold It Wednesday - High Hopes at 5,440 (Again) $QQQ $SPX $DIA $TASR Also $AAPL https://t.co/6XHV2TPbtt
p159
aV2017-04-05 | Dow reverses 150 points and closes down 41 as Fed minutes show worry about valuations. $AMZN $TSLA $AAPL hit highs https://t.co/oVfBaxDycg
p160
aV2017-04-05 | Apple, Inc. Earnings: Can the Tech Giant Live Up to a Higher Stock Price?  https://t.co/KAY2Lxen8g $AAPL https://t.co/PBoPQETIOF
p161
aV2017-04-05 | RT @philstockworld: Will We Hold It Wednesday - High Hopes at 5,440 (Again) $QQQ $SPX $DIA $TASR Also $AAPL https://t.co/6XHV2TPbtt
p162
aV2017-04-05 | RT @appleinsider: Microsoft's new iOS 10 iMessage App "Who's In" lets groups collaborate on plans $AAPL $MSFT https://t.co/UIkVYxFYbt https\u2026
p163
aV2017-04-05 | RT @philstockworld: Will We Hold It Wednesday - High Hopes at 5,440 (Again) $QQQ $SPX $DIA $TASR Also $AAPL https://t.co/6XHV2TPbtt
p164
aV2017-04-05 | RT @philstockworld: Will We Hold It Wednesday - High Hopes at 5,440 (Again) $QQQ $SPX $DIA $TASR Also $AAPL https://t.co/6XHV2TPbtt
p165
aV2017-04-05 | RT @philstockworld: Will We Hold It Wednesday - High Hopes at 5,440 (Again) $QQQ $SPX $DIA $TASR Also $AAPL https://t.co/6XHV2TPbtt
p166
aV2017-04-05 | RT @philstockworld: Will We Hold It Wednesday - High Hopes at 5,440 (Again) $QQQ $SPX $DIA $TASR Also $AAPL https://t.co/6XHV2TPbtt
p167
aV2017-04-05 | RT @philstockworld: Will We Hold It Wednesday - High Hopes at 5,440 (Again) $QQQ $SPX $DIA $TASR Also $AAPL https://t.co/6XHV2TPbtt
p168
aV2017-04-05 | RT @philstockworld: Will We Hold It Wednesday - High Hopes at 5,440 (Again) $QQQ $SPX $DIA $TASR Also $AAPL https://t.co/6XHV2TPbtt
p169
aV2017-04-05 | RT @philstockworld: Will We Hold It Wednesday - High Hopes at 5,440 (Again) $QQQ $SPX $DIA $TASR Also $AAPL https://t.co/6XHV2TPbtt
p170
aV2017-04-05 | RT @theflynews: Data center infrastructure stocks continue multi-day slide $FFIV $FNSR $CIEN $AMZN $MSFT $GOOG $GOOGL $FB $AAPL\u2026 https://t.\u2026
p171
aV2017-04-05 | RT @philstockworld: Will We Hold It Wednesday - High Hopes at 5,440 (Again) $QQQ $SPX $DIA $TASR Also $AAPL https://t.co/6XHV2TPbtt
p172
aV2017-04-05 | $AAPL Apple Stock Analysis And Predictions For 2017: https://t.co/cRn1OYsY1b https://t.co/ZhYPROcHmE
p173
aV2017-04-05 | RT @philstockworld: Will We Hold It Wednesday - High Hopes at 5,440 (Again) $QQQ $SPX $DIA $TASR Also $AAPL https://t.co/6XHV2TPbtt
p174
aV2017-04-05 | RT @philstockworld: Will We Hold It Wednesday - High Hopes at 5,440 (Again) $QQQ $SPX $DIA $TASR Also $AAPL https://t.co/6XHV2TPbtt
p175
aV2017-04-05 | RT @philstockworld: Will We Hold It Wednesday - High Hopes at 5,440 (Again) $QQQ $SPX $DIA $TASR Also $AAPL https://t.co/6XHV2TPbtt
p176
aV2017-04-05 | RT @MarketRealist: Consumer Tech Stocks: New Life after 1Q17? https://t.co/LdxrfaHBdH $AAPL $FIT $GPRO $BBRY
p177
aV2017-04-05 | RT @philstockworld: Will We Hold It Wednesday - High Hopes at 5,440 (Again) $QQQ $SPX $DIA $TASR Also $AAPL https://t.co/6XHV2TPbtt
p178
aV2017-04-05 | If $AAPL had a Bezos/Musk like CEO..stock would be double the price it is now. Cook is a good guy but he is a game manager..a la Alex Smith
p179
aV2017-04-05 | RT @philstockworld: Will We Hold It Wednesday - High Hopes at 5,440 (Again) $QQQ $SPX $DIA $TASR Also $AAPL https://t.co/6XHV2TPbtt
p180
aV2017-04-05 | RT @philstockworld: Will We Hold It Wednesday - High Hopes at 5,440 (Again) $QQQ $SPX $DIA $TASR Also $AAPL https://t.co/6XHV2TPbtt
p181
aV2017-04-05 | RT @philstockworld: Will We Hold It Wednesday - High Hopes at 5,440 (Again) $QQQ $SPX $DIA $TASR Also $AAPL https://t.co/6XHV2TPbtt
p182
aV2017-04-05 | RT @philstockworld: Will We Hold It Wednesday - High Hopes at 5,440 (Again) $QQQ $SPX $DIA $TASR Also $AAPL https://t.co/6XHV2TPbtt
p183
aV2017-04-05 | RT @philstockworld: Will We Hold It Wednesday - High Hopes at 5,440 (Again) $QQQ $SPX $DIA $TASR Also $AAPL https://t.co/6XHV2TPbtt
p184
aV2017-04-05 | 12 Great Books on Options Trading https://t.co/u69ZnBdmhA #options #trading $SPY $AAPL $VIX $VXX $RUT $DIA $QQQ
p185
aV2017-04-05 | RT @philstockworld: Will We Hold It Wednesday - High Hopes at 5,440 (Again) $QQQ $SPX $DIA $TASR Also $AAPL https://t.co/6XHV2TPbtt
p186
aV2017-04-05 | RT @philstockworld: Will We Hold It Wednesday - High Hopes at 5,440 (Again) $QQQ $SPX $DIA $TASR Also $AAPL https://t.co/6XHV2TPbtt
p187
aV2017-04-05 | RT @appleinsider: Microsoft's new iOS 10 iMessage App "Who's In" lets groups collaborate on plans $AAPL $MSFT https://t.co/UIkVYxFYbt https\u2026
p188
aV2017-04-05 | RT @philstockworld: Will We Hold It Wednesday - High Hopes at 5,440 (Again) $QQQ $SPX $DIA $TASR Also $AAPL https://t.co/6XHV2TPbtt
p189
aV2017-04-05 | RT @MacHashNews: Why iOS 10.3.1 is a "must-install" update https://t.co/6VChltb3Qa #AppleWorldToday $AAPL https://t.co/AoX704RqFL
p190
aV2017-04-05 | RT @philstockworld: Will We Hold It Wednesday - High Hopes at 5,440 (Again) $QQQ $SPX $DIA $TASR Also $AAPL https://t.co/6XHV2TPbtt
p191
aV2017-04-05 | RT @philstockworld: Will We Hold It Wednesday - High Hopes at 5,440 (Again) $QQQ $SPX $DIA $TASR Also $AAPL https://t.co/6XHV2TPbtt
p192
aV2017-04-05 | RT @philstockworld: Will We Hold It Wednesday - High Hopes at 5,440 (Again) $QQQ $SPX $DIA $TASR Also $AAPL https://t.co/6XHV2TPbtt
p193
aV2017-04-05 | RT @philstockworld: Will We Hold It Wednesday - High Hopes at 5,440 (Again) $QQQ $SPX $DIA $TASR Also $AAPL https://t.co/6XHV2TPbtt
p194
aV2017-04-05 | RT @philstockworld: Will We Hold It Wednesday - High Hopes at 5,440 (Again) $QQQ $SPX $DIA $TASR Also $AAPL https://t.co/6XHV2TPbtt
p195
asI2
(lp196
sI3
(lp197
sI4
(lp198
sI5
(lp199
sI6
(lp200
sI7
(lp201
sI8
(lp202
sI9
(lp203
sI10
(lp204
sI11
(lp205
sI12
(lp206
sI13
(lp207
sI14
(lp208
sI15
(lp209
sI16
(lp210
sI17
(lp211
sI18
(lp212
s.