(dp0
I0
(lp1
V2017-05-22 | RT @jmoschg: One year ago today, a drunk @Rmaruca11 bet me $AAPL wouldn't be above $110 per share. Today I collect on that bet. https://t.c\u2026
p2
aV2017-05-22 | RT @ProfectuSystems: Check out these awesome trading systems: https://t.co/SlDMcCQf0c $AAPL $NFLX $TSLA $FB $VIX $DWTI $UWTI $SPY
p3
aV2017-05-22 | Buffett Doubles Apple https://t.co/Comq2Nf1Et $BRK.A $BRK.B $AAPL
p4
aV2017-05-22 | RT @StockTwits: This giant visual shows how Apple, Alphabet, Microsoft, Amazon and Facebook all make money https://t.co/WQJ0sLAD6F  $AAPL $\u2026
p5
aV2017-05-22 | RT @StockTwits: This giant visual shows how Apple, Alphabet, Microsoft, Amazon and Facebook all make money https://t.co/WQJ0sLAD6F  $AAPL $\u2026
p6
aV2017-05-22 | RT @StockTwits: This giant visual shows how Apple, Alphabet, Microsoft, Amazon and Facebook all make money https://t.co/WQJ0sLAD6F  $AAPL $\u2026
p7
aV2017-05-22 | #qanda Q and cannot be considered left wing issue of elements most burning questions answered #stocks $AAPL $FB\u2026
p8
aV2017-05-22 | RT @Agterzis: Microsoft peak at its augmented reality glasses - "in future work " where as $vuzi is doing it now $fb $aapl $msft https://t.\u2026
p9
aV2017-05-22 | RT @Contrahour: Marc Andreessen: Today's car makers are like Nokia \u2014 right before it was crushed by Apple $AAPL $TSLA  https://t.co/WtN4scY\u2026
p10
aV2017-05-22 | @tim_cook @Apple @AppleSupport $AAPL Mr. Cook are iMacs ever going to be touch screen? @HP @Dell @IBM $AMZN $TSLA\u2026 https://t.co/BbduKFlFMO
p11
aV2017-05-22 | RT @StockTwits: This giant visual shows how Apple, Alphabet, Microsoft, Amazon and Facebook all make money https://t.co/WQJ0sLAD6F  $AAPL $\u2026
p12
aV2017-05-22 | RT @DanCarlson33: Why Apple will make smart glasses $VUZI $MSFT $SNAP $GOOG $AAPL https://t.co/zb0G3gscna via @computerworld
p13
aV2017-05-22 | @tim_cook @Apple @aaple @AppleSupport Mr. Cook are iMacs ever going to be touch screen? @HP @Dell @IBM $AAPL $TSLA\u2026 https://t.co/mpAyWvpn1E
p14
aV2017-05-22 | Why Apple will make smart glasses $VUZI $MSFT $SNAP $GOOG $AAPL https://t.co/zb0G3gscna via @computerworld
p15
aV2017-05-22 | #Sofia Nunes for the follow #CLOUDUNLOCK Check Out #Apple #iCloud #iPhone $AAPL for #unlock #code https://t.co/sFE120Bm7R
p16
aV2017-05-22 | RT @MMMnews: Apple's #Siri, #accessibility options help #blind drummer and nonverbal teen thrive in new spots. $AAPL #healthtech https://t.\u2026
p17
aV2017-05-22 | RT @finzine: $AAPL Cramer: Get Your Head Into the Cloud https://t.co/MRPnmIT3LN
p18
aV2017-05-22 | RT @Investing_Books: Reminiscences of a Stock Operator: https://t.co/jXN40Cjdzu #stocks #trading #investing $SPY $AAPL $AMZN $NFLX $GOOGL
p19
aV2017-05-22 | Join @RobinhoodApp and we'll both get a share of stock like $AAPL, $F, or $S for free. Make sure to use my link.  https://t.co/1R8AiveCIj
p20
aV2017-05-22 | .@NaviAvatar1 on #Periscope: Dow up 89 $AAPL $AMZN $BABA $TWTR $SNAP $SPY $FB $NVDA https://t.co/WhnPkUpkdk
p21
aV2017-05-22 | Dow up 89 $AAPL $AMZN $BABA $TWTR $SNAP $SPY $FB $NVDA https://t.co/4rjGDfNqvX
p22
aV2017-05-22 | i'm only in four things: $ko $intc, $aapl, $fb
p23
aV2017-05-22 | $AMZN clear leader in investment returns over past 2yrs $AAPL $GOOGL $FB $IBM $MSFT #Cloud #IoT\u2026 https://t.co/QygkpfRLe9
p24
aV2017-05-22 | RT @graemethickins: trillion with a "T" ... $AAPL https://t.co/rNiUB8IsvM
p25
aV2017-05-22 | If @nntaleb ever changes song to the same, then THAT will be news, "$NOK vs $AAPL" is what @pmarca has ever and wil\u2026 https://t.co/pTCP9vSvNa
p26
aV2017-05-22 | RT @StockTwits: This giant visual shows how Apple, Alphabet, Microsoft, Amazon and Facebook all make money https://t.co/WQJ0sLAD6F  $AAPL $\u2026
p27
aV2017-05-22 | Samsung will unveil a new 'Stretchable Display' tomorrow that Apple has shown an Interest in\u2026 https://t.co/7vBFwGwror
p28
aV2017-05-22 | Nothing analogous to exclusive rights to singles via iTunes that looked in users into $AAPL so 1992 Mac \U0001f914@pmarca  https://t.co/sAV0d6pOhp
p29
aV2017-05-22 | $AAPL Cramer: Get Your Head Into the Cloud https://t.co/MRPnmIT3LN
p30
aV2017-05-22 | Reminiscences of a Stock Operator: https://t.co/jXN40Cjdzu #stocks #trading #investing $SPY $AAPL $AMZN $NFLX $GOOGL
p31
aV2017-05-22 | RT @RubyJericho: Apple's Tencent Run-In https://t.co/ec4bOkk1oA $BRK.A $BRK.B $NTDOY $TCEHY $AAPL
p32
aV2017-05-22 | Loyalty among iPhone users is at an all-time high. https://t.co/kAsdt7oYD1 $AAPL
p33
aV2017-05-22 | RT @StockTwits: This giant visual shows how Apple, Alphabet, Microsoft, Amazon and Facebook all make money https://t.co/WQJ0sLAD6F  $AAPL $\u2026
p34
aV2017-05-22 | RT @payemarkets: Apple $AAPL PT Raised to $168 at RBC Capital; Multiple Levers to Hit $1 Trillion Market Cap ($192-$195)
p35
aV2017-05-22 | $AAPL $AMAT $AMGN $AMTD $AMZN $ATVI Trade long and short positions from the #NASDAQ, up to 1500% since 2010. https://t.co/IdAz1niI6p $SPY
p36
aV2017-05-22 | RT @scalpthatstock: T3 Live Daily Recap - Tech Stocks Rise  https://t.co/v9eRfDLD18  $SPX $IWM $XLF $QQQ $AAPL $AMZN $GOOGL $FB $AAOI $ACIA\u2026
p37
aV2017-05-22 | RT @StockTwits: This giant visual shows how Apple, Alphabet, Microsoft, Amazon and Facebook all make money https://t.co/WQJ0sLAD6F  $AAPL $\u2026
p38
aV2017-05-22 | RT @Stockdog101: $AAPL working on the holy grail for treating diabetes https://t.co/3QYY280iJ6 @megtirrell $F $AMZN $GOOGL $X @CNBCFastMone\u2026
p39
aV2017-05-22 | RT @StockTwits: This giant visual shows how Apple, Alphabet, Microsoft, Amazon and Facebook all make money https://t.co/WQJ0sLAD6F  $AAPL $\u2026
p40
aV2017-05-22 | RT @StockTwits: This giant visual shows how Apple, Alphabet, Microsoft, Amazon and Facebook all make money https://t.co/WQJ0sLAD6F  $AAPL $\u2026
p41
aV2017-05-22 | RT @StockTwits: This giant visual shows how Apple, Alphabet, Microsoft, Amazon and Facebook all make money https://t.co/WQJ0sLAD6F  $AAPL $\u2026
p42
aV2017-05-22 | RT @RampCapitalLLC: Remember when $AAPL pushed us that U2 album for free? I still need to delete that off my phone.
p43
aV2017-05-22 | A small Boston company has filed a lawsuit saying @Apple, @Visa infringed its patents with Apple Pay. #legal $AAPL https://t.co/AdCK2J2YLm
p44
aV2017-05-22 | Simple and short tech analysis $NKE $GOOG $AAPL $WMT $C $F $GPRO $NFLX $X  https://t.co/zGd72o2VYr
p45
aV2017-05-22 | RT @StockTwits: This giant visual shows how Apple, Alphabet, Microsoft, Amazon and Facebook all make money https://t.co/WQJ0sLAD6F  $AAPL $\u2026
p46
aV2017-05-22 | T3 Live Daily Recap - Tech Stocks Rise  https://t.co/v9eRfDLD18  $SPX $IWM $XLF $QQQ $AAPL $AMZN $GOOGL $FB $AAOI $ACIA $FNSR $BABA
p47
aV2017-05-22 | RT @StockTwits: This giant visual shows how Apple, Alphabet, Microsoft, Amazon and Facebook all make money https://t.co/WQJ0sLAD6F  $AAPL $\u2026
p48
aV2017-05-22 | RT @StockTwits: This giant visual shows how Apple, Alphabet, Microsoft, Amazon and Facebook all make money https://t.co/WQJ0sLAD6F  $AAPL $\u2026
p49
aV2017-05-22 | RT @StockTwits: This giant visual shows how Apple, Alphabet, Microsoft, Amazon and Facebook all make money https://t.co/WQJ0sLAD6F  $AAPL $\u2026
p50
aV2017-05-22 | Apple's Tencent Run-In https://t.co/ec4bOkk1oA $BRK.A $BRK.B $NTDOY $TCEHY $AAPL
p51
aV2017-05-22 | RT @LiuOfWallStreet: $XLK tech futures like what drop? $NFLX $FB $AAPL $TSLA $GOOG $AMZN $SNAP $TWTR Todays LiveChat https://t.co/NAyizJyW6n
p52
aV2017-05-22 | Apple debuts overhauled website encouraging Android users to switch to an iPhone https://t.co/eA8Wwa5Vhw\u2026 https://t.co/wTCL2XGcVS
p53
aV2017-05-22 | RT @OptionsMike: Monday very typically a premium burn day chase the first couple candles w/ weeklies and then they pull it. Saw that in $AA\u2026
p54
aV2017-05-22 | RT @StockTwits: This giant visual shows how Apple, Alphabet, Microsoft, Amazon and Facebook all make money https://t.co/WQJ0sLAD6F  $AAPL $\u2026
p55
aV2017-05-22 | RT @StockTwits: This giant visual shows how Apple, Alphabet, Microsoft, Amazon and Facebook all make money https://t.co/WQJ0sLAD6F  $AAPL $\u2026
p56
aV2017-05-22 | RT @StockTwits: This giant visual shows how Apple, Alphabet, Microsoft, Amazon and Facebook all make money https://t.co/WQJ0sLAD6F  $AAPL $\u2026
p57
aV2017-05-22 | RT @ElixiumCrypto: https://t.co/srkfzEecv5  #Trading with #Bitcoin  @elixiumbitcoin #Forex #Stocks $ES $CL $GC $GOOG $AAPL $TSLA $SPY $QQQ\u2026
p58
aV2017-05-22 | Monday very typically a premium burn day chase the first couple candles w/ weeklies and then they pull it. Saw that in $AAPL, $FB, $NFLX etc
p59
aV2017-05-22 | RT @StockTwits: This giant visual shows how Apple, Alphabet, Microsoft, Amazon and Facebook all make money https://t.co/WQJ0sLAD6F  $AAPL $\u2026
p60
aV2017-05-22 | RT @StockTwits: This giant visual shows how Apple, Alphabet, Microsoft, Amazon and Facebook all make money https://t.co/WQJ0sLAD6F  $AAPL $\u2026
p61
aV2017-05-22 | RT @StockTwits: This giant visual shows how Apple, Alphabet, Microsoft, Amazon and Facebook all make money https://t.co/WQJ0sLAD6F  $AAPL $\u2026
p62
aV2017-05-22 | RT @StockTwits: This giant visual shows how Apple, Alphabet, Microsoft, Amazon and Facebook all make money https://t.co/WQJ0sLAD6F  $AAPL $\u2026
p63
aV2017-05-22 | RT @StockTwits: This giant visual shows how Apple, Alphabet, Microsoft, Amazon and Facebook all make money https://t.co/WQJ0sLAD6F  $AAPL $\u2026
p64
aV2017-05-22 | $AAPL Projection vs TodayActual. Stats on site. 100% fees to charity. Wedging higher https://t.co/p12aVE2LTW
p65
aV2017-05-22 | RT @StockTwits: This giant visual shows how Apple, Alphabet, Microsoft, Amazon and Facebook all make money https://t.co/WQJ0sLAD6F  $AAPL $\u2026
p66
aV2017-05-22 | RT @StockTwits: This giant visual shows how Apple, Alphabet, Microsoft, Amazon and Facebook all make money https://t.co/WQJ0sLAD6F  $AAPL $\u2026
p67
aV2017-05-22 | Here's how Apple stock can get to a $1 trillion market cap in 2018: RBC Capital $AAPL @apple https://t.co/eTIkc9Fm52 https://t.co/atBkOfex0W
p68
aV2017-05-22 | RT @StockTwits: This giant visual shows how Apple, Alphabet, Microsoft, Amazon and Facebook all make money https://t.co/WQJ0sLAD6F  $AAPL $\u2026
p69
aV2017-05-22 | RT @StockTwits: This giant visual shows how Apple, Alphabet, Microsoft, Amazon and Facebook all make money https://t.co/WQJ0sLAD6F  $AAPL $\u2026
p70
aV2017-05-22 | RT @StockTwits: This giant visual shows how Apple, Alphabet, Microsoft, Amazon and Facebook all make money https://t.co/WQJ0sLAD6F  $AAPL $\u2026
p71
aV2017-05-22 | RT @StockTwits: This giant visual shows how Apple, Alphabet, Microsoft, Amazon and Facebook all make money https://t.co/WQJ0sLAD6F  $AAPL $\u2026
p72
aV2017-05-22 | RT @Contrahour: Marc Andreessen: Today's car makers are like Nokia \u2014 right before it was crushed by Apple $AAPL $TSLA  https://t.co/WtN4scY\u2026
p73
aV2017-05-22 | Tesla is quickly disrupting the car market much like Apple did to the cell phone market. $TSLA $AAPL #technology   https://t.co/s3ru0kVtYX
p74
aV2017-05-22 | RT @StockTwits: This giant visual shows how Apple, Alphabet, Microsoft, Amazon and Facebook all make money https://t.co/WQJ0sLAD6F  $AAPL $\u2026
p75
aV2017-05-22 | $XLK tech futures like what drop? $NFLX $FB $AAPL $TSLA $GOOG $AMZN $SNAP $TWTR Todays LiveChat https://t.co/NAyizJyW6n
p76
aV2017-05-22 | RT @StockTwits: This giant visual shows how Apple, Alphabet, Microsoft, Amazon and Facebook all make money https://t.co/WQJ0sLAD6F  $AAPL $\u2026
p77
aV2017-05-22 | RT @Contrahour: Marc Andreessen: Today's car makers are like Nokia \u2014 right before it was crushed by Apple $AAPL $TSLA  https://t.co/WtN4scY\u2026
p78
aV2017-05-22 | RT @StockTwits: This giant visual shows how Apple, Alphabet, Microsoft, Amazon and Facebook all make money https://t.co/WQJ0sLAD6F  $AAPL $\u2026
p79
aV2017-05-22 | RT @Contrahour: Marc Andreessen: Today's car makers are like Nokia \u2014 right before it was crushed by Apple $AAPL $TSLA  https://t.co/WtN4scY\u2026
p80
aV2017-05-22 | RT @SEEKINGALPHA_FS: Disruption Creates Winners And Losers https://t.co/JIKzlPsQ1v $AAL $AAPL $AIG $ALL $AZO $BAMXF $BP $BRK.A $BRK.B $CCL\u2026
p81
aV2017-05-22 | Even at its massive size, Apple may be 'under-owned' by investors - CNBC $AAPL https://t.co/ptOZMjplSA
p82
aV2017-05-22 | RT @StockTwits: This giant visual shows how Apple, Alphabet, Microsoft, Amazon and Facebook all make money https://t.co/WQJ0sLAD6F  $AAPL $\u2026
p83
aV2017-05-22 | RT @StockTwits: This giant visual shows how Apple, Alphabet, Microsoft, Amazon and Facebook all make money https://t.co/WQJ0sLAD6F  $AAPL $\u2026
p84
aV2017-05-22 | RT @StockTwits: This giant visual shows how Apple, Alphabet, Microsoft, Amazon and Facebook all make money https://t.co/WQJ0sLAD6F  $AAPL $\u2026
p85
aV2017-05-22 | Your Camera Wants to Kill the Keyboard - WIRED $AAPL  https://t.co/NRmI8wxzGg
p86
aV2017-05-22 | Marc Andreessen: Today's car makers are like Nokia \u2014 right before it was crushed by Apple $AAPL $TSLA  https://t.co/WtN4scYIYP
p87
aV2017-05-22 | RT @StockTwits: This giant visual shows how Apple, Alphabet, Microsoft, Amazon and Facebook all make money https://t.co/WQJ0sLAD6F  $AAPL $\u2026
p88
aV2017-05-22 | RT @SEEKINGALPHA_FS: Disruption Creates Winners And Losers https://t.co/JIKzlPsQ1v $AAL $AAPL $AIG $ALL $AZO $BAMXF $BP $BRK.A $BRK.B $CCL\u2026
p89
aV2017-05-22 | RT @SeekingAlpha: Disruption Creates Winners And Losers https://t.co/9TMvRdnbnO $AAL $AAPL $AIG $ALL $AZO $BAMXF $BP $BRK.A $BRK.B $CCL $CL\u2026
p90
aV2017-05-22 | Apple's #Siri, #accessibility options help #blind drummer and nonverbal teen thrive in new spots. $AAPL #healthtech\u2026 https://t.co/QnTsoejzAF
p91
aV2017-05-22 | This giant visual shows how Apple, Alphabet, Microsoft, Amazon and Facebook all make money https://t.co/WQJ0sLAD6F\u2026 https://t.co/YPapWTxS7C
p92
aV2017-05-22 | RT @WallStJesus: TODAY'S ACTIVE FLOW &gt;&gt; $BAC $AAPL $AMD $NVDA $FB $BABA $JPM $QCOM $AMZN $GE $T $MGM $SNAP $WFC $RF $MSFT $BBRY $NFLX $X ht\u2026
p93
aV2017-05-22 | In final phase to go live within the next couple days: Follow us at https://t.co/w72F6QjT8l  $AAPL $NFLX $AMZN $GOOGL $FB $TSLA $SPY $QQQ
p94
aV2017-05-22 | The Thing About Apple's Euro Debt $AAPL# https://t.co/SWeLOGSMpt
p95
aV2017-05-22 | RT @RampCapitalLLC: Remember when $AAPL pushed us that U2 album for free? I still need to delete that off my phone.
p96
aV2017-05-22 | Cramer Thinks The iPhone 8 Cycle Will Be A Winner https://t.co/iA1VO5KiSv $AAPL $CL $PG  via @benzinga
p97
aV2017-05-22 | Apple And Berkshire Hathaway: Following Buffett And Being Buffett Are Two Different Things https://t.co/F9DY6gZCMH $BRK.A $BRK.B $AAPL
p98
aV2017-05-22 | Are you Bullish or Bearish on #Apple? Start #Trading $AAPL with #Bitcoin. 15:1 Leverage. #Stocks #Blockchain #BTC\u2026 https://t.co/gjt1sNjOFg
p99
aV2017-05-22 | Disruption Creates Winners And Losers $AAL $AAPL $AIG $ALL $AZO $BAMXF $BP $BRK.A $BRK.B $CCL\u2026\u2026 https://t.co/hkwcfwG9sq
p100
aV2017-05-22 | Disruption Creates Winners And Losers $AAL $AAPL $AIG $ALL $AZO $BAMXF $BP $BRK.A $BRK.B $CCL\u2026\u2026 https://t.co/YwVVclpYDG
p101
asI1
(lp102
V2017-05-21 | RT @RickeyIII: Join @RobinhoodApp and we'll both get a share of stock like $AAPL, $F, or $S for free. Make sure to use my link.  https://t.\u2026
p103
aV2017-05-21 | Join @RobinhoodApp and we'll both get a share of stock like $AAPL, $F, or $S for free. Make sure to use my link.  https://t.co/9fLucyfLNU
p104
aV2017-05-21 | RT @williamlegate: How's that Apple boycott coming along, Chump? Are these fake numbers too? \U0001f602  $AAPL on 2/19/16: $96.04 $AAPL on 5/20/17:\u2026
p105
aV2017-05-21 | RT @com1stocks16: Apple Inc. $AAPL Stock Live Analysis 12-12-2016 #nasdaq  https://t.co/Wdg02yCF1U
p106
aV2017-05-21 | RT @ElixiumCrypto: https://t.co/srkfzEecv5  #Trading with #Bitcoin  @elixiumbitcoin #Forex #Stocks $ES $CL $GC $GOOG $AAPL $TSLA $SPY $QQQ\u2026
p107
aV2017-05-21 | RT @com1stocks16: Apple Inc. $AAPL Stock Live Analysis 12-12-2016 #nasdaq  https://t.co/Wdg02yCF1U
p108
aV2017-05-21 | RT @raquelfranck441: had me at trim RT $AAPL rejected the $435-$438 Resistance area Keep taking trades in this one. Trim and trail at key l\u2026
p109
aV2017-05-21 | Apple Inc. $AAPL Stock Live Analysis 12-12-2016 #nasdaq  https://t.co/Wdg02yCF1U
p110
aV2017-05-21 | had me at trim RT $AAPL rejected the $435-$438 Resistance area Keep taking trades in this one. Trim and trail at key levels
p111
aV2017-05-21 | RT @AndysCycles: Insiders selling at least 33% of shares owned in past month. $MSFT $HCA $AAPL $K $HON $V $BIIB $WMB $LMT $GM $LB $BA https\u2026
p112
aV2017-05-21 | RT @intercooleronli: Apple Inc. $AAPL Given a $170.00 Price Target at Goldman Sachs Group Inc https://t.co/Ymfs9c36G2
p113
aV2017-05-21 | Cool Ways Wearable Technology Is Improving #Healthcare @themotleyfool #stocks $AAPL, $GOOGL, $MDT, $GOOG, $FIT\u2026 https://t.co/Am85ewyJC5
p114
aV2017-05-21 | RT @ElixiumCrypto: https://t.co/srkfzEecv5  #Trading with #Bitcoin  @elixiumbitcoin #Forex #Stocks $ES $CL $GC $GOOG $AAPL $TSLA $SPY $QQQ\u2026
p115
aV2017-05-21 | RT @barronsonline: Apple Starts #iPhone Assembly In India https://t.co/qsc4VOcaxQ $AAPL via @barronsasia https://t.co/WLntuS4gTg
p116
aV2017-05-21 | RT @latticeworkwlth: The Economist | Apple in China: App wars https://t.co/7eGCsBnizb via @TheEconomist: #Apple #Tencent #apps $AAPL
p117
aV2017-05-21 | The Economist | Apple in China: App wars https://t.co/7eGCsBnizb via @TheEconomist: #Apple #Tencent #apps $AAPL
p118
aV2017-05-21 | ChartGuys Technical Analysis Video 5/19/2017  https://t.co/NYvwYt7aGj  $XLK $AAPL $FB
p119
aV2017-05-21 | Apple Inc. $AAPL Given a $170.00 Price Target at Goldman Sachs Group Inc https://t.co/Ymfs9c36G2
p120
aV2017-05-21 | RT @OphirGottlieb: https://t.co/xLqOj4EZZD $AAPL Apple -- The Upside is Still in Play, and so is Apple Watch (long)
p121
aV2017-05-21 | RT @jedimarkus77: Excellent Russia 1917 Revolution exhibit at the Swiss National Museum in Zurich.  (Note: this guy NOT long $AAPL ) https:\u2026
p122
aV2017-05-21 | Excellent Russia 1917 Revolution exhibit at the Swiss National Museum in Zurich.  (Note: this guy NOT long $AAPL ) https://t.co/La6XjqBjqk
p123
aV2017-05-21 | Apple Inc. $AAPL Given a $170.00 Price Target at Goldman Sachs Group Inc https://t.co/L2iTiXPThP #acn
p124
aV2017-05-21 | Apple Inc. $AAPL Given a $170.00 Price Target at Goldman Sachs Group Inc https://t.co/ghM0VnHJlT
p125
aV2017-05-21 | RT @OphirGottlieb: https://t.co/xLqOj4EZZD $AAPL Apple -- The Upside is Still in Play, and so is Apple Watch (long)
p126
aV2017-05-21 | $SITO Rated, "BUY." $F $AAPL $GOOGL $TSLA $FB $X $QQQ $UVXY $SVXY $LOCO $TWTR $BABA $JMEI $AMZN $S #stocks #NYSE https://t.co/TCz9qSabrf
p127
aV2017-05-21 | RT @ElixiumCrypto: https://t.co/srkfzEecv5  #Trading with #Bitcoin  @elixiumbitcoin #Forex #Stocks $ES $CL $GC $GOOG $AAPL $TSLA $SPY $QQQ\u2026
p128
aV2017-05-21 | https://t.co/xLqOj4EZZD $AAPL Apple -- The Upside is Still in Play, and so is Apple Watch (long)
p129
aV2017-05-21 | RT @ElixiumCrypto: https://t.co/srkfzEecv5  #Trading with #Bitcoin  @elixiumbitcoin #Forex #Stocks $ES $CL $GC $GOOG $AAPL $TSLA $SPY $QQQ\u2026
p130
aV2017-05-21 | RT @AAG_NoX: $PLUG IF we break 2.18 today... #POWERHOUR  $AMLH $MMEX $TXHE $DNAX $AAPL $MSFT $BVTK $FCGD https://t.co/RraISRWoNf
p131
aV2017-05-21 | RT @CabotAnalysts: In case you missed our weekly review https://t.co/cabtBPnCCp $BABA $GOOG $NFLX $FB $AAPL $AMZN $NFLX $SPX #nasdaq https:\u2026
p132
aV2017-05-21 | RT @Stockdog101: $SITO Chart still attractive! $F $AAPL $GOOGL $TSLA $FB $X $QQQ $UVXY $SVXY $LOCO $TWTR $BABA $JMEI $AMZN $S #stocks #NYSE\u2026
p133
aV2017-05-21 | RT @Investing_Books: Options Trading For Beginners: How To Get Rich With Stock Options Trading: https://t.co/YvhmFGWIBg #trading #options $\u2026
p134
aV2017-05-21 | Live Trading Room or Private $TWTR Feed LIVE TRADE ALERTS, Mkt Commentary, Traders of all Levels $AMZN $NFLX $GOOGL $ADSK $AAPL $CMG $FB $GS
p135
aV2017-05-21 | NOW OFFERING: 7 Day FREE Trial to our options day trading team Room or $TWTR feed https://t.co/zZPRJH5xOh $FB $AAPL $ADSK $TSLA $AMZN $GOOGL
p136
aV2017-05-21 | Time to get back in the saddle tomorrow.  The team and I been on fire lately!   https://t.co/zZPRJH5xOh  $AAPL $FB $UVXY $IBB  $AMZN $GOOGL
p137
aV2017-05-21 | RT @ExactOptionPick: ACTIVE TRADERS choose one of these FREE trading guides:  https://t.co/02a8LnzvOL  $NFLX $TSLA $AAPL #MAGA $GS $FB $AMZ\u2026
p138
aV2017-05-21 | RT @ExactOptionPick: ACTIVE TRADERS choose one of these FREE trading guides:  https://t.co/02a8LnzvOL  $NFLX $TSLA $AAPL #MAGA $GS $FB $AMZ\u2026
p139
aV2017-05-21 | RT @ExactOptionPick: ACTIVE TRADERS choose one of these FREE trading guides:  https://t.co/02a8LnzvOL  $NFLX $TSLA $AAPL #MAGA $GS $FB $AMZ\u2026
p140
aV2017-05-21 | ACTIVE TRADERS choose one of these FREE trading guides:  https://t.co/02a8LnzvOL  $NFLX $TSLA $AAPL #MAGA $GS $FB $AMZN $GOOGL $NVDA
p141
aV2017-05-21 | RT @CabotAnalysts: In case you missed our weekly review https://t.co/cabtBPnCCp $BABA $GOOG $NFLX $FB $AAPL $AMZN $NFLX $SPX #nasdaq https:\u2026
p142
aV2017-05-21 | Lion's share of $AAPL Siri voice assistance to third party #iOS10 #AppExtensions designed to extend Siri, Maps in tandem $AAPL
p143
aV2017-05-21 | RT @CabotAnalysts: In case you missed our weekly review https://t.co/cabtBPnCCp $BABA $GOOG $NFLX $FB $AAPL $AMZN $NFLX $SPX #nasdaq https:\u2026
p144
aV2017-05-21 | RT @CabotAnalysts: In case you missed our weekly review https://t.co/cabtBPnCCp $BABA $GOOG $NFLX $FB $AAPL $AMZN $NFLX $SPX #nasdaq https:\u2026
p145
aV2017-05-21 | Options Trading For Beginners: How To Get Rich With Stock Options Trading: https://t.co/YvhmFGWIBg #trading #options $SPY $VIX $SPX $AAPL
p146
aV2017-05-21 | #Instant #Apple Unlocking $0.99 Cent All #iPhone FOR 3GS 4 4S 5 5C 5S 6 6+ #unlockfusion #icloud #freeunlock #factoryunlock $AAPL #unlock
p147
aV2017-05-21 | RT @CabotAnalysts: In case you missed our weekly review https://t.co/cabtBPnCCp $BABA $GOOG $NFLX $FB $AAPL $AMZN $NFLX $SPX #nasdaq https:\u2026
p148
aV2017-05-21 | #Instant #Apple Unlocking $0.99 Cent All #iPhone FOR 3GS 4 4S 5 5C 5S 6 6+ #unlockfusion #icloud #freeunlock #factoryunlock $AAPL #unlock
p149
aV2017-05-21 | RT @CabotAnalysts: In case you missed our weekly review https://t.co/cabtBPnCCp $BABA $GOOG $NFLX $FB $AAPL $AMZN $NFLX $SPX #nasdaq https:\u2026
p150
aV2017-05-21 | RT @CabotAnalysts: In case you missed our weekly review https://t.co/cabtBPnCCp $BABA $GOOG $NFLX $FB $AAPL $AMZN $NFLX $SPX #nasdaq https:\u2026
p151
aV2017-05-21 | RT @CabotAnalysts: In case you missed our weekly review https://t.co/cabtBPnCCp $BABA $GOOG $NFLX $FB $AAPL $AMZN $NFLX $SPX #nasdaq https:\u2026
p152
aV2017-05-21 | RT @lokis_trick: #Bitcoin $BTCUSD $spy $goog $fb $tsla $msft $amzn $gld $uvxy $qqq $nflx $feye $baba $aapl $lnkd $bac $jpm FIAT\U0001f4b5\U0001f4b4\U0001f4b6\U0001f4b7 CONVERS\u2026
p153
aV2017-05-21 | #Bitcoin $BTCUSD $spy $goog $fb $tsla $msft $amzn $gld $uvxy $qqq $nflx $feye $baba $aapl $lnkd $bac $jpm FIAT\U0001f4b5\U0001f4b4\U0001f4b6\U0001f4b7 CONVERSIONS \u267b\ufe0fRESUME MON\U0001f4c8
p154
aV2017-05-21 | RT @AppleStockPrice: Apple Stock Price: 152.96 #apple $AAPL
p155
aV2017-05-21 | RT @biospace: Apple $AAPL CEO Spotted Wearing a Prototype Glucose-Tracker on the Apple Watch https://t.co/Nwm0Oi94aI https://t.co/0xzHhh3ILN
p156
aV2017-05-21 | RT @CabotAnalysts: In case you missed our weekly review https://t.co/cabtBPnCCp $BABA $GOOG $NFLX $FB $AAPL $AMZN $NFLX $SPX #nasdaq https:\u2026
p157
aV2017-05-21 | Apple Stock Price: 152.96 #apple $AAPL
p158
aV2017-05-21 | RT @ElixiumCrypto: https://t.co/srkfzEecv5  #Trading with #Bitcoin  @elixiumbitcoin #Forex #Stocks $ES $CL $GC $GOOG $AAPL $TSLA $SPY $QQQ\u2026
p159
aV2017-05-21 | RT @ElixiumCrypto: https://t.co/srkfzEecv5  #Trading with #Bitcoin  @elixiumbitcoin #Forex #Stocks $ES $CL $GC $GOOG $AAPL $TSLA $SPY $QQQ\u2026
p160
aV2017-05-21 | RT @CabotAnalysts: In case you missed our weekly review https://t.co/cabtBPnCCp $BABA $GOOG $NFLX $FB $AAPL $AMZN $NFLX $SPX #nasdaq https:\u2026
p161
aV2017-05-21 | Financial Terrorist no more of our money! @senatefloor @housefloor #mlb #nba #sunday @ap $AAPL $NVDA $AMZN $GOOGL\u2026 https://t.co/9LRQHiLvDh
p162
aV2017-05-21 | RT @CabotAnalysts: In case you missed our weekly review https://t.co/cabtBPnCCp $BABA $GOOG $NFLX $FB $AAPL $AMZN $NFLX $SPX #nasdaq https:\u2026
p163
aV2017-05-21 | RT @ElixiumCrypto: https://t.co/srkfzEecv5  #Trading with #Bitcoin  @elixiumbitcoin #Forex #Stocks $ES $CL $GC $GOOG $AAPL $TSLA $SPY $QQQ\u2026
p164
aV2017-05-21 | Crooks know thier protection aka @senatefloor @housefloor is gone soon @fbi @SEC_Enforcement leadership r ?nd by yo\u2026 https://t.co/d3NjdGjDzl
p165
aV2017-05-21 | $AAPL maturity 05/26/2017 Vol PutCallRatio of 0.60 puts=43,765 calls=73,527 . https://t.co/n5IjXliPnT https://t.co/SpQAXZoEAm
p166
aV2017-05-21 | In case you missed our weekly review https://t.co/cabtBPnCCp $BABA $GOOG $NFLX $FB $AAPL $AMZN $NFLX $SPX #nasdaq https://t.co/45QuYp2dBI
p167
aV2017-05-21 | RT @ElixiumCrypto: https://t.co/srkfzEecv5  #Trading with #Bitcoin  @elixiumbitcoin #Forex #Stocks $ES $CL $GC $GOOG $AAPL $TSLA $SPY $QQQ\u2026
p168
aV2017-05-21 | RT @ElixiumCrypto: https://t.co/srkfzEecv5  #Trading with #Bitcoin  @elixiumbitcoin #Forex #Stocks $ES $CL $GC $GOOG $AAPL $TSLA $SPY $QQQ\u2026
p169
aV2017-05-21 | RT @MacHashNews: Working Apple-1 sold at auction by original owner for $101K in Germany https://t.co/GZFeHIPjgI #AppleInsider $AAPL https:/\u2026
p170
aV2017-05-21 | @hmeisler what about $AAPL and $HD re: Islands... Thanks
p171
aV2017-05-21 | RT @davemcclure: Chart: How Top 5 Tech Giants Make Their Billions https://t.co/DnYCQ7uWRe by @VisualCap $AAPL $GOOG $MSFT $AMZN $FB cc @500\u2026
p172
aV2017-05-21 | RT @MacHashNews: Working Apple-1 sold at auction by original owner for $101K in Germany https://t.co/GZFeHIPjgI #AppleInsider $AAPL https:/\u2026
p173
aV2017-05-21 | RT @biospace: Apple $AAPL CEO Spotted Wearing a Prototype Glucose-Tracker on the Apple Watch https://t.co/Nwm0Oi94aI https://t.co/0xzHhh3ILN
p174
aV2017-05-21 | RT @ElixiumCrypto: https://t.co/srkfzEecv5  #Trading with #Bitcoin  @elixiumbitcoin #Forex #Stocks $ES $CL $GC $GOOG $AAPL $TSLA $SPY $QQQ\u2026
p175
aV2017-05-21 | Working Apple-1 sold at auction by original owner for $101K in Germany https://t.co/GZFeHIPjgI #AppleInsider $AAPL https://t.co/tr4wCiSI6Y
p176
aV2017-05-21 | RT @ElixiumCrypto: https://t.co/srkfzEecv5  #Trading with #Bitcoin  @elixiumbitcoin #Forex #Stocks $ES $CL $GC $GOOG $AAPL $TSLA $SPY $QQQ\u2026
p177
aV2017-05-21 | RT @rimisback: Wall street yet to give BlackBerry a pure  Software Company valuation @BlackBerry $BBRY $MSFT $AAPL $IBM $AMZN $GOOGL $FB @S\u2026
p178
aV2017-05-21 | Not even IBM or Oracle can match BlackBerry Software Revenue Growth  @BlackBerry $BBRY $MSFT $AAPL $IBM $AMZN\u2026 https://t.co/XF4X3NcfgL
p179
aV2017-05-21 | #Apple Begins #ANewChapter In #India https://t.co/3g4ljFTwsf $GOOG $QCOM $GOOGL $AAPL
p180
aV2017-05-21 | $AAPL:  BlackBerry: Why The Rally Will Continue:  https://t.co/z0nx6NLWR2
p181
aV2017-05-21 | Wall street yet to give BlackBerry a pure  Software Company valuation @BlackBerry $BBRY $MSFT $AAPL $IBM $AMZN\u2026 https://t.co/Jq8Q2lGBTb
p182
aV2017-05-21 | RT @OphirGottlieb: $FB $AAPL $AMZN $NFLX $GOOGL  The incredible use of options in FAANG (video)  Learn more: https://t.co/OOsraAbJYJ  https\u2026
p183
aV2017-05-21 | #Apple Has A New Idea https://t.co/YJhuLtTBLr $AAPL
p184
aV2017-05-21 | @jdimarzio I feel like $AAPL has been comfortable letting Samsung innovate and $AAPL simply duplicates. Customer se\u2026 https://t.co/Agt4DyYxDq
p185
aV2017-05-21 | RT @OphirGottlieb: $FB $AAPL $AMZN $NFLX $GOOGL  The incredible use of options in FAANG (video)  Learn more: https://t.co/OOsraAbJYJ  https\u2026
p186
aV2017-05-21 | $FB $AAPL $AMZN $NFLX $GOOGL  The incredible use of options in FAANG (video)  Learn more: https://t.co/OOsraAbJYJ  https://t.co/cUUx3OalWZ
p187
aV2017-05-21 | RT @JackWangCFA: Join @RobinhoodApp and we'll both get a share of stock like $AAPL, $F, or $S for free. Make sure to use my link. https://t\u2026
p188
aV2017-05-21 | RT @ElixiumCrypto: https://t.co/srkfzEecv5  #Trading with #Bitcoin  @elixiumbitcoin #Forex #Stocks $ES $CL $GC $GOOG $AAPL $TSLA $SPY $QQQ\u2026
p189
aV2017-05-21 | The Little Book That Still Beats The Market: https://t.co/Lc2BlYi2oz $SPY $VIX $UVXY $TVIX $DWTI $UWTI $AAPL
p190
aV2017-05-21 | RT @MattBurns25: Warren Buffet went long on Apple, as this bullish forecast for $AAPL published $AAPL is with 63% gain since https://t.co/R\u2026
p191
aV2017-05-21 | RT @ElixiumCrypto: https://t.co/srkfzEecv5  #Trading with #Bitcoin  @elixiumbitcoin #Forex #Stocks $ES $CL $GC $GOOG $AAPL $TSLA $SPY $QQQ\u2026
p192
aV2017-05-21 | RT @ElixiumCrypto: https://t.co/srkfzEecv5  #Trading with #Bitcoin  @elixiumbitcoin #Forex #Stocks $ES $CL $GC $GOOG $AAPL $TSLA $SPY $QQQ\u2026
p193
aV2017-05-21 | Webinars W-F this week introducing BM 6.1 w/ US #EQUITIES #datafeed! #boom $SPY $TWTR $NFLX $TSLA $FB $AAPL $GOOGL\u2026 https://t.co/9X0Htuzmn7
p194
aV2017-05-21 | RT @L_philanthropy: Almost all iPhone users will buy another iPhone, says survey by @MorganStanley.  $MS $AAPL #Apple  https://t.co/mjx4mAP\u2026
p195
asI2
(lp196
V2017-05-20 | RT @SharePlanner: I learned quite a bit reading this piece by @Acting_Man - What's the Best Time to Buy Stocks? #stocks $AAPL #trading http\u2026
p197
aV2017-05-20 | RT @PorschePicks: https://t.co/nferIEd0TT  [REVIEW] This millionaire trader is offering a free trial to his alerts service! $DIS $MOBI $AAPL
p198
aV2017-05-20 | Best Stocks #WarrenBuffett Is Buying Now @themotleyfool #stocks #money #investing $BRK-A, $AAPL, $LUV, $BRK-B, $BK https://t.co/k9ZF6QJw7c
p199
aV2017-05-20 | https://t.co/nferIEd0TT  [REVIEW] This millionaire trader is offering a free trial to his alerts service! $DIS $MOBI $AAPL
p200
aV2017-05-20 | RT @Investing_Books: The Simple Strategy: A Powerful Day Trading Strategy for Trading Futures, Stocks, ETFs, and Forex: https://t.co/Jypy0W\u2026
p201
aV2017-05-20 | The Simple Strategy: A Powerful Day Trading Strategy for Trading Futures, Stocks, ETFs, and Forex: https://t.co/Jypy0WRLua $AAPL $TSLA $VIX
p202
aV2017-05-20 | RT @PortfolioArmor: Apple has a new idea. $AAPL https://t.co/QMCjUA3yBY https://t.co/HTmenhVNwB
p203
aV2017-05-20 | RT @Hwayoutaline: #NYSE $AAPL $AMD $LL $DDD $QQQ #Profit https://t.co/ozex5QGEOl
p204
aV2017-05-20 | #NYSE $AAPL $AMD $LL $DDD $QQQ #Profit https://t.co/ozex5QGEOl
p205
aV2017-05-20 | RT @askslim: Watch Market Week! #Stocks #Futures #Trading #Bonds #Oil #Gold #FX $SPY $QQQ $IWM $CSC) $AAPL $PBR $WMT #CNBC #WSJ https://t.c\u2026
p206
aV2017-05-20 | RT @jedimarkus77: I found the $AAPL store.... #SNB #Zurich https://t.co/t9qihkl7fI
p207
aV2017-05-20 | RT @PortfolioArmor: Apple has a new idea. $AAPL https://t.co/QMCjUA3yBY https://t.co/HTmenhVNwB
p208
aV2017-05-20 | Apple has a new idea. $AAPL https://t.co/QMCjUA3yBY https://t.co/HTmenhVNwB
p209
aV2017-05-20 | RT @brianfires: Where's his Cherry Coke? Maybe S/H Given Them One? $ko $pep $dps $brk $iep $gm $ge $ibm $msft $tst $amzn $aapl $snap $shak\u2026
p210
aV2017-05-20 | Where's his Cherry Coke? Maybe S/H Given Them One? $ko $pep $dps $brk $iep $gm $ge $ibm $msft $tst $amzn $aapl\u2026 https://t.co/0vhCg09dbg
p211
aV2017-05-20 | RT @MotleyFoolTech: Contract manufacturers owe that money, irrespective of Apple's beef with Qualcomm. $AAPL $QCOM https://t.co/3y58xoxaFO
p212
aV2017-05-20 | RT @Level2bullTim: $DIGX stock locked.Calm before the storm! HUGE RUN COMING!!\U0001f680\U0001f680 #pennystock $BVTK $AMLH $ELED $ICNB $AAPL $PURA $UOIP $MME\u2026
p213
aV2017-05-20 | Is an Apple Watch 3 With a Flexible Display In The Works? $AAPL https://t.co/J8ke7fd2DN #Hedging https://t.co/kji7t3F6D9
p214
aV2017-05-20 | Contract manufacturers owe that money, irrespective of Apple's beef with Qualcomm. $AAPL $QCOM https://t.co/3y58xoxaFO
p215
aV2017-05-20 | RT @USVeteran2: Why Google, Facebook, Apple and Snap are so obsessed with augmented reality $AAPL $SNAP https://t.co/6C7rUNjNtj  @TheStreet\u2026
p216
aV2017-05-20 | Why Google, Facebook, Apple and Snap are so obsessed with augmented reality $AAPL $SNAP https://t.co/6C7rUNjNtj  @TheStreet  Buy $KOPN
p217
aV2017-05-20 | #Bitcoin $BTCUSD $spy $goog $fb $tsla $msft $amzn $gld $uvxy $qqq $nflx $feye $bidu $baba $aapl $lnkd $bac $jpm DON\u2026 https://t.co/BxoQSEm3TA
p218
aV2017-05-20 | $AAPL:US Apple Not A Victim Of Monopoly, Nokia Tells Court #APPLE INC  https://t.co/ctg2QxUlk1 #NASDAQ
p219
aV2017-05-20 | Are you Bullish or Bearish on #Apple? Start #Trading $AAPL with #Bitcoin. 15:1 Leverage. #Stocks #Blockchain #BTC\u2026 https://t.co/R2z8vB61Hv
p220
aV2017-05-20 | RT @OphirGottlieb: $FB $AAPL $AMZN $NFLX $GOOGL  The most powerful use of options in a portfolio you may ever see (video)  Be powerful. htt\u2026
p221
aV2017-05-20 | #Text100 Paris for the follow #CLOUDUNLOCK Check Out #Apple #iCloud #iPhone $AAPL for #unlock #code https://t.co/sFE120Bm7R
p222
aV2017-05-20 | RT @brianfires: And Cheap AF. Hempton Gave Me $5 Though! $vrx $agn myl $cmg $brk $iep $hlf $twtr $aapl $snap $bmy $ko $pep $crm $tst $shak\u2026
p223
aV2017-05-20 | RT @MomentumHunters: $AAPL Apple inc (NASDAQ:AAPL) : Growth , China Sales , Buyback And Dividend \u2026 https://t.co/1BmEuP4KqH
p224
aV2017-05-20 | RT @MomentumHunters: $AAPL Apple inc (NASDAQ:AAPL) in talks to launch its own money transfer service later this year https://t.co/vEiRNYYjr\u2026
p225
aV2017-05-20 | RT @FusionUnlock: #Instant #Apple Unlocking $0.99 Cent All #iPhone FOR 3GS 4 4S 5 5C 5S 6 6+ #unlockfusion #icloud #freeunlock #factoryunlo\u2026
p226
aV2017-05-20 | RT @MomentumHunters: $AAPL Apple inc (NASDAQ:AAPL) has more than half of it\u2019s cash pile invested in corporate debt alone https://t.co/dkeBi\u2026
p227
aV2017-05-20 | #Instant #Apple Unlocking $0.99 Cent All #iPhone FOR 3GS 4 4S 5 5C 5S 6 6+ #unlockfusion #icloud #freeunlock #factoryunlock $AAPL #unlock
p228
aV2017-05-20 | #Instant #Apple Unlocking $0.99 Cent All #iPhone FOR 3GS 4 4S 5 5C 5S 6 6+ #unlockfusion #icloud #freeunlock #factoryunlock $AAPL #unlock
p229
aV2017-05-20 | RT @MomentumHunters: $SINA Option Call Alert UP 200% NOW ... Here is The Alert https://t.co/6QN3JhBmU5 $SPY $AAPL $FB $AMZN $MSFT $XOM $NFL\u2026
p230
aV2017-05-20 | RT @MomentumHunters: $AAPL Apple inc (NASDAQ:AAPL) : Weekly Calls With UP To 100% Gain Potential https://t.co/shxG4rlWRH
p231
aV2017-05-20 | RT @MomentumHunters: $AAPL Weekly Calls Alerted 0.68 x 0.70 NOW At 1.02 x 1.03 Here is The Alert  https://t.co/shxG4rlWRH \u2026
p232
aV2017-05-20 | RT @MomentumHunters: $AAPL Weekly Calls 0.68 x 0.70 NOW At 1.13 x 1.16 Here is The Alert RIGHT ON TIME https://t.co/shxG4rlWRH \u2026 \u2026
p233
aV2017-05-20 | RT @MomentumHunters: https://t.co/oym9yiTPYE Subscribe Now , Many Winners in a ROW ... $AAPL $SPY $SINA $SYN $FB $SNAP $MSFT $SHOP $AMZN $G\u2026
p234
aV2017-05-20 | RT @MomentumHunters: $AAPL Weekly Calls 0.68 x 0.70 NOW At 1.23 x 1.26 Here is The Alert RIGHT ON TIME https://t.co/shxG4rlWRH \u2026 \u2026 \u2026
p235
aV2017-05-20 | RT @MomentumHunters: $AAPL Weekly Calls 0.68 x 0.70 NOW At 1.34 x 1.35 Here is The Alert RIGHT ON TIME https://t.co/shxG4rlWRH
p236
aV2017-05-20 | And Cheap AF. Hempton Gave Me $5 Though! $vrx $agn myl $cmg $brk $iep $hlf $twtr $aapl $snap $bmy $ko $pep $crm\u2026 https://t.co/nFzyL83wNO
p237
aV2017-05-20 | RT @MomentumHunters: $AAPL Weekly Calls 0.68 x 0.70 NOW At 1.63 x 1.68 OVER 100% Gain INTRADAY  Here is The Alert RIGHT ON TIME https://t.c\u2026
p238
aV2017-05-20 | RT @MomentumHunters: $AAPL Weekly Calls 0.68 x 0.70 NOW At 3.60 x 3.65 400% Gain OVERNIGHT Here is The Alert RIGHT ON TIME https://t.co/shx\u2026
p239
aV2017-05-20 | RT @MomentumHunters: $GS $AAPL Goldman Sachs expects the upcoming release of the 10th anniversary iPhone to boost sales https://t.co/ldTZGL\u2026
p240
aV2017-05-20 | RT @MomentumHunters: $AAPL $FB $SINA $BIDU $BABA $AMZN $MSFT $SPY Options Traders , Subscribe NOW : https://t.co/oym9yiTPYE You Don't Have\u2026
p241
aV2017-05-20 | RT @Romegr_Turtle: wearables that allows a dog to talk back will replace smart phone https://t.co/n3vGx5EYNw $AMZN $AAPL
p242
aV2017-05-20 | RT @Level2bullTim: $DIGX stock locked.Calm before the storm! HUGE RUN COMING!!\U0001f680\U0001f680 #pennystock $BVTK $AMLH $ELED $ICNB $AAPL $PURA $UOIP $MME\u2026
p243
aV2017-05-20 | RT @OphirGottlieb: $FB $AAPL $AMZN $NFLX $GOOGL  The most powerful use of options in a portfolio you may ever see (video)  Be powerful. htt\u2026
p244
aV2017-05-20 | Apple Stock Price: 152.96 #apple $AAPL
p245
aV2017-05-20 | My life! $vrx $agn $myl $mrk $twtr $aapl $ko $pep $hlf $iep $tst $brk $ge $gm $snap $googl $goog $ibm $msft $shak\u2026 https://t.co/2taqEF8Vwf
p246
aV2017-05-20 | Leaked iPhone 8 mold suggests device will be slightly larger than the iPhone 7 https://t.co/M0SI8aSCP7 #tech #feedly $AAPL
p247
aV2017-05-20 | Join @RobinhoodApp and we'll both get a share of stock like $AAPL, $F, or $S for free. Make sure to use my link.  https://t.co/eAmQKuZuEm
p248
aV2017-05-20 | RT @SharePlanner: I learned quite a bit reading this piece by @Acting_Man - What's the Best Time to Buy Stocks? #stocks $AAPL #trading http\u2026
p249
aV2017-05-20 | wearables that allows a dog to talk back will replace smart phone https://t.co/n3vGx5EYNw $AMZN $AAPL
p250
aV2017-05-20 | RT @TalkMarkets: Wednesday's Equity Bloodbath Produced A 94th Percentile Moment $AAPL $SPX https://t.co/HncVUiY1Hh
p251
aV2017-05-20 | I found the $AAPL store.... #SNB #Zurich https://t.co/t9qihkl7fI
p252
aV2017-05-20 | Latest drone flyover video shows gorgeous sunset footage of Apple Park https://t.co/zWRsizCQS8 #9to5Mac $AAPL https://t.co/Qz9IjJfxXr
p253
aV2017-05-20 | RT @robert_lehar: GoPro's Niche Focus Remains A Concern  https://t.co/EhBpEL1PN3  #GoPro $GPRO $AAPL
p254
aV2017-05-20 | $SHOP Options market terrible on this name - huge bid-ask spreads, wish it were more liquid like $BABA or $AAPL, need more players
p255
aV2017-05-20 | RT @DanChesler: $AAPL #top 9/87 - 3/00 = 12.5 yrs | 12.5 years * 0.618 = 7.73 yrs (11/07) | 12.5 * 1.0 = 12.5 yrs (9/12) | 12.5 * 1.382 = 1\u2026
p256
aV2017-05-20 | $AAPL maturity 05/26/2017 Vol PutCallRatio of 0.60 puts=43,765 calls=73,527 . https://t.co/n5IjXliPnT https://t.co/yV5bma7DKk
p257
aV2017-05-20 | Wednesday's Equity Bloodbath Produced A 94th Percentile Moment $AAPL $SPX https://t.co/HncVUiY1Hh
p258
aV2017-05-20 | RT @OphirGottlieb: $FB $AAPL $AMZN $NFLX $GOOGL  The most powerful use of options in a portfolio you may ever see (video)  Be powerful. htt\u2026
p259
aV2017-05-20 | RT @RickeyIII: Join @RobinhoodApp and we'll both get a share of stock like $AAPL, $F, or $S for free. Make sure to use my link.  https://t.\u2026
p260
aV2017-05-20 | Join @RobinhoodApp and we'll both get a share of stock like $AAPL, $F, or $S for free. Make sure to use my link.  https://t.co/9fLucyfLNU
p261
aV2017-05-20 | RT @Level2bullTim: $DIGX Continues Record Financial Performance in 2017--&gt;https://t.co/exuCJyypKc #pennystock $BVTK $AMLH $ELED $ICNB $AAPL\u2026
p262
aV2017-05-20 | $DIGX Continues Record Financial Performance in 2017--&gt;https://t.co/exuCJyypKc #pennystock $BVTK $AMLH $ELED $ICNB\u2026 https://t.co/88XWm1GvGV
p263
aV2017-05-20 | @TrainWreckTrade @geoffgolberg Or imagine $aapl buying $twtr and taking those 700m monthly Twtr viewers and monetiz\u2026 https://t.co/cbumezxY67
p264
aV2017-05-20 | RT @benjaminsutch: Join @RobinhoodApp and we'll both get a share of stock like $AAPL, $F, or $S for free. Make sure to use my link.  https:\u2026
p265
aV2017-05-20 | RT @OphirGottlieb: $FB $AAPL $AMZN $NFLX $GOOGL  The most powerful use of options in a portfolio you may ever see (video)  Be powerful. htt\u2026
p266
aV2017-05-20 | $FB $AAPL $AMZN $NFLX $GOOGL  The most powerful use of options in a portfolio you may ever see (video)  Be powerful. https://t.co/cUUx3OalWZ
p267
aV2017-05-20 | Apple among companies meeting at White House next month to talk government modernization,\u2026 https://t.co/7AcMQyiaoH\u2026 https://t.co/dls5rzphC9
p268
aV2017-05-20 | Join @RobinhoodApp and we'll both get a share of stock like $AAPL, $F, or $S for free. Make sure to use my link.  https://t.co/prd2vy2pj4
p269
aV2017-05-20 | RT @tradewithjoe: 153.60 is POC. Needs to take that out to be bullish. $AAPL Trade smart. https://t.co/TM8ZsH2kBC
p270
aV2017-05-20 | RT @BourseetTrading: " #Banks are right to fear #tech giants " $AAPL $AMZN $GOOGL $FB  #fintech #defstar5 #makeyourownlane #Mpgvip  https:/\u2026
p271
aV2017-05-20 | RT @Investing_Books: The Snowball: Warren Buffett and the Business of Life: https://t.co/pEGdgBpTkw #stocks #investing #trading $KO $WMT $B\u2026
p272
aV2017-05-20 | $googl $fb $msft $aapl $amzn $nvda One of you guys needs to buy this tech asap! Write the check! https://t.co/umpksT9Cmj
p273
aV2017-05-20 | The Snowball: Warren Buffett and the Business of Life: https://t.co/pEGdgBpTkw #stocks #investing #trading $KO $WMT $BRK-A $SPY $AAPL $PG
p274
aV2017-05-20 | RT @BourseetTrading: " #Banks are right to fear #tech giants " $AAPL $AMZN $GOOGL $FB  #fintech #defstar5 #makeyourownlane #Mpgvip  https:/\u2026
p275
aV2017-05-20 | RT @SharePlanner: I learned quite a bit reading this piece by @Acting_Man - What's the Best Time to Buy Stocks? #stocks $AAPL #trading http\u2026
p276
aV2017-05-20 | RT @Benzinga: Wal-Mart's Huge E-Commerce Bet On Marc Lore Starts Paying Off https://t.co/CbYP2qXkYe $AAPL $AMZN $WMT
p277
aV2017-05-20 | RT @NorthmanTrader: What do you expect with everyone glued to $FB $AMZN $NFLX  $GOOGL using $AAPL devices while eating $MCD calorie bombs?\u2026
p278
aV2017-05-20 | Alleged Apple molds show expected 'iPhone 8' design next to '7s' and '7s Plus' https://t.co/QTnbB5TOyh\u2026 https://t.co/FXpfyPYHPa
p279
aV2017-05-20 | @highhamptoncap thanks for follow RT! See Vista Partners #Investing #Growth #Income https://t.co/1x6MLaGp0d $V\u2026 https://t.co/T2zzDH16x6
p280
aV2017-05-20 | $SPY Potent Point and Figure Chart Patterns for Max Profits, w/ Captain John &amp; Kimberly https://t.co/wOKu6wKvpR $QQQ #stocks $FB $TSLA $AAPL
p281
aV2017-05-20 | RT @lokis_trick: #Bitcoin $BTCUSD @spy $goog $fb $tsla $msft $amzn $gld $uvxy $qqq $nflx $feye $fuel $bidu $baba $aapl $lnkd $bac $jpm UHHH\u2026
p282
aV2017-05-20 | Benzinga: Wal-Mart's Huge E-Commerce Bet On Marc Lore Starts Paying Off https://t.co/mCmW0HqIQX $AAPL $AMZN $WMT
p283
aV2017-05-20 | RT @Benzinga: Wal-Mart's Huge E-Commerce Bet On Marc Lore Starts Paying Off https://t.co/CbYP2qXkYe $AAPL $AMZN $WMT
p284
aV2017-05-20 | Wal-Mart's Huge E-Commerce Bet On Marc Lore Starts Paying Off https://t.co/CbYP2qXkYe $AAPL $AMZN $WMT
p285
aV2017-05-20 | RT @AAPLTree: Cluttered. Working towards a new post though.   Two of those charts are updated, one fairly new, two I just Excel-ed up. $AAP\u2026
p286
aV2017-05-20 | RT @optionalarmchat: Live Trading Room or Private $TWTR Feed LIVE TRADE ALERTS, Mkt Commentary, Traders of all Levels $AMZN $NFLX $GOOGL $T\u2026
p287
aV2017-05-20 | RT @optionalarmchat: Live Trading Room or Private $TWTR Feed LIVE TRADE ALERTS, Mkt Commentary, Traders of all Levels $AMZN $NFLX $GOOGL $T\u2026
p288
aV2017-05-20 | RT @optionalarmchat: Live Trading Room or Private $TWTR Feed LIVE TRADE ALERTS, Mkt Commentary, Traders of all Levels $AMZN $NFLX $GOOGL $T\u2026
p289
aV2017-05-20 | RT @OptionAlarm: Save 25% on https://t.co/fgKThJxj1A this weekend w/code "cnbc".   $STUDY $BABA $XOM $TSLA $AAPL $NVDA $NFLX $FB $WYNN $CRM\u2026
p290
aV2017-05-20 | RT @OptionAlarm: Save 25% on https://t.co/fgKThJxj1A this weekend w/code "cnbc".   $STUDY $BABA $XOM $TSLA $AAPL $NVDA $NFLX $FB $WYNN $CRM\u2026
p291
aV2017-05-20 | RT @OptionAlarm: Save 25% on https://t.co/fgKThJxj1A this weekend w/code "cnbc".   $STUDY $BABA $XOM $TSLA $AAPL $NVDA $NFLX $FB $WYNN $CRM\u2026
p292
aV2017-05-20 | Live Trading Room or Private $TWTR Feed LIVE TRADE ALERTS, Mkt Commentary, Traders of all Levels $AMZN $NFLX $GOOGL $TSLA $AAPL $CRM $FB $GS
p293
aV2017-05-20 | Save 25% on https://t.co/fgKThJxj1A this weekend w/code "cnbc".   $STUDY $BABA $XOM $TSLA $AAPL $NVDA $NFLX $FB $WYNN $CRM $GOOGL $ADSK $TJX
p294
aV2017-05-20 | RT @ExactOptionPick: As our thanks, please choose one of these free trading guides:  https://t.co/02a8LnzvOL  $NFLX $TSLA $AAPL$GS $FB $AMZ\u2026
p295
aV2017-05-20 | RT @ExactOptionPick: As our thanks, please choose one of these free trading guides:  https://t.co/02a8LnzvOL  $NFLX $TSLA $AAPL$GS $FB $AMZ\u2026
p296
asI3
(lp297
V2017-05-19 | RT @Sandro_power: $AAPL $BABA will hold these stocks with those june 16 options as these stocks favour higher prices
p298
aV2017-05-19 | RT @mytradingbuddy: #Stocks #Traders LEARN The 6 Individual Components of the #Ihcimoku Cloud using $AAPL Chart &gt;&gt; #Trading Help &gt;&gt;&gt; https:\u2026
p299
aV2017-05-19 | Apple\u2019s $AAPL Nokia Suit More Pressing Than Qualcomm $QCOM (subscribtion) https://t.co/mTsocP0zei
p300
aV2017-05-19 | #validate #organic #strategies at https://t.co/SOm8rjvuBZ stay #focused on #success $aapl $mck $googl $hpq $hpe #FridayBlogs #NYC
p301
aV2017-05-19 | RT @kirillklip: InvestorIntel: International #Lithium Has A Giant\u2019s Attention. https://t.co/IutVoZ9aIv $ILC.v $TSLA $GM $F $AAPL #Tesla #Ba\u2026
p302
aV2017-05-19 | RT @SP_Trades: Use Stop-Loss Orders to protect profits and minimize losses - Here's How: https://t.co/78T1ddbak9 #stocks #trading #wallstre\u2026
p303
aV2017-05-19 | $AAPL Cash Floods Into Tech Funds At the Fastest Clip in 15 Years https://t.co/YRguBC3G4N
p304
aV2017-05-19 | #Stocks #Traders LEARN The 6 Individual Components of the #Ihcimoku Cloud using $AAPL Chart &gt;&gt; #Trading Help &gt;&gt;&gt;\u2026 https://t.co/oJIEnrKsW6
p305
aV2017-05-19 | RT @EatSleepNTrade: May 17, 2017 will go down as a day in history that Wall Street $SPY $DIA traded liberal propaganda fake news. $FB $AMZN\u2026
p306
aV2017-05-19 | @theKL276 thank for RT! #HappyFriday! See Vista Partners #marketnews #technology #investing https://t.co/1x6MLaGp0d\u2026 https://t.co/oADJjDu1zT
p307
aV2017-05-19 | $SPY Potent Point and Figure Chart Patterns for Max Profits, w/ Captain John &amp; Kimberly https://t.co/wOKu6wKvpR $QQQ #stocks $AAPL $FB $TSLA
p308
aV2017-05-19 | Use Stop-Loss Orders to protect profits and minimize losses - Here's How: https://t.co/78T1ddbak9 #stocks #trading\u2026 https://t.co/ZxdCtK3JeZ
p309
aV2017-05-19 | @SJosephBurns Because we know that it's never going to compete in video streaming or retail. Also, how is $AAPL iTu\u2026 https://t.co/O0t2r1V8gA
p310
aV2017-05-19 | Will $cop $intc $ete $cat $pru $pfe $dis $hum $epd be the next big #globalbrand ? https://t.co/Yycairc0fy $aapl #CES2018 #AI
p311
aV2017-05-19 | RT @AmyDaniel212: Will $cop $intc $ete $cat $pru $pfe $dis $hum $epd be the next big #globalbrand ? https://t.co/vT9HmoiNbp $aapl #CES2018\u2026
p312
aV2017-05-19 | RT @racernic: Tim Cook innovation: "Apple is tapping the debt market again,"   $AAPL compare it with bezos and $AMZN headlines
p313
aV2017-05-19 | Will $cop $intc $ete $cat $pru $pfe $dis $hum $epd be the next big #globalbrand ? https://t.co/vT9HmoiNbp $aapl #CES2018 #AI
p314
aV2017-05-19 | RT @racernic: $aapl took it on the chin (intraday comment and vs. the high).
p315
aV2017-05-19 | RT @JorelLaraKalel: 10 Things We Learned From Our Daily $FB Show With Jim Cramer https://t.co/xbVkthhGyd $IBM $CRM $HD $WMT  $ROST $FL $CSC\u2026
p316
aV2017-05-19 | Will $cop $intc $ete $cat $pru $pfe $dis $hum $epd be the next big #globalbrand ? https://t.co/SOm8rjvuBZ $aapl #CES2018 #AI
p317
aV2017-05-19 | $AAPL $fb Comey to testify next week. Hard time ahead for the market.
p318
aV2017-05-19 | Apple iPhone 4 (MD439LL/A) - 8GB Smartphone - Black - Verizon (Certified Refurbished) https://t.co/5qudwSU2Vd $AAPL #apple #iphone
p319
aV2017-05-19 | 10 Things We Learned From Our Daily $FB Show With Jim Cramer https://t.co/xbVkthhGyd $IBM $CRM $HD $WMT  $ROST $FL $CSCO $NVDA $AAPL $BABA
p320
aV2017-05-19 | RT @racernic: $aapl took it on the chin (intraday comment and vs. the high).
p321
aV2017-05-19 | RT @MacHashNews: iOS 11 Concept Imagines Overhauled iPad Interface With Drag-and-Drop Functionality https://t.co/MTWh5QSwX2 #MacRumors $AAP\u2026
p322
aV2017-05-19 | RT @CharlesNance415: #ThankYou for following us. #yourethebest. #AforEffort https://t.co/YycaiqUoQY $aapl $mck $googl $hpq $hpe $usat #CES2\u2026
p323
aV2017-05-19 | iOS 11 Concept Imagines Overhauled iPad Interface With Drag-and-Drop Functionality https://t.co/MTWh5QSwX2\u2026 https://t.co/5SQwmT8elF
p324
aV2017-05-19 | RT @jjjinvesting: Apple Begins A New Chapter In India https://t.co/l5MQtBjBV8 $GOOG $QCOM $GOOGL $AAPL
p325
aV2017-05-19 | RT @CharlesNance415: The #largest companies on #earth #inspire us - https://t.co/Yycairc0fy $wmt $xom $cvx $brk-a $aapl $mo $tna $cat #Frid\u2026
p326
aV2017-05-19 | Apple Begins A New Chapter In India https://t.co/l5MQtBjBV8 $GOOG $QCOM $GOOGL $AAPL
p327
aV2017-05-19 | The #largest companies on #earth #inspire us - https://t.co/Yycairc0fy $wmt $xom $cvx $brk-a $aapl $mo $tna $cat #FridayFeeling
p328
aV2017-05-19 | RT @TheStreet: Apps are a fast-growing business for both of the Silicon Valley icons https://t.co/AzAiaSAQw0 $AAPL $GOOGL
p329
aV2017-05-19 | RT @doogooroo: Oh oh $AAPL https://t.co/azJgK85Mfx
p330
aV2017-05-19 | RT @racernic: keep tab on mkts frm all angles. like yest $AAPL behavior was tell 2appetite+lvls.join us. $ES_F $SPX $SPy $QQQ https://t.co/\u2026
p331
aV2017-05-19 | Join @RobinhoodApp and we'll both get a share of stock like $AAPL, $F, or $S for free. Make sure to use my link.  https://t.co/mCOkx7JYLM
p332
aV2017-05-19 | Buffett Doubles Apple https://t.co/Comq2Nf1Et $BRK.A $BRK.B $AAPL
p333
aV2017-05-19 | The #largest companies on #earth #inspire us - https://t.co/vT9HmoiNbp $wmt $xom $cvx $brk-a $aapl $mo $tna $cat #FridayFeeling
p334
aV2017-05-19 | 10 Industries That Could Be Impacted by Driverless Cars $AAPL $ALL $ALLY https://t.co/EvlzIQ6E8I via @benzinga
p335
aV2017-05-19 | RT @racernic: per OI $AAPL has downside pressure into next wk. caution is warranted. (short term trading purpose)
p336
aV2017-05-19 | Apps are a fast-growing business for both of the Silicon Valley icons https://t.co/AzAiaSAQw0 $AAPL $GOOGL
p337
aV2017-05-19 | The #largest companies on #earth #inspire us - https://t.co/SOm8rjvuBZ $wmt $xom $cvx $brk-a $aapl $mo $tna $cat #FridayFeeling
p338
aV2017-05-19 | $AAPL Apple Pay is expanding, but it still has a long way to go https://t.co/1jUy4ls0U6
p339
aV2017-05-19 | Got rid@of everything except for $AAPL $TSLA $S. selling off yes but it's small potatoes https://t.co/dYdf5vpnlF
p340
aV2017-05-19 | Apple Has A New Idea https://t.co/dFmkmNC7F5 $AAPL - new #investing book = 136% profits last 41 months safely - https://t.co/lvue1IBy6o
p341
aV2017-05-19 | @LennartBedrage $AAPL App Store growth could be a catalyst for future earnings growth.
p342
aV2017-05-19 | RT @racernic: $aapl took it on the chin (intraday comment and vs. the high).
p343
aV2017-05-19 | RT @racernic: per OI $AAPL has downside pressure into next wk. caution is warranted. (short term trading purpose)
p344
aV2017-05-19 | Oh oh $AAPL https://t.co/azJgK85Mfx
p345
aV2017-05-19 | @SJosephBurns Alright, then tell me why you like $AAPL \U0001f600
p346
aV2017-05-19 | RT @Investing_Books: Hedge Fund Market Wizards: How Winning Traders Win by Jack D. Schwager: https://t.co/n9IElG6tRm $SPY $AAPL $AMZN
p347
aV2017-05-19 | It's all BS game, no difference in output or demand yet price goes up and down 15-20% just like $aapl :) https://t.co/47rAq5x4tz
p348
aV2017-05-19 | Hedge Fund Market Wizards: How Winning Traders Win by Jack D. Schwager: https://t.co/n9IElG6tRm $SPY $AAPL $AMZN
p349
aV2017-05-19 | RT @Options: Most Active Stock Options For End Of Day May 19, 2017 \u2013 $BAC, $P, $AAPL, $S, $BABA https://t.co/UoVPJAv3Aw
p350
aV2017-05-19 | #Instant #Apple Unlocking $0.99 Cent All #iPhone FOR 3GS 4 4S 5 5C 5S 6 6+ #unlockfusion #icloud #freeunlock #factoryunlock $AAPL #unlock
p351
aV2017-05-19 | RT @Investing_Books: Panic: The Story of Modern Financial Insanity by Michael Lewis: https://t.co/6ISkPdX7hs $SPY $IWM $RUT $VIX $AAPL
p352
aV2017-05-19 | #Instant #Apple Unlocking $0.99 Cent All #iPhone FOR 3GS 4 4S 5 5C 5S 6 6+ #unlockfusion #icloud #freeunlock #factoryunlock $AAPL #unlock
p353
aV2017-05-19 | #Use #great #idea #hashtags for #SEO #SearchEngineOptimization https://t.co/Yycairc0fy $aapl $mck $googl $hpq $hpe #FridayFeeling
p354
aV2017-05-19 | RT @ChrisLacoursier: @MadMoneyOnCNBC @jimcramer JC biggest stock tip since $AMZN $AAPL and $GOOG were 1 dollar per share $NWBO is about to\u2026
p355
aV2017-05-19 | #Use #great #idea #hashtags for #SEO #SearchEngineOptimization https://t.co/vT9HmoiNbp $aapl $mck $googl $hpq $hpe #FridayFeeling
p356
aV2017-05-19 | RT @tasciccac: $DJIA WKLY Best performing $WMT $JNJ $MCD $CAT $IBM $KO $CVX $UNH $MRK Worst $CSCO $NKE $GS $JPM $DIS $AAPL $DD $PFE  #Ichim\u2026
p357
aV2017-05-19 | RT @MacHashNews: 'Finger Spinner' Tops the Free App Charts as the Fidget Spinner Craze Goes Digital https://t.co/weS3q0D9TG #TouchArcade $A\u2026
p358
aV2017-05-19 | Panic: The Story of Modern Financial Insanity by Michael Lewis: https://t.co/6ISkPdX7hs $SPY $IWM $RUT $VIX $AAPL
p359
aV2017-05-19 | RT @DFMtrades: $AAPL, target $160, SL $149.50 $SPY $DIA $IWM https://t.co/yHdTDQNvHU
p360
aV2017-05-19 | RT @racernic: per OI $AAPL has downside pressure into next wk. caution is warranted. (short term trading purpose)
p361
aV2017-05-19 | RT @racernic: per OI $AAPL has downside pressure into next wk. caution is warranted. (short term trading purpose)
p362
aV2017-05-19 | RT @PoliticalHedge: Apple to Starting $1Billion Fund Investing American Manufacturing Jobs $AAPL https://t.co/hIXNOtqkoE From: 05/06/2017
p363
aV2017-05-19 | #Use #great #idea #hashtags for #SEO #SearchEngineOptimization https://t.co/SOm8rjvuBZ $aapl $mck $googl $hpq $hpe #FridayFeeling
p364
aV2017-05-19 | $DJIA WKLY Best performing $WMT $JNJ $MCD $CAT $IBM $KO $CVX $UNH $MRK Worst $CSCO $NKE $GS $JPM $DIS $AAPL $DD\u2026 https://t.co/Yq1SJ7WCuX
p365
aV2017-05-19 | Current state of Big Tech &amp; the opportunities $AAPL, $AMZN, $QQQ Stock Trading Investing: https://t.co/9Ban9LX74Y https://t.co/JeYZfHkBF7
p366
aV2017-05-19 | RT @zacharyparadis: This chart is amazing for several reasons\u2013one is that $AAPL is now just $1B behind $MSFT in profit over the last 20 yea\u2026
p367
aV2017-05-19 | 'Finger Spinner' Tops the Free App Charts as the Fidget Spinner Craze Goes Digital https://t.co/weS3q0D9TG\u2026 https://t.co/pKXnuScCYp
p368
aV2017-05-19 | RT @TraderTargets: $AAPL Projection vs TodayActual. Stats on site. 100% fees to charity https://t.co/iOsze0egDx
p369
aV2017-05-19 | RT @racernic: $aapl took it on the chin (intraday comment and vs. the high).
p370
aV2017-05-19 | $AAPL Projection vs TodayActual. Stats on site. 100% fees to charity https://t.co/iOsze0egDx
p371
aV2017-05-19 | RT @racernic: $aapl took it on the chin (intraday comment and vs. the high).
p372
aV2017-05-19 | RT @RatingsNetwork: Apple's buy rating reiterated at Royal Bank of Canada. $157.00 PT. https://t.co/FkTGrLKjjd $AAPL #AAPL
p373
aV2017-05-19 | RT @Ascend_Trading: Look what was #1 on #GapScan this AM.... We were ready $GLYC  @TradeIdeas1 $FB $TWTR $QQQ $SPY $AAPL https://t.co/yPgB8\u2026
p374
aV2017-05-19 | RT @ChrisLacoursier: @MadMoneyOnCNBC @jimcramer JC biggest stock tip since $AMZN $AAPL and $GOOG were 1 dollar per share $NWBO is about to\u2026
p375
aV2017-05-19 | RT @racernic: per OI $AAPL has downside pressure into next wk. caution is warranted. (short term trading purpose)
p376
aV2017-05-19 | https://t.co/mAqge0snxU &lt;-- timothy sykes guide to the best #pennystock brokers! Must see free video! $CASY $AKRX $AAPL $OCUL $RGA
p377
aV2017-05-19 | Never stop being creative. https://t.co/YycaiqUoQY $cbs $ual $pm $utx $btu $adbe $low $oxy $wynn $x $nvda $lc $aapl #FridayFeeling
p378
aV2017-05-19 | Learn why Mobile Technology #Investing is a winning Proposition as $AAPL Valuation breaks $800bn  &gt;&gt;&gt;\u2026 https://t.co/4T0yykAqMD
p379
aV2017-05-19 | $AAPL $MSFT $FB $AMZN $SPX $SPY $GOOG https://t.co/udcqCxjlyh
p380
aV2017-05-19 | Have a great weekend! Tickers discussed this week: $ES_F $NQ_F $VIX $SPY $NVDA $AAPL $FB $RUT $WIX $GDDY
p381
aV2017-05-19 | Apple Inc. $AAPL Earns \u201cBuy\u201d Rating from Royal Bank of Canada https://t.co/HVmqiIjdMH
p382
aV2017-05-19 | Apple Inc. $AAPL Rating Reiterated by Royal Bank of Canada https://t.co/UR7PT7y59C
p383
aV2017-05-19 | Never stop being creative. https://t.co/vT9HmoiNbp $cbs $ual $pm $utx $btu $adbe $low $oxy $wynn $x $nvda $lc $aapl #FridayFeeling
p384
aV2017-05-19 | Security firm recovers iCloud Notes beyond Apple's 30-day deletion window https://t.co/yL5aEXdmqM #AppleInsider\u2026 https://t.co/Mj2WCZzBx2
p385
aV2017-05-19 | Apple Inc. $AAPL Earns \u201cBuy\u201d Rating from Royal Bank of Canada https://t.co/xoabnUcy1w
p386
asI4
(lp387
V2017-05-18 | RT @newswelldone: $AMZN $AAPL $HD $WMT $F:  Lookin\u2019 California, Feelin\u2019 Minnesota:  https://t.co/Jlc8Qga7d6
p388
aV2017-05-18 | All the other tech stocks were rallying like holy hell. $AAPL was being all sneaky like nothings happening over here move along
p389
aV2017-05-18 | $CRM $AMZN $V $IBM $AAPL:  https://t.co/rwlQmdAimO: Cramer\u2019s Top Takeaways:  https://t.co/W3PMctmJPM
p390
aV2017-05-18 | $CMG &amp; $AAPL r great example of what a bottoming pattern/environment looks like. https://t.co/zm9cHwAsVG $WYNN $BABA https://t.co/GTPSTVy7uN
p391
aV2017-05-18 | RT @wildsidekittens: Survey:  Do you know how to market your product?  $AAPL $MMEX $PGPM $GOOG $AMZN
p392
aV2017-05-18 | RT @investingbuddy: Learn How $AAPL #Stocks Valuation Makes it First US Company to Exceed $800bn in quick report by @TradeZer0  &gt;&gt;&gt; https:/\u2026
p393
aV2017-05-18 | RT @kazonomics: @DeadBounceCat @casacup Apple excited about its prospects in #Healthcare $aapl  forward valuations is over a #Trillion &amp; gr\u2026
p394
aV2017-05-18 | Insider Selling: Apple Inc. $AAPL Insider Sells 11,949 Shares of Stock https://t.co/j2hKrNzM63
p395
aV2017-05-18 | RT @MacHashNews: 'Fair Repair Act' proposal in New York under fire by Apple lobbyists https://t.co/sORj4lcFBT #AppleInsider $AAPL https://t\u2026
p396
aV2017-05-18 | RT @MarketSmith: Stocks Extend Modest Gains Late; Facebook Reaches Milestone: https://t.co/fUAEmTu6YY $AAPL $AMZN $NFLX $FB $GOOGL $AVGO $S\u2026
p397
aV2017-05-18 | $AMZN $AAPL $HD $WMT $F:  Lookin\u2019 California, Feelin\u2019 Minnesota:  https://t.co/Jlc8Qga7d6
p398
aV2017-05-18 | RT @HowieRegay: Is it finally time to get rid of Apple? https://t.co/PxOOQABr8P #Financial $AAPL https://t.co/nMpcUt9x9Z
p399
aV2017-05-18 | Insider Selling: Apple Inc. $AAPL Insider Sells 11,949 Shares of Stock https://t.co/G9NI76Ee9q
p400
aV2017-05-18 | $SPY NYSE celebrates its 225th anniversary https://t.co/2FEkIcOdpe $QQQ $DIA $DJIA $IWM $TLT #stocks #stockmarket #investing #finance $AAPL
p401
aV2017-05-18 | 'Fair Repair Act' proposal in New York under fire by Apple lobbyists https://t.co/sORj4lcFBT #AppleInsider $AAPL https://t.co/KEbkIRhUU1
p402
aV2017-05-18 | RT @Stockrookie2: Do I make mistakes? No. I can see it now go ahead and laught. You watch $AAPL https://t.co/a2nSuk9AA7
p403
aV2017-05-18 | Insider Selling: Apple Inc. $AAPL Insider Sells 11,949 Shares of Stock https://t.co/CsqtyJYn9U
p404
aV2017-05-18 | Stocks Extend Modest Gains Late; Facebook Reaches Milestone: https://t.co/fUAEmTu6YY $AAPL $AMZN $NFLX $FB $GOOGL\u2026 https://t.co/QPly3H9JYZ
p405
aV2017-05-18 | Stocks Extend Modest Gains Late; Facebook Reaches Milestone: https://t.co/pEhagkVate $AAPL $AMZN $NFLX $FB $GOOGL\u2026 https://t.co/TJnT5IfeCT
p406
aV2017-05-18 | Join @RobinhoodApp and we'll both get a share of stock like $AAPL, $F, or $S for free. Make sure to use my link.  https://t.co/hfzDCphNC0
p407
aV2017-05-18 | RT @seeitmarket: New Post - "Trading Ideas: 5 Stocks To Watch Tomorrow" http://t.co/BaChMom245 by @NoanetTrader $AGN $JAZZ $TLT $AAPL http:\u2026
p408
aV2017-05-18 | Should You Buy Apple Inc. (AAPL) Stock? 3 Pros, 3 Cons $AAPL https://t.co/O9ZU6xejyb https://t.co/sy8A8yrDU9
p409
aV2017-05-18 | RT @NoanetTrader: "@seeitmarket: New Post - "Trading Ideas: 5 Stocks To Watch" http://t.co/5jsqvqafv8 by @NoanetTrader $AGN $JAZZ $ITW $TLT\u2026
p410
aV2017-05-18 | RT @seeitmarket: New Post - "Trading Ideas: 5 Stocks To Watch Today" http://t.co/BaChMo4qFv by @NoanetTrader $AGN $JAZZ $TLT $ITW $AAPL $MS\u2026
p411
aV2017-05-18 | 10 Industries That Could Be Impacted by Driverless Cars https://t.co/m60Oy0SXsq $AAPL $ALL $ALLY  va @benzinga
p412
aV2017-05-18 | As Qualcomm and Apple battle, don't overlook Nokia's patent dispute $QCOM, $AAPL, $NOK https://t.co/7CMBhpH48j https://t.co/41ukhsQ6Hh
p413
aV2017-05-18 | So You Want to Start a Hedge Fund: Lessons for Managers and Allocators: https://t.co/hWSq4aqxRw $SPY $AAPL $TSLA $NFLX
p414
aV2017-05-18 | RT @moneymorning: #Closingbell news for today: #Trump admin, $AAPL, and @SenWarren ....   https://t.co/2soCK3l26P
p415
aV2017-05-18 | A Simple Day Trading Strategy/PRB https://t.co/DJHmxfPxPo via @YouTube #Trading #Stocks #Options #Success $AAPL $FB $AMZN $TWTR $BIDU $GM $F
p416
aV2017-05-18 | Do I make mistakes? No. I can see it now go ahead and laught. You watch $AAPL https://t.co/a2nSuk9AA7
p417
aV2017-05-18 | RT @TraderTargets: $AAPL Projection vs TodayActual. Stats on site. 100% fees to charity. Moving with SPY https://t.co/1vDtBlU8tX
p418
aV2017-05-18 | $AAPL Projection vs TodayActual. Stats on site. 100% fees to charity. Moving with SPY https://t.co/1vDtBlU8tX
p419
aV2017-05-18 | RT @AnkurBanerjee17: This on $AAPL and #healthcare from @chrissyfarr  https://t.co/pgMj6TC7DG
p420
aV2017-05-18 | Best Option Brokers - $SPY $SPX $RUT $AAPL [Blog Archive] https://t.co/026A9dZzXr
p421
aV2017-05-18 | $AAPL Where buyers flock after a sell-off https://t.co/PhRH5AVkpB
p422
aV2017-05-18 | This on $AAPL and #healthcare from @chrissyfarr  https://t.co/pgMj6TC7DG
p423
aV2017-05-18 | @zerohedge They can always buy $AAPL
p424
aV2017-05-18 | RT @TradingWins: Focus On Weekly - Market Update by Vince Vora for May 18th, 2017 #stocks $AAPL $AMZN $NFLX $GOOGL $TSLA $F $FB https://t.c\u2026
p425
aV2017-05-18 | Move over Wilford Brimley, there's a new diabetes pitchman in town: Apple CEO Tim Cook - $AAPL  https://t.co/6yyIKfUNVd
p426
aV2017-05-18 | RT @seeitmarket: New Post - "Trading Setups: 5 Stocks To Watch Tomorrow" http://t.co/U1IQGCzF38 by @NoanetTrader $AAPL $AMZN $AMBA $KITE $P\u2026
p427
aV2017-05-18 | Should You Buy Apple Inc. (AAPL) Stock? 3 Pros, 3 Cons $AAPL https://t.co/O6wDLopXvn https://t.co/oYii8gBm4N
p428
aV2017-05-18 | $AAPL if you think it's breaking  lose I hate to tell you it's not it's designed that way. Just got to be the first to get it
p429
aV2017-05-18 | Apple to Starting $1Billion Fund Investing American Manufacturing Jobs $AAPL https://t.co/iHmsz7XAnv #Wallst
p430
aV2017-05-18 | RT @MarketPicker: NEW POST: Trading with an Edge (Part 3) \u2013 $SPY $BABA $CREE $AAPL http://t.co/XCV6dIk8PH $STUDY #StockSelection
p431
aV2017-05-18 | 'Invest In People Before The Business' - Warren Buffet $fb $twtr $yhoo $aapl
p432
aV2017-05-18 | $AAPL:  New Insider Filing on  Senior Vice President  DANIEL J. RICCIO:  https://t.co/Jk8MZf3cQT
p433
aV2017-05-18 | RT @BruniCharting: "@MarketPicker: NEW POST: Trading with an Edge (Part 3) \u2013 $SPY $BABA $CREE $AAPL http://t.co/eMDoeg8IA3 $STUDY #StockSel\u2026
p434
aV2017-05-18 | Focus On Weekly - Market Update by Vince Vora for May 18th, 2017 #stocks $AAPL $AMZN $NFLX $GOOGL $TSLA $F $FB https://t.co/ZexlPEZeP2
p435
aV2017-05-18 | RT @GregCameron16: Down Moves -4.3% $SOXX $KRE -3.8% $KBE -3.4% $FDN $AAPL -3% $XBI -2.9% $XLF $JETS $EWZ -2.7% $XLK -2.5% $IWM $QQQ -2.3%\u2026
p436
aV2017-05-18 | RT @LeftCoastTrades: https://t.co/oskWh9mdwf Verified $136.96 profit in $AAPL scalp
p437
aV2017-05-18 | $AAPL - Statement of Changes in Beneficial Ownership (4) https://t.co/MKPfffvVu4
p438
aV2017-05-18 | $AAPL - Statement of Changes in Beneficial Ownership (4) https://t.co/rWo4Ea50fU
p439
aV2017-05-18 | $AAPL - Statement of Changes in Beneficial Ownership (4) https://t.co/bKPWoxYptP
p440
aV2017-05-18 | $AAPL - Statement of Changes in Beneficial Ownership (4) https://t.co/TiPzoKlLEJ
p441
aV2017-05-18 | RT @msttrader: My Latest:  Big Tech: Top or Buying Opportunity? $AAPL $AMZN $QQQ https://t.co/hsnynyLFQZ
p442
aV2017-05-18 | https://t.co/PKp5SZrSct Verified $74.60 loss in $AAPL AM scalp at the open
p443
aV2017-05-18 | RT @tdarling1: $AAPL CEO Tim Cook test-drove a device that tracks his blood sugar, hinting at Apple's interest https://t.co/q4Bhh2nhRM #dia\u2026
p444
aV2017-05-18 | https://t.co/oskWh9mdwf Verified $136.96 profit in $AAPL scalp
p445
aV2017-05-18 | Now What Do We Do About Apple? https://t.co/ll5iyhXTZP $CHL $AAPL
p446
aV2017-05-18 | @fhoro I would've said $FB and $AAPL due to their largely singularly-focused revenue model vis-a-vis news feed adve\u2026 https://t.co/tW5DbXbU4a
p447
aV2017-05-18 | RT @AppleReporter: Apple Launching Three New Laptops in June (Report) https://t.co/0R95Gr3xxy $AAPL $DIA $QQQ $XLK #MacBookPro #macbook htt\u2026
p448
aV2017-05-18 | #Instant #Apple Unlocking $0.99 Cent All #iPhone FOR 3GS 4 4S 5 5C 5S 6 6+ #unlockfusion #icloud #freeunlock #factoryunlock $AAPL #unlock
p449
aV2017-05-18 | RT @ecommerceshares: $AAPL $QQQ $SPY The new upcoming iPads may single-handedly drive the indices another 5% up. Everyone needs and wants o\u2026
p450
aV2017-05-18 | RT @K1ng_Sur0: $AAPL RSI very low and Stochastic showing over sold, looks like the BULLS are about to take control for a strong rally.
p451
aV2017-05-18 | RT @HowieRegay: CNBC: TipRanks shows AAPL just got its most bullish forecast https://t.co/BgYCOVZhO8 #technology $AAPL https://t.co/h9aOiQU\u2026
p452
aV2017-05-18 | The Neatest Little Guide to Stock Market Investing: https://t.co/pgTRFzPHuJ #stocks #investing $SPY $AAPL $TSLA $AMZN
p453
aV2017-05-18 | RT @tdarling1: $AAPL CEO Tim Cook test-drove a device that tracks his blood sugar, hinting at Apple's interest https://t.co/q4Bhh2nhRM #dia\u2026
p454
aV2017-05-18 | RT @MicroFundy: $AAPL's cash balance is so large, that if it had invested it all into $AMZN at its IPO, it would now be all the cash in the\u2026
p455
aV2017-05-18 | At Google I/O yesterday, developers cheered the Assistant coming to the iPhone. That was premature... https://t.co/5Vvv5b5kwI $GOOGL $AAPL
p456
aV2017-05-18 | #Instant #Apple Unlocking $0.99 Cent All #iPhone FOR 3GS 4 4S 5 5C 5S 6 6+ #unlockfusion #icloud #freeunlock #factoryunlock $AAPL #unlock
p457
aV2017-05-18 | RT @tdarling1: $AAPL CEO Tim Cook test-drove a device that tracks his blood sugar, hinting at Apple's interest https://t.co/q4Bhh2nhRM #dia\u2026
p458
aV2017-05-18 | Up over 30% on $BABA as it continues to work higher from our 2nd buy alert https://t.co/32JdI9w8CM $AAPL $SHOP $NVDA https://t.co/gMNSd7C5Bv
p459
aV2017-05-18 | We can't say I didn't just look at the timeline. $AAPL
p460
aV2017-05-18 | $SIRI $P $FWONA $AAPL:  Pandora is a Perfect Catch for Sirius, Analysts Say- Here\u2019s Why:  https://t.co/QMK8CKsS57
p461
aV2017-05-18 | Check out these awesome trading systems: https://t.co/SlDMcCQf0c $AAPL $NFLX $TSLA $FB $VIX $DWTI $UWTI $SPY
p462
aV2017-05-18 | $AAPL CEO Tim Cook test-drove a device that tracks his blood sugar, hinting at Apple's interest https://t.co/q4Bhh2nhRM #diabetes
p463
aV2017-05-18 | RT @holaMau: This would be incredibly helpful (even life-saving) for so many people. #apple $AAPL #diabetes #glucoseMonitoring https://t.co\u2026
p464
aV2017-05-18 | RT @cfromhertz: TTG Themes of the day(below): $AAPL $DD $CAH $QRVO $NVDA $NRG $YRCW $SYMC $CORT $FEZ $BUD $NCLH $EWZ $ERY  #DailyRecap http\u2026
p465
aV2017-05-18 | TTG Themes of the day(below): $AAPL $DD $CAH $QRVO $NVDA $NRG $YRCW $SYMC $CORT $FEZ $BUD $NCLH $EWZ $ERY\u2026 https://t.co/hsjnDfaao7
p466
aV2017-05-18 | #Mr. JareJuhani Renko for the follow #CLOUDUNLOCK Check Out #Apple #iCloud #iPhone $AAPL for #unlock #code https://t.co/sFE120Bm7R
p467
aV2017-05-18 | AMD Jumps On Word Of Intel Graphics Agreement https://t.co/K8dBS3Eun9 $AAPL $INTC $NVDA $AMD
p468
aV2017-05-18 | Boom! Super Cycle&gt; Apple's iPhone scores 92% loyalty rate ahead of 'iPhone 8' launch, study finds... $AAPL #iPhone8  https://t.co/LdJPz7Si2N
p469
aV2017-05-18 | $SHOP Higher Prices Coming. Why we're long https://t.co/5QxbhXElGU $AAPL $WYNN $BABA $CMG $AMZN $KMX $LNTH $CRM $WMT https://t.co/9ff8vGRCSl
p470
aV2017-05-18 | RT @GregCameron16: Down Moves -4.3% $SOXX $KRE -3.8% $KBE -3.4% $FDN $AAPL -3% $XBI -2.9% $XLF $JETS $EWZ -2.7% $XLK -2.5% $IWM $QQQ -2.3%\u2026
p471
aV2017-05-18 | RT @kazonomics: @DeadBounceCat @casacup Apple excited about its prospects in #Healthcare $aapl  forward valuations is over a #Trillion &amp; gr\u2026
p472
aV2017-05-18 | Ready to invest? $AAPL is definitely worth checking out today! https://t.co/sM3JEt9lbc #lowpoly #IndieDev
p473
aV2017-05-18 | RT @jjjinvesting: Buffett Doubles Apple https://t.co/Comq2Nf1Et $BRK.A $BRK.B $AAPL
p474
aV2017-05-18 | This would be incredibly helpful (even life-saving) for so many people. #apple $AAPL #diabetes #glucoseMonitoring https://t.co/EuDKVmb7Xw
p475
aV2017-05-18 | RT @learnstocks101: Free video w/setups for May 19 "Not Real Convincing" $AAPL $MSFT $NVDA $AMAT $SHOP https://t.co/ERrPqxP3vb
p476
aV2017-05-18 | RT @AlertTrade: May Shopping List: Building Up Our Smaller Positions $AAPL #APPLE $D $PEP https://t.co/fdnpkYQPA0 #Investing #Stocks https:\u2026
p477
aV2017-05-18 | Why Fitbit Inc. Shareholders Have Something to Worry About @themotleyfool #stocks $AAPL, $QCOM, $GRMN, $FIT https://t.co/XpsfYGYzHY
p478
aV2017-05-18 | Apple Technician Dan Dodge talks about QNX..... @BlackBerry $BBRY $AAPL @Apple  @Microsoft $MSFT https://t.co/Jr9NdD3Hfn
p479
aV2017-05-18 | RT @TSXtrad3r: Live Trading Stream: $CLNT Long | $APHB $WKHS $IMMU $SNCR $EXTR $ARWR $CDNA $FIT $WTW $MTBC $TWTR $FB $AAPL $AMD  https://t.\u2026
p480
aV2017-05-18 | RT @vikrambarhath: Pleased to say I made my @CNBC debut this morning with this story. https://t.co/0OrPcXafaJ  #IconicTour $AAPL #AAPL #Ind\u2026
p481
aV2017-05-18 | Free video w/setups for May 19 "Not Real Convincing" $AAPL $MSFT $NVDA $AMAT $SHOP https://t.co/ERrPqxP3vb
p482
aV2017-05-18 | Best Stocks Warren Buffett Is Buying Now @themotleyfool #stocks $BRK-A, $AAPL, $LUV, $BRK-B, $BK https://t.co/60abOu2CBC
p483
aV2017-05-18 | Best Stocks Warren Buffett Is Buying Now https://t.co/pnhNwbBQmB $AAPL $LUV $BK
p484
aV2017-05-18 | Buffett Doubles Apple https://t.co/Comq2Nf1Et $BRK.A $BRK.B $AAPL
p485
aV2017-05-18 | Google's Android O changes 'blob' emoji to more iOS-like circular shape https://t.co/OP77BuXryh #AppleInsider $AAPL https://t.co/4vFHTApf4W
p486
aV2017-05-18 | May Shopping List: Building Up Our Smaller Positions $AAPL #APPLE $D $PEP https://t.co/XKCfkxoE3X #Investing #Stocks https://t.co/eBncZWL42m
p487
asI5
(lp488
V2017-05-17 | RT @BourseetTrading: " #Banks are right to fear #tech giants " $AAPL $AMZN $GOOGL $FB  #fintech #defstar5 #makeyourownlane #Mpgvip  https:/\u2026
p489
aV2017-05-17 | RT @BourseetTrading: " #Banks are right to fear #tech giants " $AAPL $AMZN $GOOGL $FB  #fintech #defstar5 #makeyourownlane #Mpgvip  https:/\u2026
p490
aV2017-05-17 | RT @BourseetTrading: " #Banks are right to fear #tech giants " $AAPL $AMZN $GOOGL $FB  #fintech #defstar5 #makeyourownlane #Mpgvip  https:/\u2026
p491
aV2017-05-17 | RT @BourseetTrading: " #Banks are right to fear #tech giants " $AAPL $AMZN $GOOGL $FB  #fintech #defstar5 #makeyourownlane #Mpgvip  https:/\u2026
p492
aV2017-05-17 | Down Moves -4.3% $SOXX $KRE -3.8% $KBE -3.4% $FDN $AAPL -3% $XBI -2.9% $XLF $JETS $EWZ -2.7% $XLK -2.5% $IWM $QQQ -2.3% $ITB $IBB
p493
aV2017-05-17 | $MSFT $AAPL Deloitte\u2019s Global Defense Outlook Research Report about Cyber Security and Nuclear Capability https://t.co/uAe95k9bpo
p494
aV2017-05-17 | RT @theflynews: On The Fly: Top stock stories for Wednesday $TGT $QCOM $AAPL $CVS $RAD $WBA $AMZN $GOOG $GOOGL $JACK $CL $AEO $AMD https://\u2026
p495
aV2017-05-17 | .@NaviAvatar1 on #Periscope: Dow drops 372, $AAPL $AMZN $TWTR $SNAP $NVDA $FB $BABA https://t.co/fWhxxZxO6h
p496
aV2017-05-17 | $GOOG $AAPL $NFLX $CL $jnj $XOM $WFC $GS $fb $JPM $t $GE $AMD $ko $TGT $TWX $MSFT $CL $TXN $INTC $TSLA $D $HCA $DO\u2026 https://t.co/CW7Ce8Eawn
p497
aV2017-05-17 | $SPY $DIA $QQQ $IWM HOLEEY FUK just got back, wut happined thu final hour? good GOD bwahaha $TSLA $AMZN $ADSK $AAPL $NVDA bagholderzGALORE
p498
aV2017-05-17 | RT @MacHashNews: 92% of iPhone users likely to upgrade in the next 12 months https://t.co/7A8oP3FZRq #AppleWorldToday $AAPL https://t.co/UK\u2026
p499
aV2017-05-17 | $CAT $FB $NFLX $AAPL $NVDA $ALL 3 points bounce?... we just need 41 more and we'll be back to normal
p500
aV2017-05-17 | $QCOM's battle with $AAPL is heating up! Now, it is suing #Apple's contract manufacturers such as Foxconn and Pegat\u2026 https://t.co/WjL5po8Y61
p501
aV2017-05-17 | Dow drops 372, $AAPL $AMZN $TWTR $SNAP $NVDA $FB $BABA https://t.co/uG79SBXu0X
p502
aV2017-05-17 | High-tech US-based transnational companies (TNCs) now = 5 of 7 largest companies in the world 1 $AAPL 2 $GOOG 3 $MSFT 4 ? 5 ? 6 $AMZN 7 $FB
p503
aV2017-05-17 | So You Want to Start a Hedge Fund: Lessons for Managers and Allocators: https://t.co/hWSq4aqxRw $SPY $AAPL $TSLA $NFLX
p504
aV2017-05-17 | Dow drops 372 as $SPY goes below 50 day on NYT Article Regarding #ComeyMemo $AAPL $NVDA lower. Chart and Video https://t.co/oVfBaxDycg
p505
aV2017-05-17 | $AAPL - Google Gives Artificial Intelligence More Power in its Products -- Update https://t.co/GcOsYQYIPx
p506
aV2017-05-17 | $AAPL - Google Gives Artificial Intelligence More Power in its Products -- Update https://t.co/LmXTcHDj6I
p507
aV2017-05-17 | $AAPL - Google Gives Artificial Intelligence More Power in its Products -- Update https://t.co/VCrpR0z2lU
p508
aV2017-05-17 | $AAPL - Google Gives Artificial Intelligence More Power in its Products -- Update https://t.co/5qtOGvS8DD
p509
aV2017-05-17 | 92% of iPhone users likely to upgrade in the next 12 months https://t.co/7A8oP3FZRq #AppleWorldToday $AAPL https://t.co/UKC2ErkJjh
p510
aV2017-05-17 | RT @myhedghog: Best advice for next few days. Let the tape speak, follow instincts and stay away from so called 'news' $QQQ $SPY $AAPL $DDD\u2026
p511
aV2017-05-17 | @RevShark @jimcramer @DougKass Had a big day with $AAPL puts. Would've been bigger had I been braver, but I'll take what I got for sure!
p512
aV2017-05-17 | Morgan Stanley boosts Apple price target, seeing no iPhone delay $AAPL https://t.co/Oq6Fj7TUcQ
p513
aV2017-05-17 | RT @JGN74: $AAPL had an overshoot as did many other techs.  Now $145ish support imho. We'll see if holds.  $EWZ problems tonight too!!! @Tr\u2026
p514
aV2017-05-17 | $AAPL had an overshoot as did many other techs.  Now $145ish support imho. We'll see if holds.  $EWZ problems tonight too!!! @TraderFlorida
p515
aV2017-05-17 | Apple Inc. $AAPL Stock Live Analysis 12-12-2016 #stockmarket  https://t.co/y4P363H9UT
p516
aV2017-05-17 | Best advice for next few days. Let the tape speak, follow instincts and stay away from so called 'news' $QQQ $SPY $AAPL $DDD @CNBC
p517
aV2017-05-17 | RT @Stockdog101: $SITO continuing strong! $7.80 PT! $F $AAPL $GOOGL $TSLA $FB $X $QQQ $UVXY $SVXY $LOCO $AMZN $ZFGN $EYES $S #stocks #NYSE\u2026
p518
aV2017-05-17 | RT @ElixiumCrypto: https://t.co/srkfzEecv5   #Trading with #Bitcoin  @elixiumbitcoin #Forex #Stocks $ES $GC $CL $GOOG $AAPL $TSLA $SPY $QQQ\u2026
p519
aV2017-05-17 | RT @32Trades: Congrats to my @32trades Family 500% - 1500% Winners all over today $SPX $SPY $VIX $NVDA $GOOGL $AMZN $QQQ $FB $AAPL https://\u2026
p520
aV2017-05-17 | RT @TraderTargets: $AAPL Projection vs TodayActual. Stats on site. 100% fees to charity. Dropped and kept going w/SPY https://t.co/OBwRJRTz\u2026
p521
aV2017-05-17 | $SITO continuing strong! $7.80 PT! $F $AAPL $GOOGL $TSLA $FB $X $QQQ $UVXY $SVXY $LOCO $AMZN $ZFGN $EYES $S #stocks\u2026 https://t.co/Zc7adaECIR
p522
aV2017-05-17 | Tech the only sector that saw positive money flow ($800m) on 17 May. $AAPL $FB $MSFT major beneficiaries. Financials worst hit- $4b outflow.
p523
aV2017-05-17 | RT @barronsonline: Calpers Sells the FANG Stocks and #Apple in Q1 https://t.co/0ARlJrD9iS $FB $NFLX $AMZN $GOOGL $GOOG $AAPL https://t.co/O\u2026
p524
aV2017-05-17 | $AAPL $150.25 (-3.36%) is a top mover.  Try our #sentiment analysis tool free: https://t.co/GvMdw1aUkZ  #trading
p525
aV2017-05-17 | $AAPL Apple's new headquarters will reflect Steve Jobs's desire to replicate the... https://t.co/HZ5ycqTuJ2
p526
aV2017-05-17 | RT @cheddar: These are @themotleyfool's @TMFJMo three main reasons to be bullish on $AAPL. #CheddarLIVE https://t.co/J2bckw2mOK
p527
aV2017-05-17 | $spy $aapl $fb $twtr  $p #trump  So I was right, now you're claiming you really WERE a bear. Yesterday you were a h\u2026 https://t.co/rkS1WsqN7o
p528
aV2017-05-17 | RT @TradingWins: A Sea Of Red - Market Update by Vince Vora for May 17th, 2017 #stocks $AAPL $AMZN $NFLX $GOOGL $TSLA $F $FB https://t.co/0\u2026
p529
aV2017-05-17 | In General I'll be looking to the names that have been strongest for bounce plays and big option flow. $AAPL $AMZN $GOOGL $MCD $HD are some
p530
aV2017-05-17 | $aapl $170 soon based on history! https://t.co/Q83F6zPymu
p531
aV2017-05-17 | $AAPL:  Apple\u2019s new headquarters will reflect Steve Jobs\u2019s desire to replicate \u2026:  https://t.co/o7RmQJERab
p532
aV2017-05-17 | $aapl going to $170 https://t.co/d0viKIK24a
p533
aV2017-05-17 | RT @32Trades: Congrats to my @32trades Family 500% - 1500% Winners all over today $SPX $SPY $VIX $NVDA $GOOGL $AMZN $QQQ $FB $AAPL https://\u2026
p534
aV2017-05-17 | $AAPL Projection vs TodayActual. Stats on site. 100% fees to charity. Dropped and kept going w/SPY https://t.co/OBwRJRTzhN
p535
aV2017-05-17 | $psdv $aldx $srpt few stocks that were green for me despite big red day in equities. Adding more $galt and looking into $wynn $aapl $amzn
p536
aV2017-05-17 | RT @EpicStockCall: $vix $spy $aapl $fb $p  Today, vol sellers  were seen hocking their best china to cover margin calls https://t.co/bwynVH\u2026
p537
aV2017-05-17 | Watch Weekly Institutional Technical Analysis Video for $AAPL &amp; Hot Global Markets by @tradingsafely1 &gt;&gt;\u2026 https://t.co/LPADT75Hqq
p538
aV2017-05-17 | Market Back Under Pressure II: Dozens of top #stocks fall 2% or more in heavy volume. Watch for sell signals to trigger $AAPL $BABA $JPM $WB
p539
aV2017-05-17 | VIDEO: $XLK $AAPL $FB Technical Analysis Chart 5/17/2017 https://t.co/XogAxIgZWU #business #trading #finance #wallstreet #investing
p540
aV2017-05-17 | Google parent Alphabet, Apple, Facebook outstrip rest of economy https://t.co/156IXK4ez1 @ethanbaron $GOOGL $AAPL $FB
p541
aV2017-05-17 | $AMZN $SBUX $PNRA $AAPL:  Cramer: The bull case for staying in stocks through a market dip:  https://t.co/l4OXswNFQ6
p542
aV2017-05-17 | RT @sharerepurchase: The May Stock Pick is out! #Subscribe now! #ShareRepurchase #FollowMe #Investing #StockPicks $SPY $DJI $NDX $AAPL http\u2026
p543
aV2017-05-17 | @Dave_Lopez $AAPL up will get you $BAC
p544
aV2017-05-17 | $vix $spy $aapl $fb $p  Today, vol sellers  were seen hocking their best china to cover margin calls https://t.co/bwynVHnsw6
p545
aV2017-05-17 | RT @cheddar: These are @themotleyfool's @TMFJMo three main reasons to be bullish on $AAPL. #CheddarLIVE https://t.co/J2bckw2mOK
p546
aV2017-05-17 | @OptionsMike $AAPL and $BAC please.
p547
aV2017-05-17 | Iam looking at aapl looks juicy here but. got to get past the bad and the ugly in D.C $aapl
p548
aV2017-05-17 | $AAPL 21D is right here, possible bounce spot if market holds if not 50D and break out area of 144ish https://t.co/4pZnCLLv80
p549
aV2017-05-17 | $GOOGL $AAPL $FB:  Google is looking to AI to vault Android ahead of iOS:  https://t.co/UyYXyV3iaZ
p550
aV2017-05-17 | RT @ElixiumCrypto: https://t.co/srkfzEecv5   #Trading with #Bitcoin  @elixiumbitcoin #Forex #Stocks $ES $GC $CL $GOOG $AAPL $TSLA $SPY $QQQ\u2026
p551
aV2017-05-17 | RT @ElixiumCrypto: https://t.co/srkfzEecv5   #Trading with #Bitcoin  @elixiumbitcoin #Forex #Stocks $ES $GC $CL $GOOG $AAPL $TSLA $SPY $QQQ\u2026
p552
aV2017-05-17 | Apple Inc. $AAPL Receives \u201cBuy\u201d Rating from Canaccord Genuity https://t.co/LCwI7Un48C
p553
aV2017-05-17 | Apple Inc. $AAPL Receives \u201cBuy\u201d Rating from Canaccord Genuity https://t.co/3fYwNzLRFW
p554
aV2017-05-17 | Technology Stock Roundup: MSFT Build, INTC Debt, AliPay, TWTR A.I. https://t.co/DiMsaKF1Gq $MSFT $AAPL $BABA $TWTR $INTC
p555
aV2017-05-17 | Free video w/setups for May 18 "The Real Deal" $AAPL $FB $BAC $NFLX $AMZN https://t.co/bAms0bW4K1
p556
aV2017-05-17 | Apple Inc. $AAPL Receives \u201cBuy\u201d Rating from Canaccord Genuity https://t.co/QVd991tfm8
p557
aV2017-05-17 | Apple Inc. $AAPL Receives \u201cBuy\u201d Rating from Canaccord Genuity https://t.co/nhgaU6mq3E
p558
aV2017-05-17 | SAlphaTrending: https://t.co/sLRZpaVdRn: A Share Price Limited Only By Imagination https://t.co/hzLFptI4F7 $AAPL #APPLE $M $AMZN
p559
aV2017-05-17 | Apple Inc. $AAPL Receives \u201cBuy\u201d Rating from Canaccord Genuity https://t.co/Jnlk5gXtup #stocks
p560
aV2017-05-17 | Have a great day all. Tickers discussed today: $FB $AAPL $AMZN $NFLX $GOOGL $GOOG $CSCO $NQ_F $ES_F $SPY Good night.
p561
aV2017-05-17 | https://t.co/aMQN4BOdHM: A Share Price Limited Only By Imagination https://t.co/r0dzsxjETS $AAPL #APPLE $M $AMZN
p562
aV2017-05-17 | Now What Do We Do About Apple? $CHL $AAPL https://t.co/XtXnU6Kcml #Investing #Stocks https://t.co/mXVLBdO2xo
p563
aV2017-05-17 | $AAPL:  Now What Do We Do About Apple?:  https://t.co/F6BjIIYfK1
p564
aV2017-05-17 | Now What Do We Do About Apple? $CHL $AAPL https://t.co/D8IQu7hXMy #Investing #Stocks https://t.co/KxTGPOtALk
p565
aV2017-05-17 | RT @SeekingAlpha: Now What Do We Do About Apple? https://t.co/gi05VO6swJ $CHL $AAPL
p566
aV2017-05-17 | RT @rickjnewman: Dude next to me at #SALT2017 is typing / tapping on a $MSFT Surface. My $AAPL Macbook feels archaic.
p567
aV2017-05-17 | Now What Do We Do About Apple? https://t.co/ZBqBvIXLAS $CHL $AAPL
p568
aV2017-05-17 | Now What Do We Do About Apple? https://t.co/gi05VO6swJ $CHL $AAPL
p569
aV2017-05-17 | $P Pandora talks going again.  This is one $AAPL should buy.   Super undervalued cc @danielernstTMT
p570
aV2017-05-17 | Dude next to me at #SALT2017 is typing / tapping on a $MSFT Surface. My $AAPL Macbook feels archaic.
p571
aV2017-05-17 | #Instant #Apple Unlocking $0.99 Cent All #iPhone FOR 3GS 4 4S 5 5C 5S 6 6+ #unlockfusion #icloud #freeunlock #factoryunlock $AAPL #unlock
p572
aV2017-05-17 | RT @TheStreet: The new initiative is being branded as "Today at Apple" and is now available at all 495 Apple stores worldwide https://t.co/\u2026
p573
aV2017-05-17 | #Instant #Apple Unlocking $0.99 Cent All #iPhone FOR 3GS 4 4S 5 5C 5S 6 6+ #unlockfusion #icloud #freeunlock #factoryunlock $AAPL #unlock
p574
aV2017-05-17 | RT @mathman6577: #Apple (NASDAQ: AAPL)'s iPhone Retention Rate At 92% This Year - Benzinga $AAPL  https://t.co/4Rane9NdcZ
p575
aV2017-05-17 | RT @stocktrader300: Gotta love when you can make money in a shitty market like today $AAPL $WYNN both trades posted up about $1,290 https:/\u2026
p576
aV2017-05-17 | Great trading models at Profectus Systems $AAPL $BAC $PG $YHOO $CHK $WFC $FB $CRM $GE $MRO $NFLX $AMZN $TSLA $SPY $VLO $JBLU $ATVI $AMD
p577
aV2017-05-17 | RT @ElixiumCrypto: https://t.co/srkfzEecv5   #Trading with #Bitcoin  @elixiumbitcoin #Forex #Stocks $ES $GC $CL $GOOG $AAPL $TSLA $SPY $QQQ\u2026
p578
aV2017-05-17 | #ApplePay officially rolling out in #Italy w/ support from 3 banks - Boon, Carrefour Banca &amp; UniCredit $MA $V $AAPL https://t.co/3ZajGXbfZp
p579
aV2017-05-17 | #Apple (NASDAQ: AAPL)'s iPhone Retention Rate At 92% This Year - Benzinga $AAPL  https://t.co/4Rane9NdcZ
p580
aV2017-05-17 | Gotta love when you can make money in a shitty market like today $AAPL $WYNN both trades posted up about $1,290 https://t.co/afCRZXcnMM
p581
aV2017-05-17 | RT @AscendTradings: Come join the elite and make sure you are there before anyone else https://t.co/v2xcakoZ2b $RRBG $FB $AMZN $AAPL $GOOGL\u2026
p582
aV2017-05-17 | The Biggest Sign Yet the Apple Watch Is Failing https://t.co/hY0yY6MyRk $AAPL
p583
aV2017-05-17 | RT @businessinsider: Banks are right to fear tech giants $AAPL $AMZN $GOOGL $FB https://t.co/MA76myIjh0 https://t.co/6NErwBloAS
p584
aV2017-05-17 | Video Lesson: This is how you spot big moves BEFORE they start https://t.co/LGNrhO8R7N    $SPY $AAPL $AMZN $GOOGL $FB $NVDA $NFLX $TSLA $CMG
p585
aV2017-05-17 | RT @RudyHavenstein: How many Apple shares does the Reserve Bank of Zimbabwe own? $AAPL
p586
aV2017-05-17 | RT @NationalCenter: Justin Danhof, Professional Rabble-Rouser https://t.co/zbTBvH0b1y @KOANEWSRADIO @MandyConnell #tcot $GE $AAPL $LLY $PEP\u2026
p587
aV2017-05-17 | $AAPL needs to promote the macbook more - no matter where i go, i always get questions about it. "is that a computer? wow it's so thin!"
p588
asI6
(lp589
V2017-05-16 | @CountingCrowds @hblodget With $AAPL = 16x $TSLA, it's no contest  Debt gets cut in half when exercise the converts (@ ~360) $TSLA
p590
aV2017-05-16 | Got milk? Got hedges? Former or latter? Have some milk &amp; cookies &amp; watch a soap opera unfold. #Trump #Comey #ComeyMemo $SPY $AAPL $FB $BABA
p591
aV2017-05-16 | $FB $AMZN $NFLX $GOOGL $AAPL $V $FB all ur favorite overbloated stawks r down AH, thu toothpicks startin ta break beneath $SPY $DIA $QQQ
p592
aV2017-05-16 | RT @aaronhahnmedia: brb buying $AAPL https://t.co/GzF7Gd1s2n
p593
aV2017-05-16 | Not buying any dips tonight bc the morning could be a lot worse $SPY $AAPL $FB $QQQ
p594
aV2017-05-16 | RT @SharePlanner: Trade with me in the Splash Zone - Real Time Trade alerts via text, email and a thriving chatroom #stocks $AAPL $FB https\u2026
p595
aV2017-05-16 | $AAPL #patent 9,652,948: Haptic actuator including circuitry for generating dri... https://t.co/6H7KB7SLVA #tech #IP https://t.co/i4EoIBkanU
p596
aV2017-05-16 | @myhedghog @hblodget Would you rather own $aapl for 3-4 years?  What is Tesla's debt BTW at end of 2017 9 billion?\u2026 https://t.co/C3sZaliZcM
p597
aV2017-05-16 | APPLE PLANS Laptop Upgrades to Take on Microsoft $AAPL $MSFT - BLOOMBERG https://t.co/zRT7vOkU6x
p598
aV2017-05-16 | APPLE PLANS Laptop Upgrades to Take on Microsoft $AAPL $MSFT - BLOOMBERG https://t.co/OpffPkCqSq
p599
aV2017-05-16 | $AAPL Report: Apple Inc. Prepping MacBook Updates for WWDC https://t.co/r711bNrusp
p600
aV2017-05-16 | Since Warren Buffet went long on Apple; $AAPL is with 63% gain #business https://t.co/PrFzw1oVxZ
p601
aV2017-05-16 | $AAPL  review powerful      https://t.co/ngvYAaMdYJ
p602
aV2017-05-16 | Join @RobinhoodApp and we'll both get a share of stock like $AAPL, $F, or $S for free. Make sure to use my link.  https://t.co/ePwCIsmAdt
p603
aV2017-05-16 | @ericjackson @tim_cook I'm just not convince $aapl needs to be in the content creation business iOS is the perfect\u2026 https://t.co/PkS5YBUxa7
p604
aV2017-05-16 | Since Warren Buffet went long on Apple; $AAPL is with 63% gain via /r/business https://t.co/pU27hZXL0F
p605
aV2017-05-16 | $AAPL:  Report: Apple Inc. Prepping MacBook Updates for WWDC:  https://t.co/afWZVTJ9oC
p606
aV2017-05-16 | Dow Down 2, $AAPL $AMZN $NVDA $BABA $TWTR $SNAP $FB $SPY https://t.co/yQMhV1Egaq
p607
aV2017-05-16 | Since Warren Buffet went long on Apple; $AAPL is with 63% gain via /r/business https://t.co/yuOVy4SihE
p608
aV2017-05-16 | TheStreet Launches a Free New Financial App that's Available at the App Store https://t.co/251uJZ4Ppy\u2026 https://t.co/uLI2Zn0q3I
p609
aV2017-05-16 | RT @OphirGottlieb: $AAPL How to get long Apple with options but avoid the pitfalls of, ya know, being wrong https://t.co/KDTcqmlXXD https:/\u2026
p610
aV2017-05-16 | brb buying $AAPL https://t.co/GzF7Gd1s2n
p611
aV2017-05-16 | RT @IBD_ECarson: Futures Fall On Trump News, But These 4 Stocks Are In Buy Range Now https://t.co/9WVTFz55OP $AAPL $QRVO $BIDU $BABA $SBUX\u2026
p612
aV2017-05-16 | RT @NewsToDesk: $AAPL $BMY $AGN $AMZN $HD:  Cramer Remix: Why Carl Icahn\u2019s decision to sell Apple was the right \u2026:  https://t.co/L9v2pdJSFw
p613
aV2017-05-16 | $AAPL How to get long Apple with options but avoid the pitfalls of, ya know, being wrong https://t.co/KDTcqmlXXD https://t.co/31wG8RsGxV
p614
aV2017-05-16 | RT @CNBCFastMoney: The Nasdaq saw its 33rd record close on Tuesday, $FB $AMZN $AAPL $NFLX and $GOOGL are the tech titans leading the rally\u2026
p615
aV2017-05-16 | $AAPL sum put vol=49,922 sum call vol=101,219 PutCallRatio=0.49 expiration 05/19/2017 . https://t.co/lR1w76NnVu https://t.co/U6nU10U2iV
p616
aV2017-05-16 | RT @StocksByPaige: $AAPL may release new macbooks this summer.   #Apple #Microsoft #stocks #WWDC17  https://t.co/yo7n9JFSyO
p617
aV2017-05-16 | RT @IBD_ECarson: Futures Fall On Trump News, But These 4 Stocks Are In Buy Range Now https://t.co/9WVTFz55OP $AAPL $QRVO $BIDU $BABA $SBUX\u2026
p618
aV2017-05-16 | RT @Convertbond: Since March 1  FANG Stocks: +$270B Rest of the S&amp;P 500: -$260B  Via @KaiPflughaupt   $FB $AAPL $AMZN $NFLX  $GOOG
p619
aV2017-05-16 | RT @IBD_ECarson: Futures Fall On Trump News, But These 4 Stocks Are In Buy Range Now https://t.co/9WVTFz55OP $AAPL $QRVO $BIDU $BABA $SBUX\u2026
p620
aV2017-05-16 | $AAPL #patent 9,652,867: Grain generation and blending https://t.co/G38uJCQwVW #tech #IP https://t.co/p6gF6R3hYU
p621
aV2017-05-16 | How to Overcome Big Trading Losses https://t.co/YilpW05nhl #Trading #Stocks #Options #Success $AAPL $FB $AMZN $TWTR $BIDU $GM $GS $DUST
p622
aV2017-05-16 | RT @Stockin_Robin: $EXPE takin off n shit $SPY $SPX $DJIA $USO $AAPL $TWTR $TSLA $BABA $AMZN https://t.co/EUq8HG34Hj
p623
aV2017-05-16 | Futures Fall On Trump News, But These 4 Stocks Are In Buy Range Now https://t.co/9WVTFz55OP $AAPL $QRVO $BIDU $BABA\u2026 https://t.co/QNgo8w2WpD
p624
aV2017-05-16 | One thing I've learned trading $aapl. When it's down "hard" in AH. It's going to be a rough open.
p625
aV2017-05-16 | #trump #comey  $spy $aapl $amd #yourmama #HillaryClinton  #Preakness https://t.co/EsVyKtJ1Vg
p626
aV2017-05-16 | @qz peak $AAPL! within Long advertised $155-$165 target. can go higher, lower or sideway! whichever matters not whe\u2026 https://t.co/kzKHWmQmhk
p627
aV2017-05-16 | Join @RobinhoodApp and we'll both get a share of stock like $AAPL, $F, or $S for free. Make sure to use my link.  https://t.co/4uoMWtjyxl
p628
aV2017-05-16 | RT @CNBCFastMoney: The Nasdaq saw its 33rd record close on Tuesday, $FB $AMZN $AAPL $NFLX and $GOOGL are the tech titans leading the rally\u2026
p629
aV2017-05-16 | RT @WallStJesus: \U0001f525 TODAY'S ACTIVE FLOW &gt;&gt;  $AMD $AAPL $BABA $NVDA $TWTR $C $BAC $FB $AMZN $SNAP $MSFT $TGT $F $VRX $M $YHOO $HD $GE $VZ $MU\u2026
p630
aV2017-05-16 | $AAPL $BMY $AGN $AMZN $HD:  Cramer Remix: Why Carl Icahn\u2019s decision to sell Apple was the right \u2026:  https://t.co/L9v2pdJSFw
p631
aV2017-05-16 | RT @TradingWins: Monitor The $$ - Market Update by Vince Vora for May 16th, 2017 #stocks $AAPL $AMZN $NFLX $GOOGL $TSLA $F $FB https://t.co\u2026
p632
aV2017-05-16 | Apple Inc.: 98 (+1.02%) https://t.co/eJCNQNU0xG $AAPL #Apple #Sentiment #Stock #Analysis #BigData
p633
aV2017-05-16 | Ya, that $AMZN has no monopoly power huh, kinda like $GOOG and $AAPL no power https://t.co/a2ouBkHr46
p634
aV2017-05-16 | Unlimited Option Trades- $25 month.  No commission or contract fees ! SIGN UP for Early Access !   https://t.co/xviwOyV5u6  $AAPL $TSLA $BAC
p635
aV2017-05-16 | Monitor The $$ - Market Update by Vince Vora for May 16th, 2017 #stocks $AAPL $AMZN $NFLX $GOOGL $TSLA $F $FB https://t.co/66DdLwoEf8
p636
aV2017-05-16 | RT @themotleyfool: Apple is one of the most widely held stocks. But at these new highs, should you take your $AAPL profits and run? https:/\u2026
p637
aV2017-05-16 | RT @passthebeano: \u201cAn Introduction to LIDAR: The Key Self-Driving Car Sensor\u201d by @olivercameron $TSLA $AAPL $GOOGL $F $GM NVDA https://t.co\u2026
p638
aV2017-05-16 | \u201cAn Introduction to LIDAR: The Key Self-Driving Car Sensor\u201d by @olivercameron $TSLA $AAPL $GOOGL $F $GM NVDA https://t.co/x2Kf2iSrx7
p639
aV2017-05-16 | RT @WallStJesus: \U0001f525 TODAY'S ACTIVE FLOW &gt;&gt;  $AMD $AAPL $BABA $NVDA $TWTR $C $BAC $FB $AMZN $SNAP $MSFT $TGT $F $VRX $M $YHOO $HD $GE $VZ $MU\u2026
p640
aV2017-05-16 | RT @HD_Coco: Well $aapl... what's up with you on ah \U0001f611
p641
aV2017-05-16 | Their ad: "Approach investing as a science. Not as a game.  We use AI"  Their AI: "Siri, buy 100 shares of $aapl..."
p642
aV2017-05-16 | About time $aapl looks at killing iPad mini. Waste of production $'s and margins. Focus on iPhone 8.
p643
aV2017-05-16 | $AAPL:  This is the country you should watch for clues on US corporate \u2026:  https://t.co/WCOwKiI5pS
p644
aV2017-05-16 | $AAPL #patent 9,652,816: Reduced frame refresh rate https://t.co/ZYkfVu5GXg #tech #IP https://t.co/UetdjDKB8H
p645
aV2017-05-16 | $AAPL Rumor: Apple Inc. to Kill the iPad Mini https://t.co/T6o6GX9RhP
p646
aV2017-05-16 | RT @WallStJesus: \U0001f525 TODAY'S ACTIVE FLOW &gt;&gt;  $AMD $AAPL $BABA $NVDA $TWTR $C $BAC $FB $AMZN $SNAP $MSFT $TGT $F $VRX $M $YHOO $HD $GE $VZ $MU\u2026
p647
aV2017-05-16 | RT @WallStJesus: \U0001f525 TODAY'S ACTIVE FLOW &gt;&gt;  $AMD $AAPL $BABA $NVDA $TWTR $C $BAC $FB $AMZN $SNAP $MSFT $TGT $F $VRX $M $YHOO $HD $GE $VZ $MU\u2026
p648
aV2017-05-16 | \U0001f525 TODAY'S ACTIVE FLOW &gt;&gt;  $AMD $AAPL $BABA $NVDA $TWTR $C $BAC $FB $AMZN $SNAP $MSFT $TGT $F $VRX $M $YHOO $HD $GE\u2026 https://t.co/6FoWgKMLrw
p649
aV2017-05-16 | RT @CNBCFastMoney: The Nasdaq saw its 33rd record close on Tuesday, $FB $AMZN $AAPL $NFLX and $GOOGL are the tech titans leading the rally\u2026
p650
aV2017-05-16 | Benzinga: Not Playing Around: Video Game ETF Is On A Tear https://t.co/t4ohCp9MDR $AAPL $ATVI $EA $TTWO $GAMR
p651
aV2017-05-16 | Why Tesla Needs to Fear\u2026 - Barron's @lfburch biggest threat #Hydrogen $AMZN Technology Collaboration $PLUG $AAPL https://t.co/hIpbs1KZ5V
p652
aV2017-05-16 | RT @CNBCFastMoney: The Nasdaq saw its 33rd record close on Tuesday, $FB $AMZN $AAPL $NFLX and $GOOGL are the tech titans leading the rally\u2026
p653
aV2017-05-16 | RT @VikingKing6: @Bamabroker $QQQ volatility over the past 3 months is less than 7% annualized.  Beta under 1.0 in relation to SPY.  Slow,\u2026
p654
aV2017-05-16 | $AAPL:  Rumor: Apple Inc. to Kill the iPad Mini:  https://t.co/u8D7meKKW7
p655
aV2017-05-16 | Not Playing Around: Video Game ETF Is On A Tear https://t.co/gB2DGZ6xRt $AAPL $ATVI $EA $TTWO $GAMR
p656
aV2017-05-16 | Well $aapl... what's up with you on ah \U0001f611
p657
aV2017-05-16 | RT @ValueBilbao: Apple: Calling A Top? $AAPL https://t.co/0qzaaX142H
p658
aV2017-05-16 | RT @TraderTargets: $AAPL Never Dull! Projection vs TodayActual. Stats on site. 100% fees to charity. https://t.co/cn6BBnXWeF
p659
aV2017-05-16 | $GDX vs $AAPL 10 year chart. It doesn't get much clearer than this! @Bamabroker https://t.co/Xqeg5oFVGI
p660
aV2017-05-16 | $AAPL getting dumped AH lmao
p661
aV2017-05-16 | $AAPL:  Apple (AAPL) PT Raised to $170 at BMO Capital; Sees Room for \u2026:  https://t.co/UEfahGZxq6
p662
aV2017-05-16 | $AAPL:  Warren Buffett, Please Call Paul:  https://t.co/v8lPyF28Kn
p663
aV2017-05-16 | This can be huge for $BBRY . $AAPL should put some money in the co https://t.co/18Z491pwVf
p664
aV2017-05-16 | RT @avibarrons: Google Made E-mail Free; Are Cars Next? https://t.co/TOsw5yMdBj via @BarronsNext $GOOGL $AAPL $TSLA
p665
aV2017-05-16 | Apple's @AngelaAhrendts  interview with LinkedIn's Daniel Roth , Great insight ! $Aapl #apple #Angelaahrendts https://t.co/KOSv3oWkuQ
p666
aV2017-05-16 | RT @VikingKing6: @Bamabroker $QQQ volatility over the past 3 months is less than 7% annualized.  Beta under 1.0 in relation to SPY.  Slow,\u2026
p667
aV2017-05-16 | #Instant #Apple Unlocking $0.99 Cent All #iPhone FOR 3GS 4 4S 5 5C 5S 6 6+ #unlockfusion #icloud #freeunlock #factoryunlock $AAPL #unlock
p668
aV2017-05-16 | RT @Convertbond: Since March 1  FANG Stocks: +$270B Rest of the S&amp;P 500: -$260B  Via @KaiPflughaupt   $FB $AAPL $AMZN $NFLX  $GOOG
p669
aV2017-05-16 | RT @Convertbond: Since March 1  FANG Stocks: +$270B Rest of the S&amp;P 500: -$260B  Via @KaiPflughaupt   $FB $AAPL $AMZN $NFLX  $GOOG
p670
aV2017-05-16 | #Instant #Apple Unlocking $0.99 Cent All #iPhone FOR 3GS 4 4S 5 5C 5S 6 6+ #unlockfusion #icloud #freeunlock #factoryunlock $AAPL #unlock
p671
aV2017-05-16 | Learn why Mobile Technology #Investing is a winning Proposition as $AAPL Valuation breaks $800bn  &gt;&gt;&gt;\u2026 https://t.co/7TXcRdc0RA
p672
aV2017-05-16 | $AAPL #patent 9,652,782: Interaction-aware advertising for minimizing banner bl... https://t.co/bwRbH7cfXN #tech #IP https://t.co/6vBgPQnrA5
p673
aV2017-05-16 | RT @StocksByPaige: $AAPL may release new macbooks this summer.   #Apple #Microsoft #stocks #WWDC17  https://t.co/yo7n9JFSyO
p674
aV2017-05-16 | 'Thank God for Apple' and other tech stocks \u2014 they're propping up the market. $AAPL $FB $AMZN https://t.co/AgkJYXAwhF
p675
aV2017-05-16 | Market Commentary For Wednesday, May 17 - $TJX, $DVA, $WB, $TSLA, $JACK, $BABA, $PLCE, $APC, $AAPL, $HD, $BIDU, $DKS https://t.co/XroszHyXLD
p676
aV2017-05-16 | RT @YahooFinance: LIVE: Upcoming Apple Watch to include game-changing health features - https://t.co/Y5DybRNK9M $AAPL https://t.co/rLMDPqez\u2026
p677
aV2017-05-16 | Apple: Calling A Top? $AAPL https://t.co/0qzaaX142H
p678
aV2017-05-16 | RT @sniiper_trader: $AAPL $ABX $AMD $AMX $BAC $CCJ $CS $MS $MU $NFLX $NOK $RBS $VRTX $X $SPY $AMZN $MSFT $TWTR $GOOGL $INTC $CLF $X $AKS $R\u2026
p679
aV2017-05-16 | $AAPL Never Dull! Projection vs TodayActual. Stats on site. 100% fees to charity. https://t.co/cn6BBnXWeF
p680
aV2017-05-16 | RT @Yusuf_11: Apple's @AngelaAhrendts  interview with @danroth , Great insight ! $Aapl #apple https://t.co/2Wkh0Ix4Rl
p681
aV2017-05-16 | @Apple wants to Get in Bed with You! Seriously! Silently buys sleep tracking company @beddit $AAPL [VIDEO] https://t.co/Yz0jBQqMWl
p682
aV2017-05-16 | @Bamabroker $QQQ volatility over the past 3 months is less than 7% annualized.  Beta under 1.0 in relation to SPY.\u2026 https://t.co/blP6MbClCj
p683
aV2017-05-16 | Apple's @AngelaAhrendts  interview with @danroth , Great insight ! $Aapl #apple https://t.co/2Wkh0Ix4Rl
p684
aV2017-05-16 | RT @MacHashNews: Apple Likely to Introduce a MacBook Pro Refresh at WWDC with a 32GB Option that Pro's have\u2026 https://t.co/hFmu4DegLl #Paten\u2026
p685
aV2017-05-16 | Apple Likely to Introduce a MacBook Pro Refresh at WWDC with a 32GB Option that Pro's have\u2026 https://t.co/hFmu4DegLl\u2026 https://t.co/kVEzFxRccs
p686
aV2017-05-16 | RT @market_fox: How $AAPL, $GOOGL, $AMZN $MSFT &amp; $FB make their money: https://t.co/5XO8rSmo6Z https://t.co/kcqZHNYtp3
p687
aV2017-05-16 | RT @OptionAlert: Largest open interest increases among single stock options for 5/16 include $AAPL, $SNAP, $NVDA, $P, and $AMD.
p688
aV2017-05-16 | RT @payemarkets: $AAPL may release new macbooks this summer.   #Apple #Microsoft #stocks #WWDC17  https://t.co/93UZ2fW7nx https://t.co/xz6v\u2026
p689
asI7
(lp690
V2017-05-15 | RT @MarketSmith: RT @jfahmy: WEEKEND VIDEO: 5/14/17 https://t.co/xZVh49vHJx $SPY $QQQ $IWM $DIA $AAPL $AMZN $WDC
p691
aV2017-05-15 | #GoogleAssistant coming to #iOS as a standalone app. Would you rather prefer #Siri on #Apple's #iPhone? $AAPL $GOOG  https://t.co/4ljIOxI8dN
p692
aV2017-05-15 | RT @MarketSmith: RT @jfahmy: WEEKEND VIDEO: 5/14/17 https://t.co/xZVh49vHJx $SPY $QQQ $IWM $DIA $AAPL $AMZN $WDC
p693
aV2017-05-15 | RT @SJosephBurns: Having a bad day? In 1976 Ron Wayne sold his 10% stake in $AAPL for $800. It's worth over $81 billion today @Hedgeye http\u2026
p694
aV2017-05-15 | RT @MarketSmith: RT @jfahmy: WEEKEND VIDEO: 5/14/17 https://t.co/xZVh49vHJx $SPY $QQQ $IWM $DIA $AAPL $AMZN $WDC
p695
aV2017-05-15 | RT @jfahmy: WEEKEND VIDEO: 5/14/17 https://t.co/xZVh49vHJx $SPY $QQQ $IWM $DIA $AAPL $AMZN $WDC
p696
aV2017-05-15 | RT @jfahmy: WEEKEND VIDEO: 5/14/17 https://t.co/MiQ8QNxsvf $SPY $QQQ $IWM $DIA $AAPL $AMZN $WDC
p697
aV2017-05-15 | RT @NaviAvatar1: Dow up 85, $AAPL $SNAP $TWTR $NVDA $AMZN $FB $SPY $LABU https://t.co/dvRfKVLKoS
p698
aV2017-05-15 | Berkshire boosts Apple stake, exits Twenty-First ... $BRK.A $BRK.B $AAPL $IBM $AAL $LUV $FOXA $DAL $BK $SIRI https://t.co/debhBfiuI2
p699
aV2017-05-15 | Apple\u2019s $AAPL Buy Rating Reaffirmed at Bank of America Corp https://t.co/1yNfYGn2nn
p700
aV2017-05-15 | Join @RobinhoodApp and we'll both get a share of stock like $AAPL, $F, or $S for free. Make sure to use my link.  https://t.co/dRnUeoFTaG
p701
aV2017-05-15 | RT @theflynews: Greenlight takes stake in Perrigo, lowers stake in Apple $PRGO $CNDT $MU $AGR $YELP $GM $CNX $SYT $TWX $AAPL $RAD\u2026 https://\u2026
p702
aV2017-05-15 | RT @theflynews: Berkshire Hathaway adds to Apple stake, exits 21st Century Fox $FOXA $AAPL $BK $LUV $SIRI $IBM $DAL $WBC $KHC $WFC\u2026 https:/\u2026
p703
aV2017-05-15 | RT @theflynews: REPORT: Apple met with ex-HBO exec amid search for video chief: https://t.co/izjP6b46l5 $AAPL $TWX
p704
aV2017-05-15 | Apple Invests $200 Million In U.S. smartphone glassmaker Corning $AAPL https://t.co/m5tynAcFSx #Wallst
p705
aV2017-05-15 | Apple\u2019s $AAPL Buy Rating Reaffirmed at Bank of America Corp https://t.co/xD16zy3rZ4 #stocks
p706
aV2017-05-15 | See It: Hedge Fund Dumps Massive Blocks Of $AAPL, $IBM, $WDC, $STX AndAdditional https://t.co/81gdet1Rb7
p707
aV2017-05-15 | Report: Apple Inc. Prepping "Siri Smart Speaker" -- The Motley Fool $AAPL https://t.co/SapmD3SBKe
p708
aV2017-05-15 | $AAPL Some Silicon Valley techies obsessively track their blood sugar -- and they... https://t.co/dTq7Np26qf
p709
aV2017-05-15 | That triple bottom long on $TWTR &lt;3 $NFLX $FB $AAPL $TSLA $GOOG $AMZN $SNAP $FB Todays Trades https://t.co/GCQPBtZZqv
p710
aV2017-05-15 | $DXCM $MDT $GOOGL $AAPL:  Some Silicon Valley techies are now obsessively tracking their \u2026:  https://t.co/O6AA7Ri1uN
p711
aV2017-05-15 | $AAPL basically has two giant share buybacks. The regular one and @WarrenBuffett. Stock should rally to 180-200 within a yr. No downside.
p712
aV2017-05-15 | $AAPL maturity 05/19/2017 Vol PutCallRatio of 0.39 puts=59,180 calls=149,877 . https://t.co/lR1w76NnVu https://t.co/QU1vGVv2Tq
p713
aV2017-05-15 | Dow up 85, $AAPL $SNAP $TWTR $NVDA $AMZN $FB $SPY $LABU https://t.co/dvRfKVLKoS
p714
aV2017-05-15 | @WarrenBuffett increasing $AAPL stake is a great validation of our long thesis. Owned shares for 5+ yrs and added calls on dips many times.
p715
aV2017-05-15 | RT @HedgeMind: $AAPL Buffett still not done buying; doubled stake again to 129M shs. $AAPL has become his 3rd largest holding, worth ~$20B\u2026
p716
aV2017-05-15 | RT @theinformation: Updated: Apple seeking head of programming. Meeting with fmr HBO Michael Lombardo about programming. $AAPL https://t.co\u2026
p717
aV2017-05-15 | RT @cjjords: Doesn't fly without a solid connection to mobile.  I'll take the over (on 50%) all day RE: $AAPL #smarthome device  https://t.\u2026
p718
aV2017-05-15 | Rumor: Apple Watch may get glucose monitoring feature, \u2018smart' bands https://t.co/JscrJCMjga #AppleWorldToday $AAPL https://t.co/29LhNvraaY
p719
aV2017-05-15 | This Apple Inc. Watch Competitor Totally Failed @themotleyfool #stocks $AAPL, $AMZN https://t.co/Gx7Qbw43G8
p720
aV2017-05-15 | Report: Apple Inc. Prepping "Siri Smart Speaker" @themotleyfool #stocks $AAPL, $AMZN https://t.co/96X3Oa9ih0
p721
aV2017-05-15 | 3 Companies Apple Inc. Won't Buy @themotleyfool #stocks $AAPL, $NFLX, $EA, $TTWO, $ATVI https://t.co/eLbAMURokm
p722
aV2017-05-15 | Why You Won't Be Able to Buy an Apple Inc. iPhone 8 With 32GB of Storage @themotleyfool #stocks $AAPL https://t.co/V3s9Sw2z6V
p723
aV2017-05-15 | RT @coinspice: https://t.co/gXYW06qHA8  #Trading with #Bitcoin  @elixiumbitcoin #Forex #Stocks $ES $CL $GC $GOOG $AAPL $TSLA $SPY $QQQ #Blo\u2026
p724
aV2017-05-15 | Report: Apple Inc. Could Launch New 10.5-Inch iPad at WWDC @themotleyfool #stocks $AAPL https://t.co/1R5NJ46Tqt
p725
aV2017-05-15 | RT @SJosephBurns: Having a bad day? In 1976 Ron Wayne sold his 10% stake in $AAPL for $800. It's worth over $81 billion today @Hedgeye http\u2026
p726
aV2017-05-15 | Apple\u2019s $AAPL Buy Rating Reaffirmed at Bank of America Corp https://t.co/B6gNy8Oeb9
p727
aV2017-05-15 | RT @ZolmaxNews: Apple Inc. $AAPL Receives \u201cBuy\u201d Rating from Goldman Sachs Group Inc https://t.co/GaptTSZSJr
p728
aV2017-05-15 | RT @DanTsataros: #WarrenBuffet buys more $aapl https://t.co/21EBVmd4ma
p729
aV2017-05-15 | Apple Inc. $AAPL Receives \u201cBuy\u201d Rating from Goldman Sachs Group Inc https://t.co/GaptTSZSJr
p730
aV2017-05-15 | #WarrenBuffet buys more $aapl https://t.co/21EBVmd4ma
p731
aV2017-05-15 | RT @Moonlight_668: Purple, 3 months view: $TCEHY $AMOV $AMX $BABA $AAPL $TSLA $FMX $NFLX $TWTR $FB $SAP $BUD $CRM $PM $VALE $VELP $TRIP $PB\u2026
p732
aV2017-05-15 | RT @zerofiltertruth: With decent trends &amp; #KKR now involved - Possible $P upgrades in AM   It's pennies for $FB &amp; they need #AI music like\u2026
p733
aV2017-05-15 | RT @The_Real_Fly: Hedge Fund Titans Reveal Their Latest Moronic Moves - Dr. Fly $AAPL $CNDT $SNAP https://t.co/fP3nHZOtdo
p734
aV2017-05-15 | RT @YahooFinance: Apple might buy a big company but not the ones you think @JPManga https://t.co/2qptd2w5a8 $AAPL https://t.co/HtTBUxD5m7
p735
aV2017-05-15 | RT @TheTruthStudio: CNBC: TipRanks shows AAPL just got its most bullish forecast https://t.co/kiwVBqQD0d #technology $AAPL https://t.co/9kC\u2026
p736
aV2017-05-15 | Hedge Fund Titans Reveal Their Latest Moronic Moves - Dr. Fly $AAPL $CNDT $SNAP https://t.co/fP3nHZOtdo
p737
aV2017-05-15 | RT @YahooFinance: Apple might buy a big company but not the ones you think @JPManga https://t.co/2qptd2w5a8 $AAPL https://t.co/HtTBUxD5m7
p738
aV2017-05-15 | RT @SJosephBurns: Having a bad day? In 1976 Ron Wayne sold his 10% stake in $AAPL for $800. It's worth over $81 billion today @Hedgeye http\u2026
p739
aV2017-05-15 | RT @OphirGottlieb: $AAPL Profiting, methodically, from Apple options https://t.co/KDTcqmlXXD https://t.co/Cn4HgUjIrA
p740
aV2017-05-15 | VIDEO $XLK $AAPL $FB Technical Analysis Chart 5.15.2017 https://t.co/XogAxIgZWU #markets #NASDAQ #NYSE #technicalanalysis #daytrader
p741
aV2017-05-15 | RT @rimisback: Let's see who can help fight Cyber Warfare, need of the hour $BBRY $AAPL $MSFT $GOOGL  $AMZN  @Apple @google @amazon @Micros\u2026
p742
aV2017-05-15 | #Stocks #Traders LEARN The 6 Individual Components of the #Ihcimoku Cloud using $AAPL Chart &gt;&gt; #Trading Help &gt;&gt;&gt;\u2026 https://t.co/NiEhCTVGzJ
p743
aV2017-05-15 | #Stocks #Traders LEARN The 6 Individual Components of the #Ihcimoku Cloud using $AAPL Chart &gt;&gt; #Trading Help &gt;&gt;&gt;\u2026 https://t.co/znZPtbYoEy
p744
aV2017-05-15 | #Stocks #Traders LEARN The 6 Individual Components of the #Ihcimoku Cloud using $AAPL Chart &gt;&gt; #Trading Help &gt;&gt;&gt;\u2026 https://t.co/wp7VJB8FNJ
p745
aV2017-05-15 | #Stocks #Traders LEARN The 6 Individual Components of the #Ihcimoku Cloud using $AAPL Chart &gt;&gt; #Trading Help &gt;&gt;&gt;\u2026 https://t.co/GTp4ToYuLT
p746
aV2017-05-15 | #Stocks #Traders LEARN The 6 Individual Components of the #Ihcimoku Cloud using $AAPL Chart &gt;&gt; #Trading Help &gt;&gt;&gt;\u2026 https://t.co/n0pcOQswdw
p747
aV2017-05-15 | RT @OphirGottlieb: $AAPL Profiting, methodically, from Apple options https://t.co/KDTcqmlXXD https://t.co/Cn4HgUjIrA
p748
aV2017-05-15 | @BullionBaron Sound like my story. Sold $AAPL at $30.
p749
aV2017-05-15 | RT @resx18: $AAPL - Einhorn's Greenlight Capital Cuts Apple Stake, Confirms Perrigo Position https://t.co/le2Gm10VHs
p750
aV2017-05-15 | RT @RaviRomo: Hedgies who sold $AAPL in 1stQ--did NOT KNOW Buffett was tripling his position  With$AAPL's soaring performance, ALL WILL HAV\u2026
p751
aV2017-05-15 | RT @SJosephBurns: Having a bad day? In 1976 Ron Wayne sold his 10% stake in $AAPL for $800. It's worth over $81 billion today @Hedgeye http\u2026
p752
aV2017-05-15 | RT @HedgeMind: $AAPL This has to be big news: Buffett finally stepped buying big. He raised AAPL stake to 57mln shs from previous 15mln shs\u2026
p753
aV2017-05-15 | https://t.co/swYOtYeEnC Timothy Sykes can teach you How To Use The Short Trap Strategy $AAPL $AVGO $SPY
p754
aV2017-05-15 | RT @TheTruthStudio: CNBC: TipRanks shows AAPL just got its most bullish forecast https://t.co/kiwVBqQD0d #technology $AAPL https://t.co/9kC\u2026
p755
aV2017-05-15 | RT @davemcclure: Chart: How Top 5 Tech Giants Make Their Billions https://t.co/DnYCQ7uWRe by @VisualCap $AAPL $GOOG $MSFT $AMZN $FB cc @500\u2026
p756
aV2017-05-15 | $ Flows: Buying on Weakness: Among stocks that were \u2b07\ufe0fMON, these have the largest net INFLOWS of money: $AAPL $CERN\u2026 https://t.co/C8TXEqTul6
p757
aV2017-05-15 | Berkshire boosts Apple stake, exits Twenty-First ... $BRK.A $BRK.B $AAPL $IBM $AAL $LUV $FOXA $DAL $BK $SIRI https://t.co/GH1RSLg00j
p758
aV2017-05-15 | $AAPL, $GOOGL, $AMZN, $FB, $NFLX out of play today, no damage done still set up nicely
p759
aV2017-05-15 | RT @OptionsHawk: Buffett more than doubled $AAPL stake
p760
aV2017-05-15 | New 52 wk high: Apple Computer $AAPL 156.65
p761
aV2017-05-15 | Berkshire boosts $AAPL Apple stake, exits Twenty-First Century Fox in Q1 $BRKA $BRKB $FOXA
p762
aV2017-05-15 | @The_Cdog $aapl buyout of small AI today for $200mm
p763
aV2017-05-15 | $AAPL $GOOG $BABA https://t.co/Zv6PcRTwHK
p764
aV2017-05-15 | RT @OptionsMike: $AAPL BERKSHIRE RAISES SHARE STAKE IN APPLE INC TO 129.4 MLN SHARES FROM 57.4 MLN SHARES. But latest public info has it at\u2026
p765
aV2017-05-15 | RT @OphirGottlieb: $AAPL Profiting, methodically, from Apple options https://t.co/KDTcqmlXXD https://t.co/Cn4HgUjIrA
p766
aV2017-05-15 | RT @DeItaOne: Berkshire Hathaway: -Top exits: $FOXA -Boosted stakes in $AAPL, $BK, $LUV, $SIRI, $AAL -Cut stakes in $IBM, $DAL, $WBC
p767
aV2017-05-15 | RT @YahooFinance: Apple might buy a big company but not the ones you think @JPManga https://t.co/2qptd2w5a8 $AAPL https://t.co/HtTBUxD5m7
p768
aV2017-05-15 | $AAPL BERKSHIRE RAISES SHARE STAKE IN APPLE INC TO 129.4 MLN SHARES FROM 57.4 MLN SHARES. But latest public info has it at 133MM
p769
aV2017-05-15 | Time For A Refill - Market Update by Vince Vora for May 15th, 2017 #stocks $AAPL $AMZN $NFLX $GOOGL $TSLA... https://t.co/uawqm5lk9W
p770
aV2017-05-15 | RT @TheTruthStudio: CNBC: TipRanks shows AAPL just got its most bullish forecast https://t.co/kiwVBqQD0d #technology $AAPL https://t.co/9kC\u2026
p771
aV2017-05-15 | $AAPL Profiting, methodically, from Apple options https://t.co/KDTcqmlXXD https://t.co/Cn4HgUjIrA
p772
aV2017-05-15 | RT @DeItaOne: BERKSHIRE HATHAWAY INC RAISES SHARE STAKE IN APPLE INC TO 129.4 MLN SHARES FROM 57.4 MLN SHARES- SEC FILING $AAPL
p773
aV2017-05-15 | RT @TheTruthStudio: CNBC: TipRanks shows AAPL just got its most bullish forecast https://t.co/kiwVBqQD0d #technology $AAPL https://t.co/9kC\u2026
p774
aV2017-05-15 | RT @TheTruthStudio: CNBC: TipRanks shows AAPL just got its most bullish forecast https://t.co/kiwVBqQD0d #technology $AAPL https://t.co/9kC\u2026
p775
aV2017-05-15 | CNBC: TipRanks shows AAPL just got its most bullish forecast https://t.co/kiwVBqQD0d #technology $AAPL https://t.co/9kCzxMJpV4
p776
aV2017-05-15 | RT @SJosephBurns: Having a bad day? In 1976 Ron Wayne sold his 10% stake in $AAPL for $800. It's worth over $81 billion today @Hedgeye http\u2026
p777
aV2017-05-15 | This chart makes Apple, Facebook and Alphabet look like one-trick ponies https://t.co/nnOhT6zgSI $AAPL $FB $GOOGL $MSFT $AMZN
p778
aV2017-05-15 | $AAPL Projection vs TodayActual. Stats on site. 100% fees to charity. Tested highs https://t.co/DOchxwxp0M
p779
aV2017-05-15 | RT @StockTwits: Here's how fast Apple, Google, Amazon, and Facebook are growing revenue.  $AAPL, $GOOGL, $AMZN, $FB: https://t.co/NMJpQndj7\u2026
p780
aV2017-05-15 | Warren Buffett's Berkshire is betting more on banks and airlines https://t.co/qT9tnksZ2r $DAL $LUV $AAL $BK $AAPL $IBM $FOXA $BRK.A $BRK.B
p781
aV2017-05-15 | This buying -- from big investors who sold in Q1-- is underway and will boost $AAPL,much much higher  "Tis the seas\u2026 https://t.co/VxrnfbjVXh
p782
aV2017-05-15 | Should $AAPL acquire $GPRO ? It would be getting it for a bargain after all. #M&amp;A
p783
aV2017-05-15 | RT @SJosephBurns: Having a bad day? In 1976 Ron Wayne sold his 10% stake in $AAPL for $800. It's worth over $81 billion today @Hedgeye http\u2026
p784
aV2017-05-15 | Should $AAPL acquire $GPRO ? It would be getting it for a bargain after all. #M&amp;A
p785
aV2017-05-15 | RT @YahooFinance: Apple might buy a big company but not the ones you think @JPManga https://t.co/2qptd2w5a8 $AAPL https://t.co/HtTBUxD5m7
p786
aV2017-05-15 | $AAPL - Einhorn's Greenlight Capital Cuts Apple Stake, Confirms Perrigo Position https://t.co/VNrAmlGMVO
p787
aV2017-05-15 | $AAPL - Einhorn's Greenlight Capital Cuts Apple Stake, Confirms Perrigo Position https://t.co/1I7ajzaHTe
p788
aV2017-05-15 | $AAPL - Einhorn's Greenlight Capital Cuts Apple Stake, Confirms Perrigo Position https://t.co/AuCoLpjLN8
p789
aV2017-05-15 | $AAPL - Einhorn's Greenlight Capital Cuts Apple Stake, Confirms Perrigo Position https://t.co/le2Gm10VHs
p790
asI8
(lp791
sI9
(lp792
sI10
(lp793
sI11
(lp794
sI12
(lp795
sI13
(lp796
sI14
(lp797
sI15
(lp798
sI16
(lp799
sI17
(lp800
sI18
(lp801
s.