(dp0
I0
(lp1
V2017-04-06 | RT @philstockworld: Free Money Thursday - Draghi Says No to Tapering $QQQ $SPX $DIA $SPY $AAPL $AMZN $TSLA $GOOGL https://t.co/DqmpQKMeF8
p2
aV2017-04-06 | RT @philstockworld: Free Money Thursday - Draghi Says No to Tapering $QQQ $SPX $DIA $SPY $AAPL $AMZN $TSLA $GOOGL https://t.co/DqmpQKMeF8
p3
aV2017-04-06 | RT @philstockworld: Free Money Thursday - Draghi Says No to Tapering $QQQ $SPX $DIA $SPY $AAPL $AMZN $TSLA $GOOGL https://t.co/DqmpQKMeF8
p4
aV2017-04-06 | RT @philstockworld: Free Money Thursday - Draghi Says No to Tapering $QQQ $SPX $DIA $SPY $AAPL $AMZN $TSLA $GOOGL https://t.co/DqmpQKMeF8
p5
aV2017-04-06 | RT @philstockworld: Free Money Thursday - Draghi Says No to Tapering $QQQ $SPX $DIA $SPY $AAPL $AMZN $TSLA $GOOGL https://t.co/DqmpQKMeF8
p6
aV2017-04-06 | RT @philstockworld: Free Money Thursday - Draghi Says No to Tapering $QQQ $SPX $DIA $SPY $AAPL $AMZN $TSLA $GOOGL https://t.co/DqmpQKMeF8
p7
aV2017-04-06 | RT @philstockworld: Free Money Thursday - Draghi Says No to Tapering $QQQ $SPX $DIA $SPY $AAPL $AMZN $TSLA $GOOGL https://t.co/DqmpQKMeF8
p8
aV2017-04-06 | RT @philstockworld: Free Money Thursday - Draghi Says No to Tapering $QQQ $SPX $DIA $SPY $AAPL $AMZN $TSLA $GOOGL https://t.co/DqmpQKMeF8
p9
aV2017-04-06 | RT @philstockworld: Free Money Thursday - Draghi Says No to Tapering $QQQ $SPX $DIA $SPY $AAPL $AMZN $TSLA $GOOGL https://t.co/DqmpQKMeF8
p10
aV2017-04-06 | RT @philstockworld: Free Money Thursday - Draghi Says No to Tapering $QQQ $SPX $DIA $SPY $AAPL $AMZN $TSLA $GOOGL https://t.co/DqmpQKMeF8
p11
aV2017-04-06 | @Vuzix I think $aapl @Apple recognizes the long term #AR threat of $vuzi #m3000 &amp; #blade3000. They know good inputs. https://t.co/78zptjCnkK
p12
aV2017-04-06 | RT @philstockworld: Free Money Thursday - Draghi Says No to Tapering $QQQ $SPX $DIA $SPY $AAPL $AMZN $TSLA $GOOGL https://t.co/DqmpQKMeF8
p13
aV2017-04-06 | RT @philstockworld: Free Money Thursday - Draghi Says No to Tapering $QQQ $SPX $DIA $SPY $AAPL $AMZN $TSLA $GOOGL https://t.co/DqmpQKMeF8
p14
aV2017-04-06 | RT @anauburntiger: #WarEagle ! @tim_cook leading $AAPL  #Auburn #auburnfamily #auburnfootball @petenajarian https://t.co/5oPJs0jQOL
p15
aV2017-04-06 | RT @philstockworld: Free Money Thursday - Draghi Says No to Tapering $QQQ $SPX $DIA $SPY $AAPL $AMZN $TSLA $GOOGL https://t.co/DqmpQKMeF8
p16
aV2017-04-06 | #WarEagle ! @tim_cook leading $AAPL  #Auburn #auburnfamily #auburnfootball @petenajarian https://t.co/5oPJs0jQOL
p17
aV2017-04-06 | RT @philstockworld: Free Money Thursday - Draghi Says No to Tapering $QQQ $SPX $DIA $SPY $AAPL $AMZN $TSLA $GOOGL https://t.co/DqmpQKMeF8
p18
aV2017-04-06 | RT @philstockworld: Free Money Thursday - Draghi Says No to Tapering $QQQ $SPX $DIA $SPY $AAPL $AMZN $TSLA $GOOGL https://t.co/DqmpQKMeF8
p19
aV2017-04-06 | RT @philstockworld: Free Money Thursday - Draghi Says No to Tapering $QQQ $SPX $DIA $SPY $AAPL $AMZN $TSLA $GOOGL https://t.co/DqmpQKMeF8
p20
aV2017-04-06 | RT @philstockworld: Free Money Thursday - Draghi Says No to Tapering $QQQ $SPX $DIA $SPY $AAPL $AMZN $TSLA $GOOGL https://t.co/DqmpQKMeF8
p21
aV2017-04-06 | RT @philstockworld: Free Money Thursday - Draghi Says No to Tapering $QQQ $SPX $DIA $SPY $AAPL $AMZN $TSLA $GOOGL https://t.co/DqmpQKMeF8
p22
aV2017-04-06 | RT @philstockworld: Free Money Thursday - Draghi Says No to Tapering $QQQ $SPX $DIA $SPY $AAPL $AMZN $TSLA $GOOGL https://t.co/DqmpQKMeF8
p23
aV2017-04-06 | RT @philstockworld: Free Money Thursday - Draghi Says No to Tapering $QQQ $SPX $DIA $SPY $AAPL $AMZN $TSLA $GOOGL https://t.co/DqmpQKMeF8
p24
aV2017-04-06 | RT @philstockworld: Free Money Thursday - Draghi Says No to Tapering $QQQ $SPX $DIA $SPY $AAPL $AMZN $TSLA $GOOGL https://t.co/DqmpQKMeF8
p25
aV2017-04-06 | RT @philstockworld: Free Money Thursday - Draghi Says No to Tapering $QQQ $SPX $DIA $SPY $AAPL $AMZN $TSLA $GOOGL https://t.co/DqmpQKMeF8
p26
aV2017-04-06 | RT @philstockworld: Free Money Thursday - Draghi Says No to Tapering $QQQ $SPX $DIA $SPY $AAPL $AMZN $TSLA $GOOGL https://t.co/DqmpQKMeF8
p27
aV2017-04-06 | RT @WallStJesus: \U0001f525 TODAY'S ACTIVE FLOW &gt;&gt; $AMD $AAPL $AMZN $TSLA $FB $NVDA $JPM $CMCSA $TWTR $KMX $CHK $MU $CHK $MSFT $MBI $RAD $X $C $BABA\u2026
p28
aV2017-04-06 | RT @philstockworld: Free Money Thursday - Draghi Says No to Tapering $QQQ $SPX $DIA $SPY $AAPL $AMZN $TSLA $GOOGL https://t.co/DqmpQKMeF8
p29
aV2017-04-06 | RT @philstockworld: Free Money Thursday - Draghi Says No to Tapering $QQQ $SPX $DIA $SPY $AAPL $AMZN $TSLA $GOOGL https://t.co/DqmpQKMeF8
p30
aV2017-04-06 | RT @philstockworld: Free Money Thursday - Draghi Says No to Tapering $QQQ $SPX $DIA $SPY $AAPL $AMZN $TSLA $GOOGL https://t.co/DqmpQKMeF8
p31
aV2017-04-06 | RT @philstockworld: Free Money Thursday - Draghi Says No to Tapering $QQQ $SPX $DIA $SPY $AAPL $AMZN $TSLA $GOOGL https://t.co/DqmpQKMeF8
p32
aV2017-04-06 | RT @philstockworld: Free Money Thursday - Draghi Says No to Tapering $QQQ $SPX $DIA $SPY $AAPL $AMZN $TSLA $GOOGL https://t.co/DqmpQKMeF8
p33
aV2017-04-06 | RT @philstockworld: Free Money Thursday - Draghi Says No to Tapering $QQQ $SPX $DIA $SPY $AAPL $AMZN $TSLA $GOOGL https://t.co/DqmpQKMeF8
p34
aV2017-04-06 | Trading Tip of the Week 4/5/17 https://t.co/UOzw4HvsyP #Trading #Stocks #Options #Success $AAPL $FB $AMZN $TWTR $BIDU $GM $GS $DUST $GUSH
p35
aV2017-04-06 | RT @philstockworld: Free Money Thursday - Draghi Says No to Tapering $QQQ $SPX $DIA $SPY $AAPL $AMZN $TSLA $GOOGL https://t.co/DqmpQKMeF8
p36
aV2017-04-06 | RT @philstockworld: Free Money Thursday - Draghi Says No to Tapering $QQQ $SPX $DIA $SPY $AAPL $AMZN $TSLA $GOOGL https://t.co/DqmpQKMeF8
p37
aV2017-04-06 | RT @philstockworld: Free Money Thursday - Draghi Says No to Tapering $QQQ $SPX $DIA $SPY $AAPL $AMZN $TSLA $GOOGL https://t.co/DqmpQKMeF8
p38
aV2017-04-06 | RT @MacHashNews: Malwarebytes: New iOS \u2018malvertising' pushes \u2018free' VPN app https://t.co/yMXrLQiA6I #AppleWorldToday $AAPL https://t.co/AQR\u2026
p39
aV2017-04-06 | RT @philstockworld: Free Money Thursday - Draghi Says No to Tapering $QQQ $SPX $DIA $SPY $AAPL $AMZN $TSLA $GOOGL https://t.co/DqmpQKMeF8
p40
aV2017-04-06 | RT @philstockworld: Free Money Thursday - Draghi Says No to Tapering $QQQ $SPX $DIA $SPY $AAPL $AMZN $TSLA $GOOGL https://t.co/DqmpQKMeF8
p41
aV2017-04-06 | Malwarebytes: New iOS \u2018malvertising' pushes \u2018free' VPN app https://t.co/yMXrLQiA6I #AppleWorldToday $AAPL https://t.co/AQRpOsXI3N
p42
aV2017-04-06 | RT @philstockworld: Free Money Thursday - Draghi Says No to Tapering $QQQ $SPX $DIA $SPY $AAPL $AMZN $TSLA $GOOGL https://t.co/DqmpQKMeF8
p43
aV2017-04-06 | RT @Ascend_Trading: #PreMarket Live is on!  https://t.co/XPOUXYUC5I $FB $TWTR $AAPL $AMZN $SPY $SCON  $TENX $NVFY streaming with Restream.io
p44
aV2017-04-06 | RT @philstockworld: Free Money Thursday - Draghi Says No to Tapering $QQQ $SPX $DIA $SPY $AAPL $AMZN $TSLA $GOOGL https://t.co/DqmpQKMeF8
p45
aV2017-04-06 | RT @philstockworld: Free Money Thursday - Draghi Says No to Tapering $QQQ $SPX $DIA $SPY $AAPL $AMZN $TSLA $GOOGL https://t.co/DqmpQKMeF8
p46
aV2017-04-06 | RT @BarrySchwartzBW: Apple has reduced its share count by 20% in just four years. So far all those buybacks have created value. $AAPL
p47
aV2017-04-06 | RT @philstockworld: Free Money Thursday - Draghi Says No to Tapering $QQQ $SPX $DIA $SPY $AAPL $AMZN $TSLA $GOOGL https://t.co/DqmpQKMeF8
p48
aV2017-04-06 | RT @philstockworld: Free Money Thursday - Draghi Says No to Tapering $QQQ $SPX $DIA $SPY $AAPL $AMZN $TSLA $GOOGL https://t.co/DqmpQKMeF8
p49
aV2017-04-06 | RT @philstockworld: Free Money Thursday - Draghi Says No to Tapering $QQQ $SPX $DIA $SPY $AAPL $AMZN $TSLA $GOOGL https://t.co/DqmpQKMeF8
p50
aV2017-04-06 | RT @philstockworld: Free Money Thursday - Draghi Says No to Tapering $QQQ $SPX $DIA $SPY $AAPL $AMZN $TSLA $GOOGL https://t.co/DqmpQKMeF8
p51
aV2017-04-06 | RT @philstockworld: Free Money Thursday - Draghi Says No to Tapering $QQQ $SPX $DIA $SPY $AAPL $AMZN $TSLA $GOOGL https://t.co/DqmpQKMeF8
p52
aV2017-04-06 | RT @philstockworld: Free Money Thursday - Draghi Says No to Tapering $QQQ $SPX $DIA $SPY $AAPL $AMZN $TSLA $GOOGL https://t.co/DqmpQKMeF8
p53
aV2017-04-06 | RT @philstockworld: Free Money Thursday - Draghi Says No to Tapering $QQQ $SPX $DIA $SPY $AAPL $AMZN $TSLA $GOOGL https://t.co/DqmpQKMeF8
p54
aV2017-04-06 | @jimcramer Sounds like you are comparing these two to $AAPL #owndonttrade
p55
aV2017-04-06 | RT @MacHashNews: Is this the graphics card for the future Mac Pro? https://t.co/PurpogyUuc #Macworld $AAPL https://t.co/kvoiP1kARA
p56
aV2017-04-06 | RT @philstockworld: Free Money Thursday - Draghi Says No to Tapering $QQQ $SPX $DIA $SPY $AAPL $AMZN $TSLA $GOOGL https://t.co/DqmpQKMeF8
p57
aV2017-04-06 | RT @philstockworld: Free Money Thursday - Draghi Says No to Tapering $QQQ $SPX $DIA $SPY $AAPL $AMZN $TSLA $GOOGL https://t.co/DqmpQKMeF8
p58
aV2017-04-06 | RT @philstockworld: Free Money Thursday - Draghi Says No to Tapering $QQQ $SPX $DIA $SPY $AAPL $AMZN $TSLA $GOOGL https://t.co/DqmpQKMeF8
p59
aV2017-04-06 | RT @philstockworld: Free Money Thursday - Draghi Says No to Tapering $QQQ $SPX $DIA $SPY $AAPL $AMZN $TSLA $GOOGL https://t.co/DqmpQKMeF8
p60
aV2017-04-06 | RT @philstockworld: Free Money Thursday - Draghi Says No to Tapering $QQQ $SPX $DIA $SPY $AAPL $AMZN $TSLA $GOOGL https://t.co/DqmpQKMeF8
p61
aV2017-04-06 | RT @philstockworld: Free Money Thursday - Draghi Says No to Tapering $QQQ $SPX $DIA $SPY $AAPL $AMZN $TSLA $GOOGL https://t.co/DqmpQKMeF8
p62
aV2017-04-06 | RT @theflynews: REPORT: Apple develops video app in response to social media competitors: https://t.co/ykwcXWtbd9 $AAPL $FB $SNAP
p63
aV2017-04-06 | RT @racernic: Update on this wk's 8Iron condors: 7.5/8wins 4mmbrs (1ccs -.08/-.1 but noted to close flat yest $SPX $RUT $SPY $QQQ $IWM $AAP\u2026
p64
aV2017-04-06 | https://t.co/B24oQV42ds 4 FREE #txt &amp; email #stock alerts! $TWTR $SPY $AMZN $ICNB $PLUG $BTC $TSLA $AAPL $QQQ $MMEX\u2026 https://t.co/cFO0gWSvAg
p65
aV2017-04-06 | RT @Investing_Books: Options Trading For Beginners: How To Get Rich With Stock Options Trading: https://t.co/YvhmFGWIBg #trading #options $\u2026
p66
aV2017-04-06 | RT @TheStreet: The release would be the tech titan's Apple Watch Series 3 https://t.co/ePfwNOafWV $AAPL
p67
aV2017-04-06 | RT @philstockworld: Free Money Thursday - Draghi Says No to Tapering $QQQ $SPX $DIA $SPY $AAPL $AMZN $TSLA $GOOGL https://t.co/DqmpQKMeF8
p68
aV2017-04-06 | RT @philstockworld: Free Money Thursday - Draghi Says No to Tapering $QQQ $SPX $DIA $SPY $AAPL $AMZN $TSLA $GOOGL https://t.co/DqmpQKMeF8
p69
aV2017-04-06 | RT @philstockworld: Free Money Thursday - Draghi Says No to Tapering $QQQ $SPX $DIA $SPY $AAPL $AMZN $TSLA $GOOGL https://t.co/DqmpQKMeF8
p70
aV2017-04-06 | RT @barronsonline: Tech Today: Debating Nvidia, #iPhone Delays? Arista's Good News https://t.co/qY9JKVMpMk $NVDA $NOK $AMD $AAPL $ANET $CSC\u2026
p71
aV2017-04-06 | RT @philstockworld: Free Money Thursday - Draghi Says No to Tapering $QQQ $SPX $DIA $SPY $AAPL $AMZN $TSLA $GOOGL https://t.co/DqmpQKMeF8
p72
aV2017-04-06 | RT @philstockworld: Free Money Thursday - Draghi Says No to Tapering $QQQ $SPX $DIA $SPY $AAPL $AMZN $TSLA $GOOGL https://t.co/DqmpQKMeF8
p73
aV2017-04-06 | iPhone user base expected to be over 1.1B this year. That's double what it was in 2014. $AAPL
p74
aV2017-04-06 | RT @philstockworld: Free Money Thursday - Draghi Says No to Tapering $QQQ $SPX $DIA $SPY $AAPL $AMZN $TSLA $GOOGL https://t.co/DqmpQKMeF8
p75
aV2017-04-06 | RT @philstockworld: Free Money Thursday - Draghi Says No to Tapering $QQQ $SPX $DIA $SPY $AAPL $AMZN $TSLA $GOOGL https://t.co/DqmpQKMeF8
p76
aV2017-04-06 | RT @philstockworld: Free Money Thursday - Draghi Says No to Tapering $QQQ $SPX $DIA $SPY $AAPL $AMZN $TSLA $GOOGL https://t.co/DqmpQKMeF8
p77
aV2017-04-06 | RT @philstockworld: Free Money Thursday - Draghi Says No to Tapering $QQQ $SPX $DIA $SPY $AAPL $AMZN $TSLA $GOOGL https://t.co/DqmpQKMeF8
p78
aV2017-04-06 | RT @philstockworld: Free Money Thursday - Draghi Says No to Tapering $QQQ $SPX $DIA $SPY $AAPL $AMZN $TSLA $GOOGL https://t.co/DqmpQKMeF8
p79
aV2017-04-06 | Options Trading For Beginners: How To Get Rich With Stock Options Trading: https://t.co/YvhmFGWIBg #trading #options $SPY $VIX $SPX $AAPL
p80
aV2017-04-06 | RT @philstockworld: Free Money Thursday - Draghi Says No to Tapering $QQQ $SPX $DIA $SPY $AAPL $AMZN $TSLA $GOOGL https://t.co/DqmpQKMeF8
p81
aV2017-04-06 | Stocks UP, Gold &amp; Bonds DOWN! https://t.co/JtVBGn0N1C #stocks #business #investing #finance #stockmarket #wallstreet #nyse $qqq #cnbc $aapl
p82
aV2017-04-06 | RT @philstockworld: Free Money Thursday - Draghi Says No to Tapering $QQQ $SPX $DIA $SPY $AAPL $AMZN $TSLA $GOOGL https://t.co/DqmpQKMeF8
p83
aV2017-04-06 | RT @philstockworld: Free Money Thursday - Draghi Says No to Tapering $QQQ $SPX $DIA $SPY $AAPL $AMZN $TSLA $GOOGL https://t.co/DqmpQKMeF8
p84
aV2017-04-06 | Is this the graphics card for the future Mac Pro? https://t.co/PurpogyUuc #Macworld $AAPL https://t.co/kvoiP1kARA
p85
aV2017-04-06 | RT @philstockworld: Free Money Thursday - Draghi Says No to Tapering $QQQ $SPX $DIA $SPY $AAPL $AMZN $TSLA $GOOGL https://t.co/DqmpQKMeF8
p86
aV2017-04-06 | RT @scalpthatstock: T3 Live Daily Recap - Markets Steady Despite Trump-Xi Summit Worries  https://t.co/ijY4easxoZ  $SPY $IWM $AMZN $AAPL $F\u2026
p87
aV2017-04-06 | RT @philstockworld: Free Money Thursday - Draghi Says No to Tapering $QQQ $SPX $DIA $SPY $AAPL $AMZN $TSLA $GOOGL https://t.co/DqmpQKMeF8
p88
aV2017-04-06 | RT @philstockworld: Free Money Thursday - Draghi Says No to Tapering $QQQ $SPX $DIA $SPY $AAPL $AMZN $TSLA $GOOGL https://t.co/DqmpQKMeF8
p89
aV2017-04-06 | Apple has reduced its share count by 20% in just four years. So far all those buybacks have created value. $AAPL
p90
aV2017-04-06 | RT @philstockworld: Free Money Thursday - Draghi Says No to Tapering $QQQ $SPX $DIA $SPY $AAPL $AMZN $TSLA $GOOGL https://t.co/DqmpQKMeF8
p91
aV2017-04-06 | RT @philstockworld: Free Money Thursday - Draghi Says No to Tapering $QQQ $SPX $DIA $SPY $AAPL $AMZN $TSLA $GOOGL https://t.co/DqmpQKMeF8
p92
aV2017-04-06 | RT @philstockworld: Free Money Thursday - Draghi Says No to Tapering $QQQ $SPX $DIA $SPY $AAPL $AMZN $TSLA $GOOGL https://t.co/DqmpQKMeF8
p93
aV2017-04-06 | RT @philstockworld: Free Money Thursday - Draghi Says No to Tapering $QQQ $SPX $DIA $SPY $AAPL $AMZN $TSLA $GOOGL https://t.co/DqmpQKMeF8
p94
aV2017-04-06 | $GOOGL $AMZN $ FB $AAPL $TSLA $NFLX $NKE $BIDU $BABA  WAITING for $VIX to pass 20 again BUY when others are fearful! https://t.co/4D5yBS4Jr9
p95
aV2017-04-06 | RT @philstockworld: Free Money Thursday - Draghi Says No to Tapering $QQQ $SPX $DIA $SPY $AAPL $AMZN $TSLA $GOOGL https://t.co/DqmpQKMeF8
p96
aV2017-04-06 | RT @philstockworld: Free Money Thursday - Draghi Says No to Tapering $QQQ $SPX $DIA $SPY $AAPL $AMZN $TSLA $GOOGL https://t.co/DqmpQKMeF8
p97
aV2017-04-06 | RT @philstockworld: Free Money Thursday - Draghi Says No to Tapering $QQQ $SPX $DIA $SPY $AAPL $AMZN $TSLA $GOOGL https://t.co/DqmpQKMeF8
p98
aV2017-04-06 | RT @philstockworld: Free Money Thursday - Draghi Says No to Tapering $QQQ $SPX $DIA $SPY $AAPL $AMZN $TSLA $GOOGL https://t.co/DqmpQKMeF8
p99
aV2017-04-06 | RT @philstockworld: Free Money Thursday - Draghi Says No to Tapering $QQQ $SPX $DIA $SPY $AAPL $AMZN $TSLA $GOOGL https://t.co/DqmpQKMeF8
p100
aV2017-04-06 | RT @philstockworld: Free Money Thursday - Draghi Says No to Tapering $QQQ $SPX $DIA $SPY $AAPL $AMZN $TSLA $GOOGL https://t.co/DqmpQKMeF8
p101
asI1
(lp102
V2017-04-05 | RT @JPDesloges: #Apple  Tested the Resistance of a Daily Trading Range (red) but Uneable to break it yet $AAPL #Trading #investing #markets\u2026
p103
aV2017-04-05 | RT @philstockworld: Will We Hold It Wednesday - High Hopes at 5,440 (Again) $QQQ $SPX $DIA $TASR Also $AAPL https://t.co/6XHV2TPbtt
p104
aV2017-04-05 | #Options #maxpain chart for $AAPL. Free options app https://t.co/VCJp7MA06J https://t.co/QxR0fUqgS2
p105
aV2017-04-05 | RT @philstockworld: Will We Hold It Wednesday - High Hopes at 5,440 (Again) $QQQ $SPX $DIA $TASR Also $AAPL https://t.co/6XHV2TPbtt
p106
aV2017-04-05 | RT @philstockworld: Will We Hold It Wednesday - High Hopes at 5,440 (Again) $QQQ $SPX $DIA $TASR Also $AAPL https://t.co/6XHV2TPbtt
p107
aV2017-04-05 | RT @philstockworld: Will We Hold It Wednesday - High Hopes at 5,440 (Again) $QQQ $SPX $DIA $TASR Also $AAPL https://t.co/6XHV2TPbtt
p108
aV2017-04-05 | Xiaomi Chases Value, Dumps Apple Approach https://t.co/ETz6ViSrjc $AAPL #APPLE $XI
p109
aV2017-04-05 | RT @philstockworld: Will We Hold It Wednesday - High Hopes at 5,440 (Again) $QQQ $SPX $DIA $TASR Also $AAPL https://t.co/6XHV2TPbtt
p110
aV2017-04-05 | RT @philstockworld: Will We Hold It Wednesday - High Hopes at 5,440 (Again) $QQQ $SPX $DIA $TASR Also $AAPL https://t.co/6XHV2TPbtt
p111
aV2017-04-05 | RT @philstockworld: Will We Hold It Wednesday - High Hopes at 5,440 (Again) $QQQ $SPX $DIA $TASR Also $AAPL https://t.co/6XHV2TPbtt
p112
aV2017-04-05 | RT @philstockworld: Will We Hold It Wednesday - High Hopes at 5,440 (Again) $QQQ $SPX $DIA $TASR Also $AAPL https://t.co/6XHV2TPbtt
p113
aV2017-04-05 | $AAPL $COST:  Xiaomi Chases Value, Dumps Apple Approach:  https://t.co/hxibTJwf7O
p114
aV2017-04-05 | RT @philstockworld: Will We Hold It Wednesday - High Hopes at 5,440 (Again) $QQQ $SPX $DIA $TASR Also $AAPL https://t.co/6XHV2TPbtt
p115
aV2017-04-05 | RT @whotrades: Report: Apple Inc.'s Premium OLED iPhone 8 Could Be Delayed https://t.co/P44sOKy9HA $AAPL https://t.co/P96sBZ9jmm
p116
aV2017-04-05 | RT @HedgeStrategy: Our previously tweeted Q2 timeframe trades (for transparency):  $TSLA -301 Apr05 $IBM -174 Apr03 $AAPL -144 Mar28 $AMD +\u2026
p117
aV2017-04-05 | #Apple  Tested the Resistance of a Daily Trading Range (red) but Uneable to break it yet $AAPL #Trading #investing\u2026 https://t.co/wZ40UG1GRY
p118
aV2017-04-05 | RT @philstockworld: Will We Hold It Wednesday - High Hopes at 5,440 (Again) $QQQ $SPX $DIA $TASR Also $AAPL https://t.co/6XHV2TPbtt
p119
aV2017-04-05 | Xiaomi Chases Value, Dumps Apple Approach $AAPL #APPLE $XI https://t.co/sDYwt2oiFQ #Investing #Stocks
p120
aV2017-04-05 | Xiaomi Chases Value, Dumps Apple Approach $AAPL #APPLE $XI https://t.co/4nIjT83CLk #Investing #Stocks
p121
aV2017-04-05 | RT @philstockworld: Will We Hold It Wednesday - High Hopes at 5,440 (Again) $QQQ $SPX $DIA $TASR Also $AAPL https://t.co/6XHV2TPbtt
p122
aV2017-04-05 | Xiaomi Chases Value, Dumps Apple Approach https://t.co/sbYPBwifv0 $AAPL #APPLE $XI
p123
aV2017-04-05 | Xiaomi Chases Value, Dumps Apple Approach https://t.co/tzqYUyJ1zn $AAPL #APPLE $XI
p124
aV2017-04-05 | RT @philstockworld: Will We Hold It Wednesday - High Hopes at 5,440 (Again) $QQQ $SPX $DIA $TASR Also $AAPL https://t.co/6XHV2TPbtt
p125
aV2017-04-05 | RT @philstockworld: Will We Hold It Wednesday - High Hopes at 5,440 (Again) $QQQ $SPX $DIA $TASR Also $AAPL https://t.co/6XHV2TPbtt
p126
aV2017-04-05 | RT @EXPstocktrader: A replay of today in the #StockMarket:  $SPY $AAPL $NVDA $AMZN $TSLA $IBB $XBI #MAGA https://t.co/HTewqZOVLQ
p127
aV2017-04-05 | RT @philstockworld: Will We Hold It Wednesday - High Hopes at 5,440 (Again) $QQQ $SPX $DIA $TASR Also $AAPL https://t.co/6XHV2TPbtt
p128
aV2017-04-05 | RT @philstockworld: Will We Hold It Wednesday - High Hopes at 5,440 (Again) $QQQ $SPX $DIA $TASR Also $AAPL https://t.co/6XHV2TPbtt
p129
aV2017-04-05 | RT @philstockworld: Will We Hold It Wednesday - High Hopes at 5,440 (Again) $QQQ $SPX $DIA $TASR Also $AAPL https://t.co/6XHV2TPbtt
p130
aV2017-04-05 | RT @philstockworld: Will We Hold It Wednesday - High Hopes at 5,440 (Again) $QQQ $SPX $DIA $TASR Also $AAPL https://t.co/6XHV2TPbtt
p131
aV2017-04-05 | RT @philstockworld: Will We Hold It Wednesday - High Hopes at 5,440 (Again) $QQQ $SPX $DIA $TASR Also $AAPL https://t.co/6XHV2TPbtt
p132
aV2017-04-05 | RT @philstockworld: Will We Hold It Wednesday - High Hopes at 5,440 (Again) $QQQ $SPX $DIA $TASR Also $AAPL https://t.co/6XHV2TPbtt
p133
aV2017-04-05 | $AAPL is trending! Here's some analysis https://t.co/fNkN4sAio9 #BloombergBold #NationalWalkingDay https://t.co/Uah1f45OgW
p134
aV2017-04-05 | RT @philstockworld: Will We Hold It Wednesday - High Hopes at 5,440 (Again) $QQQ $SPX $DIA $TASR Also $AAPL https://t.co/6XHV2TPbtt
p135
aV2017-04-05 | $AAPL #Options OI chart. Free stocks app https://t.co/cnRpv2hkbQ https://t.co/RLcUGkDjaK
p136
aV2017-04-05 | RT @Sam_L_Shead: Analysts say the next iPhone probably won't cost $1,000 $AAPL https://t.co/sewyZZUpAW https://t.co/oG4UfpdY8s
p137
aV2017-04-05 | RT @philstockworld: Will We Hold It Wednesday - High Hopes at 5,440 (Again) $QQQ $SPX $DIA $TASR Also $AAPL https://t.co/6XHV2TPbtt
p138
aV2017-04-05 | RT @theflynews: Data center infrastructure stocks continue multi-day slide $FFIV $FNSR $CIEN $AMZN $MSFT $GOOG $GOOGL $FB $AAPL\u2026 https://t.\u2026
p139
aV2017-04-05 | RT @philstockworld: Will We Hold It Wednesday - High Hopes at 5,440 (Again) $QQQ $SPX $DIA $TASR Also $AAPL https://t.co/6XHV2TPbtt
p140
aV2017-04-05 | RT @philstockworld: Will We Hold It Wednesday - High Hopes at 5,440 (Again) $QQQ $SPX $DIA $TASR Also $AAPL https://t.co/6XHV2TPbtt
p141
aV2017-04-05 | RT @philstockworld: Will We Hold It Wednesday - High Hopes at 5,440 (Again) $QQQ $SPX $DIA $TASR Also $AAPL https://t.co/6XHV2TPbtt
p142
aV2017-04-05 | Report: Apple Inc.'s Premium OLED iPhone 8 Could Be Delayed https://t.co/P44sOKy9HA $AAPL https://t.co/P96sBZ9jmm
p143
aV2017-04-05 | RT @philstockworld: Will We Hold It Wednesday - High Hopes at 5,440 (Again) $QQQ $SPX $DIA $TASR Also $AAPL https://t.co/6XHV2TPbtt
p144
aV2017-04-05 | RT @philstockworld: Will We Hold It Wednesday - High Hopes at 5,440 (Again) $QQQ $SPX $DIA $TASR Also $AAPL https://t.co/6XHV2TPbtt
p145
aV2017-04-05 | RT @philstockworld: Will We Hold It Wednesday - High Hopes at 5,440 (Again) $QQQ $SPX $DIA $TASR Also $AAPL https://t.co/6XHV2TPbtt
p146
aV2017-04-05 | RT @philstockworld: Will We Hold It Wednesday - High Hopes at 5,440 (Again) $QQQ $SPX $DIA $TASR Also $AAPL https://t.co/6XHV2TPbtt
p147
aV2017-04-05 | RT @philstockworld: Will We Hold It Wednesday - High Hopes at 5,440 (Again) $QQQ $SPX $DIA $TASR Also $AAPL https://t.co/6XHV2TPbtt
p148
aV2017-04-05 | RT @philstockworld: Will We Hold It Wednesday - High Hopes at 5,440 (Again) $QQQ $SPX $DIA $TASR Also $AAPL https://t.co/6XHV2TPbtt
p149
aV2017-04-05 | RT @philstockworld: Will We Hold It Wednesday - High Hopes at 5,440 (Again) $QQQ $SPX $DIA $TASR Also $AAPL https://t.co/6XHV2TPbtt
p150
aV2017-04-05 | RT @philstockworld: Will We Hold It Wednesday - High Hopes at 5,440 (Again) $QQQ $SPX $DIA $TASR Also $AAPL https://t.co/6XHV2TPbtt
p151
aV2017-04-05 | Our previously tweeted Q2 timeframe trades (for transparency):  $TSLA -301 Apr05 $IBM -174 Apr03 $AAPL -144 Mar28 $AMD +14, $TWTR +15 Mar30
p152
aV2017-04-05 | RT @MacHashNews: Microsoft releases \u2018Who's In' iMessage app for event planning with friends https://t.co/oM5Mvj5nVx #9to5Mac $AAPL https://\u2026
p153
aV2017-04-05 | StockNews Dow Down 41. $AAPL $SNAP $AMZN $TWTR $FB $TSLA https://t.co/kVGqmABxh3
p154
aV2017-04-05 | RT @philstockworld: Will We Hold It Wednesday - High Hopes at 5,440 (Again) $QQQ $SPX $DIA $TASR Also $AAPL https://t.co/6XHV2TPbtt
p155
aV2017-04-05 | Microsoft releases \u2018Who's In' iMessage app for event planning with friends https://t.co/oM5Mvj5nVx #9to5Mac $AAPL https://t.co/o0ANQF5OhT
p156
aV2017-04-05 | RT @philstockworld: Will We Hold It Wednesday - High Hopes at 5,440 (Again) $QQQ $SPX $DIA $TASR Also $AAPL https://t.co/6XHV2TPbtt
p157
aV2017-04-05 | RT @philstockworld: Will We Hold It Wednesday - High Hopes at 5,440 (Again) $QQQ $SPX $DIA $TASR Also $AAPL https://t.co/6XHV2TPbtt
p158
aV2017-04-05 | RT @philstockworld: Will We Hold It Wednesday - High Hopes at 5,440 (Again) $QQQ $SPX $DIA $TASR Also $AAPL https://t.co/6XHV2TPbtt
p159
aV2017-04-05 | $AAPL:  Report: Apple Inc.\u2019s Premium OLED iPhone 8 Could Be Delayed:  https://t.co/TXJ97FqcJE
p160
aV2017-04-05 | RT @philstockworld: Will We Hold It Wednesday - High Hopes at 5,440 (Again) $QQQ $SPX $DIA $TASR Also $AAPL https://t.co/6XHV2TPbtt
p161
aV2017-04-05 | Dow reverses 150 points and closes down 41 as Fed minutes show worry about valuations. $AMZN $TSLA $AAPL hit highs https://t.co/oVfBaxDycg
p162
aV2017-04-05 | Apple, Inc. Earnings: Can the Tech Giant Live Up to a Higher Stock Price?  https://t.co/KAY2Lxen8g $AAPL https://t.co/PBoPQETIOF
p163
aV2017-04-05 | RT @philstockworld: Will We Hold It Wednesday - High Hopes at 5,440 (Again) $QQQ $SPX $DIA $TASR Also $AAPL https://t.co/6XHV2TPbtt
p164
aV2017-04-05 | RT @appleinsider: Microsoft's new iOS 10 iMessage App "Who's In" lets groups collaborate on plans $AAPL $MSFT https://t.co/UIkVYxFYbt https\u2026
p165
aV2017-04-05 | RT @philstockworld: Will We Hold It Wednesday - High Hopes at 5,440 (Again) $QQQ $SPX $DIA $TASR Also $AAPL https://t.co/6XHV2TPbtt
p166
aV2017-04-05 | $AAPL $144.02 (-0.52%) is a top mover.  Try our #sentiment analysis tool free: https://t.co/GvMdw1aUkZ  #trading
p167
aV2017-04-05 | RT @philstockworld: Will We Hold It Wednesday - High Hopes at 5,440 (Again) $QQQ $SPX $DIA $TASR Also $AAPL https://t.co/6XHV2TPbtt
p168
aV2017-04-05 | RT @philstockworld: Will We Hold It Wednesday - High Hopes at 5,440 (Again) $QQQ $SPX $DIA $TASR Also $AAPL https://t.co/6XHV2TPbtt
p169
aV2017-04-05 | RT @philstockworld: Will We Hold It Wednesday - High Hopes at 5,440 (Again) $QQQ $SPX $DIA $TASR Also $AAPL https://t.co/6XHV2TPbtt
p170
aV2017-04-05 | RT @philstockworld: Will We Hold It Wednesday - High Hopes at 5,440 (Again) $QQQ $SPX $DIA $TASR Also $AAPL https://t.co/6XHV2TPbtt
p171
aV2017-04-05 | RT @philstockworld: Will We Hold It Wednesday - High Hopes at 5,440 (Again) $QQQ $SPX $DIA $TASR Also $AAPL https://t.co/6XHV2TPbtt
p172
aV2017-04-05 | RT @philstockworld: Will We Hold It Wednesday - High Hopes at 5,440 (Again) $QQQ $SPX $DIA $TASR Also $AAPL https://t.co/6XHV2TPbtt
p173
aV2017-04-05 | RT @theflynews: Data center infrastructure stocks continue multi-day slide $FFIV $FNSR $CIEN $AMZN $MSFT $GOOG $GOOGL $FB $AAPL\u2026 https://t.\u2026
p174
aV2017-04-05 | RT @philstockworld: Will We Hold It Wednesday - High Hopes at 5,440 (Again) $QQQ $SPX $DIA $TASR Also $AAPL https://t.co/6XHV2TPbtt
p175
aV2017-04-05 | $AAPL Apple Stock Analysis And Predictions For 2017: https://t.co/cRn1OYsY1b https://t.co/ZhYPROcHmE
p176
aV2017-04-05 | RT @philstockworld: Will We Hold It Wednesday - High Hopes at 5,440 (Again) $QQQ $SPX $DIA $TASR Also $AAPL https://t.co/6XHV2TPbtt
p177
aV2017-04-05 | RT @philstockworld: Will We Hold It Wednesday - High Hopes at 5,440 (Again) $QQQ $SPX $DIA $TASR Also $AAPL https://t.co/6XHV2TPbtt
p178
aV2017-04-05 | RT @philstockworld: Will We Hold It Wednesday - High Hopes at 5,440 (Again) $QQQ $SPX $DIA $TASR Also $AAPL https://t.co/6XHV2TPbtt
p179
aV2017-04-05 | RT @MarketRealist: Consumer Tech Stocks: New Life after 1Q17? https://t.co/LdxrfaHBdH $AAPL $FIT $GPRO $BBRY
p180
aV2017-04-05 | RT @philstockworld: Will We Hold It Wednesday - High Hopes at 5,440 (Again) $QQQ $SPX $DIA $TASR Also $AAPL https://t.co/6XHV2TPbtt
p181
aV2017-04-05 | If $AAPL had a Bezos/Musk like CEO..stock would be double the price it is now. Cook is a good guy but he is a game manager..a la Alex Smith
p182
aV2017-04-05 | RT @philstockworld: Will We Hold It Wednesday - High Hopes at 5,440 (Again) $QQQ $SPX $DIA $TASR Also $AAPL https://t.co/6XHV2TPbtt
p183
aV2017-04-05 | RT @philstockworld: Will We Hold It Wednesday - High Hopes at 5,440 (Again) $QQQ $SPX $DIA $TASR Also $AAPL https://t.co/6XHV2TPbtt
p184
aV2017-04-05 | RT @philstockworld: Will We Hold It Wednesday - High Hopes at 5,440 (Again) $QQQ $SPX $DIA $TASR Also $AAPL https://t.co/6XHV2TPbtt
p185
aV2017-04-05 | RT @philstockworld: Will We Hold It Wednesday - High Hopes at 5,440 (Again) $QQQ $SPX $DIA $TASR Also $AAPL https://t.co/6XHV2TPbtt
p186
aV2017-04-05 | RT @philstockworld: Will We Hold It Wednesday - High Hopes at 5,440 (Again) $QQQ $SPX $DIA $TASR Also $AAPL https://t.co/6XHV2TPbtt
p187
aV2017-04-05 | 12 Great Books on Options Trading https://t.co/u69ZnBdmhA #options #trading $SPY $AAPL $VIX $VXX $RUT $DIA $QQQ
p188
aV2017-04-05 | RT @philstockworld: Will We Hold It Wednesday - High Hopes at 5,440 (Again) $QQQ $SPX $DIA $TASR Also $AAPL https://t.co/6XHV2TPbtt
p189
aV2017-04-05 | RT @philstockworld: Will We Hold It Wednesday - High Hopes at 5,440 (Again) $QQQ $SPX $DIA $TASR Also $AAPL https://t.co/6XHV2TPbtt
p190
aV2017-04-05 | RT @appleinsider: Microsoft's new iOS 10 iMessage App "Who's In" lets groups collaborate on plans $AAPL $MSFT https://t.co/UIkVYxFYbt https\u2026
p191
aV2017-04-05 | RT @philstockworld: Will We Hold It Wednesday - High Hopes at 5,440 (Again) $QQQ $SPX $DIA $TASR Also $AAPL https://t.co/6XHV2TPbtt
p192
aV2017-04-05 | RT @MacHashNews: Why iOS 10.3.1 is a "must-install" update https://t.co/6VChltb3Qa #AppleWorldToday $AAPL https://t.co/AoX704RqFL
p193
aV2017-04-05 | RT @philstockworld: Will We Hold It Wednesday - High Hopes at 5,440 (Again) $QQQ $SPX $DIA $TASR Also $AAPL https://t.co/6XHV2TPbtt
p194
aV2017-04-05 | RT @philstockworld: Will We Hold It Wednesday - High Hopes at 5,440 (Again) $QQQ $SPX $DIA $TASR Also $AAPL https://t.co/6XHV2TPbtt
p195
aV2017-04-05 | RT @philstockworld: Will We Hold It Wednesday - High Hopes at 5,440 (Again) $QQQ $SPX $DIA $TASR Also $AAPL https://t.co/6XHV2TPbtt
p196
asI2
(lp197
V2017-04-04 | RT @appleinsider: Why Apple's new GPU efforts are a major disruptive threat to Nvidia $AAPL $NVDA  https://t.co/Kt7fubyL5Q https://t.co/Oq9\u2026
p198
aV2017-04-04 | RT @FoxBusiness: Apple admits to Mac Pro design flaws, promises new model coming $AAPL  https://t.co/eRqZRM6PzH
p199
aV2017-04-04 | RT @commander10: $AAPL breaking above yet another bull flag on daily chart to new all-time highs. Very #bullish. https://t.co/ANza8RiVX0
p200
aV2017-04-04 | I love bull call spreads for that specific fact I can risk just a $1 per option or $100 to own 100 shares of $AMZN $GOOG $AAPL
p201
aV2017-04-04 | RT @NewsToDesk: $AAPL:  Bullish on Apple Inc? You\u2019ll Love These 3 Stocks:  https://t.co/xlQwVZ4O8e
p202
aV2017-04-04 | Ready to invest? $AAPL is definitely worth checking out today! https://t.co/3xizRKvcdM #SusanRice #3d
p203
aV2017-04-04 | $AAPL silicon ambition MT Why Apple's new GPU efforts are a major disruptive threat to $NVDA ($AMD 2) https://t.co/wpuLmh4r6o @AppleInsider
p204
aV2017-04-04 | RT @appleinsider: Why Apple's new GPU efforts are a major disruptive threat to Nvidia $AAPL $NVDA  https://t.co/Kt7fubyL5Q https://t.co/Oq9\u2026
p205
aV2017-04-04 | RT @option_snipper: $AAPL NO need to draw anything on this beautiful chart. Just look at it clean. STRONG price actions expected next few d\u2026
p206
aV2017-04-04 | Dubai News Reveals another Apple Store under Construction that will have a Spectacular View of\u2026\u2026 https://t.co/Yun9JHztpE
p207
aV2017-04-04 | RT @lisahopeking: Had great time w @Gartenberg @reneritchie on AppleTalk. Listen now: What $AAPL needs to do to beat #S8, DeX &amp; more https:\u2026
p208
aV2017-04-04 | It's a stock-pickers market again. Recent winners include $NFLX $FB $AAPL $TSLA $NVDA $BABA  Free Trials, hitting swing winners since 2006.
p209
aV2017-04-04 | RT @ExactOptionPick: FREE DAILY OPTION TRADE. Sign up for our DAILY FREE TRADE at   https://t.co/78FVQDKYyw   $AAPL $AMZN $GOOGL $GS $FB $N\u2026
p210
aV2017-04-04 | RT @ExactOptionPick: FREE DAILY OPTION TRADE. Sign up for our DAILY FREE TRADE at   https://t.co/78FVQDKYyw   $AAPL $AMZN $GOOGL $GS $FB $N\u2026
p211
aV2017-04-04 | FREE DAILY OPTION TRADE. Sign up for our DAILY FREE TRADE at   https://t.co/78FVQDKYyw   $AAPL $AMZN $GOOGL $GS $FB $NVDA $TSLA $PNRA $AMD
p212
aV2017-04-04 | $AAPL #patent 9,613,393: Closed loop CPU performance control https://t.co/a6sMEOvR6O #tech #IP https://t.co/HIoJWAZzJ2
p213
aV2017-04-04 | Why Apple's new GPU efforts are a major disruptive threat to Nvidia $AAPL $NVDA  https://t.co/9sI8n5hMjF https://t.co/pqrslTpgVl
p214
aV2017-04-04 | Why Apple's new GPU efforts are a major disruptive threat to Nvidia $AAPL $NVDA  https://t.co/RwpMmTv0Q8 https://t.co/O0AInDWqFK
p215
aV2017-04-04 | appleinsider: Why Apple's new GPU efforts are a major disruptive threat to Nvidia $AAPL $NVDA  \u2026 https://t.co/qObYlQmRgc
p216
aV2017-04-04 | RT @appleinsider: Why Apple's new GPU efforts are a major disruptive threat to Nvidia $AAPL $NVDA  https://t.co/Kt7fubyL5Q https://t.co/Oq9\u2026
p217
aV2017-04-04 | RT @appleinsider: Why Apple's new GPU efforts are a major disruptive threat to Nvidia $AAPL $NVDA  https://t.co/Kt7fubyL5Q https://t.co/Oq9\u2026
p218
aV2017-04-04 | RT @appleinsider: Why Apple's new GPU efforts are a major disruptive threat to Nvidia $AAPL $NVDA  https://t.co/Kt7fubyL5Q https://t.co/Oq9\u2026
p219
aV2017-04-04 | RT @appleinsider: Why Apple's new GPU efforts are a major disruptive threat to Nvidia $AAPL $NVDA  https://t.co/Kt7fubyL5Q https://t.co/Oq9\u2026
p220
aV2017-04-04 | Why Apple's new GPU efforts are a major disruptive threat to Nvidia $AAPL $NVDA  https://t.co/Kt7fubyL5Q https://t.co/Oq91rMepxG
p221
aV2017-04-04 | RT @DayTradersGroup: $AAPL Remember this chart from Monday? http://t.co/snblISku09 $fcx $nem $gGLD $GDX $AMZN $vxx $aig $TBT #OPTIONS
p222
aV2017-04-04 | @Recode $twtr @jack @anthonynoto @kayvz @omidkordestani @btaylor @jimcramer tough compition.expected. $amzn redefin\u2026 https://t.co/nBZtfXQscq
p223
aV2017-04-04 | I don't like #APPLE products (poorly made but wrapped nicely; "#APPLE gone with Jobs"), but better remove some from $NVDA to buy $AAPL.
p224
aV2017-04-04 | $AAPL:  Bullish on Apple Inc? You\u2019ll Love These 3 Stocks:  https://t.co/xlQwVZ4O8e
p225
aV2017-04-04 | RT @option_snipper: Watchlist for Wednesday, April 5:  $AAPL $TSLA $GOOGL $X
p226
aV2017-04-04 | @Ghost_ridder_ yeah all options. $AAPL multistrikes $TSLA JAN2019 350C MAR31 275C &amp; APR 300C
p227
aV2017-04-04 | RT @MacHashNews: Apple Patent Reveals a New Security Feature Coming to Siri https://t.co/UuCjM2UdCq #PatentlyApple $AAPL https://t.co/6cuj1\u2026
p228
aV2017-04-04 | $AAPL on the launch pad right before the close.
p229
aV2017-04-04 | $AAPL NO need to draw anything on this beautiful chart. Just look at it clean. STRONG price actions expected next f\u2026 https://t.co/M5Tp2ypHlo
p230
aV2017-04-04 | Watchlist for Wednesday, April 5:  $AAPL $TSLA $GOOGL $X
p231
aV2017-04-04 | RT @farzyness: $GM is the Nokia of the car world. $F has the potential to be the Samsung of the car world. $TSLA is the $AAPL of the car wo\u2026
p232
aV2017-04-04 | @stevesi The top up on memory costs $20-40, and $AAPL is selling at $100 more. Never shy of money raining there....
p233
aV2017-04-04 | $AAPL:  Samsung to ride soaring chip profits in first quarter, Galaxy S8 aura \u2026:  https://t.co/YSNcZlI3YX
p234
aV2017-04-04 | $AAPL #patent 9,613,249: Finger sensor including encapsulating layer over sensi... https://t.co/GPnpWDjsRN #tech #IP https://t.co/YF5eL16T3E
p235
aV2017-04-04 | Breadth is really thinning - $aapl $amzn $tsla only a handful bearing this mkt
p236
aV2017-04-04 | Apple Patent Reveals a New Security Feature Coming to Siri https://t.co/UuCjM2UdCq #PatentlyApple $AAPL https://t.co/6cuj1dKNKY
p237
aV2017-04-04 | RT @WallStJesus: TODAY'S  $AAPL SENTIMENT: https://t.co/ZJTb1skKYj
p238
aV2017-04-04 | RT @theinformation: The latest defection on the Apple design team. $AAPL https://t.co/nsJXGeCgAT
p239
aV2017-04-04 | RT @optionslisa: $aapl tough one here ..probably going sideways in tight range here may pull back a buck or up a bit but no trade here for\u2026
p240
aV2017-04-04 | RT @kiwitrader24: $SPX the final week of April looks like the motherland reports: $AAPL $TWTR $FB $AMZN $GOOGL
p241
aV2017-04-04 | $aapl tough one here ..probably going sideways in tight range here may pull back a buck or up a bit but no trade here for me
p242
aV2017-04-04 | $SPX the final week of April looks like the motherland reports: $AAPL $TWTR $FB $AMZN $GOOGL
p243
aV2017-04-04 | RT @andrewbusey: I really wish @Apple would add a way for me to plug an iPad into my Mac as both an input device and second screen. $AAPL
p244
aV2017-04-04 | RT @_steve3_: \U0001f49bTuesday April 4th, '17 \U0001f49a+ Call Buy $AAPL $AMZN $FB $MU $ORCL $TSLA $TWTR  \u2665\ufe0f - &lt;none&gt; \U0001f499#TrumpIndex $FREE  #JAlert -&gt; @Cramer\u2026
p245
aV2017-04-04 | RT @bennyrich11: Apple patents shock absorbers for iPhone that pop out when device is dropped, and allow flotation $AAPL https://t.co/MJy0u\u2026
p246
aV2017-04-04 | These companies are on sale. If deal is passed, huge returns! $M, $PNRA, $SPLS $XLNX by $AVGO? $TOSYY by $AVGO,\u2026 https://t.co/64OjwX0GUU
p247
aV2017-04-04 | $AAPL sum put vol=45,106 sum call vol=85,623 PutCallRatio=0.53 expiration 04/07/2017 . https://t.co/2B64q6wt4V https://t.co/2xtHttgMO3
p248
aV2017-04-04 | Millionaire trading student https://t.co/GSuqF6B8WI made millions learning to trade from https://t.co/ui9ZEGne2A $AAPL $CNAT $ICPT
p249
aV2017-04-04 | @falafeldiaper1 @Bryce_Martel They are hiding just running up $AAPL, $AMZN and $TSLA here
p250
aV2017-04-04 | Can Foreign Individuals Trade in the US Markets? https://t.co/rYrmYqZWe9 #Trading #Stocks #Options $AAPL $FB $AMZN $TWTR $GS $GM $F $DUST
p251
aV2017-04-04 | $AAPL New ATH off the 8D, 150c's being bought. Grinding higher into earnings @Bryce_Martel  https://t.co/4pZnCLLv80
p252
aV2017-04-04 | Needham &amp; Co. on Apple: We love this stock $AAPL https://t.co/OOupXDOuBe
p253
aV2017-04-04 | Apple patents shock absorbers for iPhone that pop out when device is dropped, and allow flotation $AAPL https://t.co/MJy0utQEy1
p254
aV2017-04-04 | RT @WallStJesus: TODAY'S  $AAPL SENTIMENT: https://t.co/ZJTb1skKYj
p255
aV2017-04-04 | RT @SeekingAlpha: The Cheapest Way To Diversify Among Large-Cap Companies https://t.co/xo6XGK2Bmr $AAPL #APPLE $AMZN $FB $GE $GIS $JNJ $JPM\u2026
p256
aV2017-04-04 | RT @SeekingAlpha: The Cheapest Way To Diversify Among Large-Cap Companies https://t.co/xo6XGK2Bmr $AAPL #APPLE $AMZN $FB $GE $GIS $JNJ $JPM\u2026
p257
aV2017-04-04 | RT @treabase: $AAPL #patent 9,613,246: Multiple scan element array ultrasonic biometric scanner https://t.co/hTuvSjRrPz #tech #IP https://t\u2026
p258
aV2017-04-04 | Yet #markets are at record highs...all we need is $AMZN $FB $AAPL &amp; $GOOGL,the rest?Optional. That's not a healty\u2026 https://t.co/LQsU8e8NAC
p259
aV2017-04-04 | RT @WallStJesus: TODAY'S  $AAPL SENTIMENT: https://t.co/ZJTb1skKYj
p260
aV2017-04-04 | TODAY'S  $AAPL SENTIMENT: https://t.co/ZJTb1skKYj
p261
aV2017-04-04 | RT @FoxBusiness: Apple admits to Mac Pro design flaws, promises new model coming $AAPL  https://t.co/eRqZRM6PzH
p262
aV2017-04-04 | RT @AlertTrade: The Cheapest Way To Diversify Among Large-Cap Companies $AAPL #APPLE $AMZN $FB $GE $GIS $JNJ\u2026 https://t.co/lC79hen8bd #Inve\u2026
p263
aV2017-04-04 | RT @AlertTrade: The Cheapest Way To Diversify Among Large-Cap Companies $AAPL #APPLE $AMZN $FB $GE $GIS $JNJ\u2026 https://t.co/lC79hen8bd #Inve\u2026
p264
aV2017-04-04 | $AAPL #patent 9,613,246: Multiple scan element array ultrasonic biometric scanner https://t.co/hTuvSjRrPz #tech #IP https://t.co/2fW5WI7Hwl
p265
aV2017-04-04 | RT @TradewiseApp: Apple is sorry about the Mac Pro, vows to relaunch it in 2018 https://t.co/p2O4r2M5Sx $AAPL
p266
aV2017-04-04 | Apple is sorry about the Mac Pro, vows to relaunch it in 2018 https://t.co/p2O4r2M5Sx $AAPL
p267
aV2017-04-04 | $AAPL - Statement of Changes in Beneficial Ownership (4) https://t.co/YwEgflksOP
p268
aV2017-04-04 | $AAPL - Statement of Changes in Beneficial Ownership (4) https://t.co/oyKmsPlfZC
p269
aV2017-04-04 | $AAPL - Statement of Changes in Beneficial Ownership (4) https://t.co/TDbSVpoBHv
p270
aV2017-04-04 | $AAPL - Statement of Changes in Beneficial Ownership (4) https://t.co/y18IxJJF6h
p271
aV2017-04-04 | $AAPL - Statement of Changes in Beneficial Ownership (4) https://t.co/gCeppMbFKF
p272
aV2017-04-04 | $AAPL - Statement of Changes in Beneficial Ownership (4) https://t.co/OvFNQkeq0P
p273
aV2017-04-04 | $AAPL - Statement of Changes in Beneficial Ownership (4) https://t.co/D2YXm5SSwC
p274
aV2017-04-04 | $AAPL - Statement of Changes in Beneficial Ownership (4) https://t.co/YWnCYbx5sH
p275
aV2017-04-04 | $AAPL - Statement of Changes in Beneficial Ownership (4) https://t.co/5iQDq3nHWu
p276
aV2017-04-04 | $AAPL - Statement of Changes in Beneficial Ownership (4) https://t.co/uoSLNAdAni
p277
aV2017-04-04 | $AAPL - Statement of Changes in Beneficial Ownership (4) https://t.co/QMIOikp5Oj
p278
aV2017-04-04 | $AAPL - Statement of Changes in Beneficial Ownership (4) https://t.co/SLGo8fXYSq
p279
aV2017-04-04 | $AAPL - Statement of Changes in Beneficial Ownership (4) https://t.co/kyTlLohIEE
p280
aV2017-04-04 | $AAPL - Statement of Changes in Beneficial Ownership (4) https://t.co/5bQzd2ycIs
p281
aV2017-04-04 | $AAPL - Statement of Changes in Beneficial Ownership (4) https://t.co/em5smIKeru
p282
aV2017-04-04 | Apple warns iCloud users some services accidentally reactivated with iOS 10.3 https://t.co/1BlJ3fTBvd #AppleInsider\u2026 https://t.co/7n8UFT4d2R
p283
aV2017-04-04 | $AAPL:  New Insider Filing on  Senior Vice President  PHILIP W SCHILLER:  https://t.co/Ogoekkz4Wa
p284
aV2017-04-04 | $AAPL - Statement of Changes in Beneficial Ownership (4) https://t.co/EL64bjE5NK
p285
aV2017-04-04 | $AAPL - Statement of Changes in Beneficial Ownership (4) https://t.co/1gNPkSICiR
p286
aV2017-04-04 | $AAPL - Statement of Changes in Beneficial Ownership (4) https://t.co/VATwPAiq8q
p287
aV2017-04-04 | $AAPL - Statement of Changes in Beneficial Ownership (4) https://t.co/IRQmlmnhSz
p288
aV2017-04-04 | $AAPL - Statement of Changes in Beneficial Ownership (4) https://t.co/mNZVR5gD50
p289
aV2017-04-04 | $AAPL - Statement of Changes in Beneficial Ownership (4) https://t.co/y1ojCckE7J
p290
aV2017-04-04 | $AAPL - Statement of Changes in Beneficial Ownership (4) https://t.co/ZGAhB8ftGg
p291
aV2017-04-04 | $AAPL - Statement of Changes in Beneficial Ownership (4) https://t.co/cB8Y8DgB5h
p292
aV2017-04-04 | $AAPL - Statement of Changes in Beneficial Ownership (4) https://t.co/qIwiQH8hP4
p293
aV2017-04-04 | $AAPL - Statement of Changes in Beneficial Ownership (4) https://t.co/griC5Xsnsu
p294
aV2017-04-04 | $AAPL - Statement of Changes in Beneficial Ownership (4) https://t.co/xebqKeHvK8
p295
aV2017-04-04 | $AAPL - Statement of Changes in Beneficial Ownership (4) https://t.co/O2pQEv7avg
p296
aV2017-04-04 | $AAPL - Statement of Changes in Beneficial Ownership (4) https://t.co/nqPitnIkqq
p297
asI3
(lp298
sI4
(lp299
sI5
(lp300
sI6
(lp301
sI7
(lp302
sI8
(lp303
sI9
(lp304
sI10
(lp305
sI11
(lp306
sI12
(lp307
sI13
(lp308
sI14
(lp309
sI15
(lp310
sI16
(lp311
sI17
(lp312
sI18
(lp313
s.